(cOrange.orange
__pickleLoaderExampleTable
p0
(cOrange.data
Table
p1
cOrange.orange
__pickleLoaderDomain
p2
(cOrange.data
Domain
p3
cOrange.core
VarList
p4
(tRp5
cOrange.orange
__pickleLoaderEnumVariable
p6
(cOrange.feature
Discrete
p7
(dp8
S'source_variable'
p9
NsS'ordered'
p10
I0
sS'name'
p11
S'DNA'
p12
sS'var_type'
p13
I1
sS'random_generator'
p14
NsS'distributed'
p15
I0
sS'values'
p16
cOrange.core
StringList
p17
(tRp18
S'A'
p19
aS'C'
p20
aS'T'
p21
aS'G'
p22
a(dp23
bsS'default_meta_id'
p24
I0
sS'base_value'
p25
I-1
stp26
Rp27
(dp28
S'get_value_from'
p29
Nsbag6
(g7
(dp30
g9
Nsg10
I0
sS'name'
p31
S'gene_structure_on_plus'
p32
sg13
I1
sg14
Nsg15
I0
sg16
g17
(tRp33
S'I'
p34
aS'E'
p35
aS'O'
p36
aS'_'
p37
a(dp38
bsg24
I0
sg25
I-1
stp39
Rp40
(dp41
g29
Nsbag6
(g7
(dp42
g9
Nsg10
I0
sS'name'
p43
S'gene_structure_on_minus'
p44
sg13
I1
sg14
Nsg15
I0
sg16
g17
(tRp45
g34
ag35
ag37
ag36
a(dp46
bsg24
I0
sg25
I-1
stp47
Rp48
(dp49
g29
Nsbag6
(g7
(dp50
g9
Nsg10
I0
sS'name'
p51
S'UTR&TSS'
p52
sg13
I1
sg14
Nsg15
I0
sg16
g17
(tRp53
S'5utr'
p54
aS'3utr'
p55
aS'tss'
p56
ag37
a(dp57
bsg24
I0
sg25
I-1
stp58
Rp59
(dp60
g29
Nsbag6
(g7
(dp61
g9
Nsg10
I0
sS'name'
p62
S'histone_binding'
p63
sg13
I1
sg14
Nsg15
I0
sg16
g17
(tRp64
S'H'
p65
ag37
a(dp66
bsg24
I0
sg25
I-1
stp67
Rp68
(dp69
g29
Nsbag6
(g7
(dp70
g9
Nsg10
I0
sS'name'
p71
S'histone_modifications'
p72
sg13
I1
sg14
Nsg15
I0
sg16
g17
(tRp73
S'P'
p74
aS'PP'
p75
aS'Z'
p76
aS'NN'
p77
aS'N'
p78
a(dp79
bsg24
I0
sg25
I-1
stp80
Rp81
(dp82
g29
Nsbag6
(g7
(dp83
g9
Nsg10
I0
sS'name'
p84
S'nucleosome_occupancy'
p85
sg13
I1
sg14
Nsg15
I0
sg16
g17
(tRp86
g74
ag76
ag78
a(dp87
bsg24
I0
sg25
I-1
stp88
Rp89
(dp90
g29
Nsbag6
(g7
(dp91
g9
Nsg10
I0
sS'name'
p92
S'expression'
p93
sg13
I1
sg14
Nsg15
I0
sg16
g17
(tRp94
g74
ag76
ag78
a(dp95
bsg24
I0
sg25
I-1
stp96
Rp97
(dp98
g29
Nsba(dp99
bg6
(g7
(dp100
g9
Nsg10
I0
sS'name'
p101
S'polII_presence'
p102
sg13
I1
sg14
Nsg15
I0
sg16
g17
(tRp103
S'1'
p104
aS'2'
p105
aS'3'
p106
a(dp107
bsg24
I0
sg25
I-1
stp108
Rp109
(dp110
g29
Nsbg4
(tRp111
(dp112
b(dp113
(dp114
tp115
Rp116
(dp117
bS'\x00\x00\x00\x00'
p118
Ntp119
Rp120
(dp121
S'domain'
p122
g116
sg14
Nsbg116
(lp123
g27
ag40
ag48
ag59
ag68
ag81
ag89
ag97
ag109
tp124
.