ccopy_reg
_reconstructor
p1
(cBio.SeqRecord
SeqRecord
p2
c__builtin__
object
p3
NtRp4
(dp5
S'dbxrefs'
p6
(lp7
S'Project:12384 BioProject:PRJNA12384'
p8
asS'description'
p9
S'Canis lupus familiaris mitochondrion, complete genome.'
p10
sS'annotations'
p11
(dp12
S'comment'
p13
S'REVIEWED REFSEQ: This record has been curated by NCBI staff. The\nreference sequence was derived from U96639.\nOn Dec 14, 2001 this sequence version replaced gi:15805032.\nCOMPLETENESS: full length.'
p14
sS'sequence_version'
p15
I4
sS'source'
p16
S'mitochondrion Canis lupus familiaris (dog)'
p17
sS'taxonomy'
p18
(lp19
S'Eukaryota'
p20
aS'Metazoa'
p21
aS'Chordata'
p22
aS'Craniata'
p23
aS'Vertebrata'
p24
aS'Euteleostomi'
p25
aS'Mammalia'
p26
aS'Eutheria'
p27
aS'Laurasiatheria'
p28
aS'Carnivora'
p29
aS'Caniformia'
p30
aS'Canidae'
p31
aS'Canis'
p32
asS'keywords'
p33
(lp34
S''
asS'references'
p35
(lp36
g1
(cBio.SeqFeature
Reference
p37
g3
NtRp38
(dp39
g13
S''
sS'title'
p40
S'The complete nucleotide sequence of the domestic dog (Canis familiaris) mitochondrial genome'
p41
sS'consrtm'
p42
S''
sS'journal'
p43
S'Mol. Phylogenet. Evol. 10 (2), 210-220 (1998)'
p44
sS'location'
p45
(lp46
g1
(cBio.SeqFeature
FeatureLocation
p47
g3
NtRp48
(dp49
S'ref'
p50
NsS'_end'
p51
g1
(cBio.SeqFeature
ExactPosition
p52
c__builtin__
int
p53
I16727
tRp54
sS'_start'
p55
g1
(g52
g53
I0
tRp56
sS'_strand'
p57
NsS'ref_db'
p58
NsbasS'pubmed_id'
p59
S'9878232'
p60
sS'authors'
p61
S'Kim,K.S., Lee,S.E., Jeong,H.W. and Ha,J.H.'
p62
sS'medline_id'
p63
S''
sbag1
(g37
g3
NtRp64
(dp65
g13
S''
sg40
S'Direct Submission'
p66
sg42
S'NCBI Genome Project'
p67
sg43
S'Submitted (22-JUN-2007) National Center for Biotechnology Information, NIH, Bethesda, MD 20894, USA'
p68
sg45
(lp69
g1
(g47
g3
NtRp70
(dp71
g50
Nsg51
g1
(g52
g53
I16727
tRp72
sg55
g1
(g52
g53
I0
tRp73
sg57
Nsg58
Nsbasg59
S''
sg61
S''
sg63
S''
sbag1
(g37
g3
NtRp74
(dp75
g13
S''
sg40
S'Direct Submission'
p76
sg42
S''
sg43
S'Submitted (07-APR-1997) Genetic Engineering, Animal Genetics, 1370 Sankyuk-dong, Pukgu, Taegu 702-701, Korea'
p77
sg45
(lp78
g1
(g47
g3
NtRp79
(dp80
g50
Nsg51
g1
(g52
g53
I16727
tRp81
sg55
g1
(g52
g53
I0
tRp82
sg57
Nsg58
Nsbasg59
S''
sg61
S'Kim,K.S., Lee,S.E., Jeong,H.W., Jeong,S.Y., Sohn,H.S. and Ha,J.H.'
p83
sg63
S''
sbasS'accessions'
p84
(lp85
S'NC_002008'
p86
asS'data_file_division'
p87
S'MAM'
p88
sS'date'
p89
S'14-APR-2009'
p90
sS'organism'
p91
S'Canis lupus familiaris'
p92
sS'gi'
p93
S'17737322'
p94
ssS'features'
p95
(lp96
g1
(cBio.SeqFeature
SeqFeature
p97
g3
NtRp98
(dp99
S'sub_features'
p100
(lp101
sS'location_operator'
p102
S''
sS'id'
p103
S'<unknown id>'
p104
sg45
g1
(g47
g3
NtRp105
(dp106
g50
Nsg51
g1
(g52
g53
I16727
tRp107
sg55
g1
(g52
g53
I0
tRp108
sg57
I1
sg58
NsbsS'type'
p109
S'source'
p110
sS'qualifiers'
p111
(dp112
S'organelle'
p113
(lp114
S'mitochondrion'
p115
asS'db_xref'
p116
(lp117
S'taxon:9615'
p118
asS'sub_species'
p119
(lp120
S'familiaris'
p121
asS'mol_type'
p122
(lp123
S'genomic DNA'
p124
asS'organism'
p125
(lp126
S'Canis lupus familiaris'
p127
assbag1
(g97
g3
NtRp128
(dp129
g100
(lp130
sg102
S''
sg103
g104
sg45
g1
(g47
g3
NtRp131
(dp132
g50
Nsg51
g1
(g52
g53
I69
tRp133
sg55
g1
(g52
g53
I0
tRp134
sg57
I1
sg58
Nsbsg109
S'tRNA'
p135
sg111
(dp136
S'product'
p137
(lp138
S'tRNA-Phe'
p139
assbag1
(g97
g3
NtRp140
(dp141
g100
(lp142
sg102
S''
sg103
g104
sg45
g1
(g47
g3
NtRp143
(dp144
g50
Nsg51
g1
(g52
g53
I1023
tRp145
sg55
g1
(g52
g53
I69
tRp146
sg57
I1
sg58
Nsbsg109
S'rRNA'
p147
sg111
(dp148
S'note'
p149
(lp150
S'12S ribosomal RNA'
p151
asS'product'
p152
(lp153
S's-rRNA'
p154
assbag1
(g97
g3
NtRp155
(dp156
g100
(lp157
sg102
S''
sg103
g104
sg45
g1
(g47
g3
NtRp158
(dp159
g50
Nsg51
g1
(g52
g53
I1090
tRp160
sg55
g1
(g52
g53
I1023
tRp161
sg57
I1
sg58
Nsbsg109
S'tRNA'
p162
sg111
(dp163
S'product'
p164
(lp165
S'tRNA-Val'
p166
assbag1
(g97
g3
NtRp167
(dp168
g100
(lp169
sg102
S''
sg103
g104
sg45
g1
(g47
g3
NtRp170
(dp171
g50
Nsg51
g1
(g52
g53
I2670
tRp172
sg55
g1
(g52
g53
I1090
tRp173
sg57
I1
sg58
Nsbsg109
S'rRNA'
p174
sg111
(dp175
S'note'
p176
(lp177
S'16S ribosomal RNA'
p178
asS'product'
p179
(lp180
S'l-rRNA'
p181
assbag1
(g97
g3
NtRp182
(dp183
g100
(lp184
sg102
S''
sg103
g104
sg45
g1
(g47
g3
NtRp185
(dp186
g50
Nsg51
g1
(g52
g53
I2534
tRp187
sg55
g1
(g52
g53
I2340
tRp188
sg57
I1
sg58
Nsbsg109
S'STS'
p189
sg111
(dp190
S'db_xref'
p191
(lp192
S'UniSTS:210357'
p193
asS'standard_name'
p194
(lp195
S'RH136367'
p196
assbag1
(g97
g3
NtRp197
(dp198
g100
(lp199
sg102
S''
sg103
g104
sg45
g1
(g47
g3
NtRp200
(dp201
g50
Nsg51
g1
(g52
g53
I2744
tRp202
sg55
g1
(g52
g53
I2670
tRp203
sg57
I1
sg58
Nsbsg109
S'tRNA'
p204
sg111
(dp205
S'codon_recognized'
p206
(lp207
S'UUR'
p208
asS'product'
p209
(lp210
S'tRNA-Leu'
p211
assbag1
(g97
g3
NtRp212
(dp213
g100
(lp214
sg102
S''
sg103
g104
sg45
g1
(g47
g3
NtRp215
(dp216
g50
Nsg51
g1
(g52
g53
I3702
tRp217
sg55
g1
(g52
g53
I2746
tRp218
sg57
I1
sg58
Nsbsg109
S'gene'
p219
sg111
(dp220
S'db_xref'
p221
(lp222
S'GeneID:804476'
p223
asS'gene'
p224
(lp225
S'ND1'
p226
assbag1
(g97
g3
NtRp227
(dp228
g100
(lp229
sg102
S''
sg103
g104
sg45
g1
(g47
g3
NtRp230
(dp231
g50
Nsg51
g1
(g52
g53
I3702
tRp232
sg55
g1
(g52
g53
I2746
tRp233
sg57
I1
sg58
Nsbsg109
S'CDS'
p234
sg111
(dp235
S'product'
p236
(lp237
S'NADH dehydrogenase subunit 1'
p238
asS'transl_except'
p239
(lp240
S'(pos:3701..3702,aa:TERM)'
p241
asS'codon_start'
p242
(lp243
S'1'
asS'transl_table'
p244
(lp245
S'2'
asS'note'
p246
(lp247
S"TAA stop codon is completed by the addition of 3' A residues to the mRNA"
p248
asS'db_xref'
p249
(lp250
S'GI:5835653'
p251
aS'GeneID:804476'
p252
asS'translation'
p253
(lp254
S'MFFINIISLIIPILLAVAFLTLVERKVLGYMQLRKGPNIVGPYGLLQPIADAVKLFTKEPLRPLTSSMSMFILAPILALSLALTMWIPLPMPYPLINMNLGVLFMLAMSSLAVYSILWSGWASNSKYALIGALRAVAQTISYEVTLAIILLSVLLMNGSFTLSTLIITQEHMWLIFPAWPLAMMWFISTLAETNRAPFDLTEGESELVSGFNVEYAAGPFALFFLAEYANIIMMNILTTILFFGAFHNPFMPELYSINFTMKTLLLTICFLWIRASYPRFRYDQLMHLLWKNFLPLTLALCMWHVALPIITASIPPQT'
p255
asS'gene'
p256
(lp257
S'ND1'
p258
asS'protein_id'
p259
(lp260
S'NP_008471.1'
p261
assbag1
(g97
g3
NtRp262
(dp263
g100
(lp264
sg102
S''
sg103
g104
sg45
g1
(g47
g3
NtRp265
(dp266
g50
Nsg51
g1
(g52
g53
I3771
tRp267
sg55
g1
(g52
g53
I3702
tRp268
sg57
I1
sg58
Nsbsg109
S'tRNA'
p269
sg111
(dp270
S'product'
p271
(lp272
S'tRNA-Ile'
p273
assbag1
(g97
g3
NtRp274
(dp275
g100
(lp276
sg102
S''
sg103
g104
sg45
g1
(g47
g3
NtRp277
(dp278
g50
Nsg51
g1
(g52
g53
I3842
tRp279
sg55
g1
(g52
g53
I3767
tRp280
sg57
I-1
sg58
Nsbsg109
S'tRNA'
p281
sg111
(dp282
S'product'
p283
(lp284
S'tRNA-Gln'
p285
assbag1
(g97
g3
NtRp286
(dp287
g100
(lp288
sg102
S''
sg103
g104
sg45
g1
(g47
g3
NtRp289
(dp290
g50
Nsg51
g1
(g52
g53
I3913
tRp291
sg55
g1
(g52
g53
I3843
tRp292
sg57
I1
sg58
Nsbsg109
S'tRNA'
p293
sg111
(dp294
S'product'
p295
(lp296
S'tRNA-Met'
p297
assbag1
(g97
g3
NtRp298
(dp299
g100
(lp300
sg102
S''
sg103
g104
sg45
g1
(g47
g3
NtRp301
(dp302
g50
Nsg51
g1
(g52
g53
I4955
tRp303
sg55
g1
(g52
g53
I3913
tRp304
sg57
I1
sg58
Nsbsg109
S'gene'
p305
sg111
(dp306
S'db_xref'
p307
(lp308
S'GeneID:804477'
p309
asS'gene'
p310
(lp311
S'ND2'
p312
assbag1
(g97
g3
NtRp313
(dp314
g100
(lp315
sg102
S''
sg103
g104
sg45
g1
(g47
g3
NtRp316
(dp317
g50
Nsg51
g1
(g52
g53
I4955
tRp318
sg55
g1
(g52
g53
I3913
tRp319
sg57
I1
sg58
Nsbsg109
S'CDS'
p320
sg111
(dp321
S'product'
p322
(lp323
S'NADH dehydrogenase subunit 2'
p324
asS'transl_except'
p325
(lp326
S'(pos:4955,aa:TERM)'
p327
asS'codon_start'
p328
(lp329
S'1'
asS'transl_table'
p330
(lp331
S'2'
asS'note'
p332
(lp333
S"TAA stop codon is completed by the addition of 3' A residues to the mRNA"
p334
asS'db_xref'
p335
(lp336
S'GI:17737323'
p337
aS'GeneID:804477'
p338
asS'translation'
p339
(lp340
S'MKPPILIIIMATIMTGTMIVMLSSHWLLIWIGFEMNMLAIIPILMKKYNPRAMEASTKYFLTQATASMLLMMGVTINLLYSGQWVISKISNPIASIMMTTALTMKLGLSPFHFWVPEVTQGITLMSGMILLTWQKIAPMSILYQISPSINTNLLMLMALTSVLVGGWGGLNQTQLRKIMAYSSIAHMGWMAAIITYNPTMMVLNLTLYILMTLSTFMLFMLNSSTTTLSLSHMWNKFPLITSMILILMLSLGGLPPLSGFIPKWMIIQELTKNNMIIIPTLMAITALLNLYFYLRLTYSTALTMFPSTNNMKMKWQFEYTKKATLLPPLIITSTMLLPLTPMLSVLD'
p341
asS'gene'
p342
(lp343
S'ND2'
p344
asS'protein_id'
p345
(lp346
S'NP_008472.4'
p347
assbag1
(g97
g3
NtRp348
(dp349
g100
(lp350
sg102
S''
sg103
g104
sg45
g1
(g47
g3
NtRp351
(dp352
g50
Nsg51
g1
(g52
g53
I5023
tRp353
sg55
g1
(g52
g53
I4955
tRp354
sg57
I1
sg58
Nsbsg109
S'tRNA'
p355
sg111
(dp356
S'product'
p357
(lp358
S'tRNA-Trp'
p359
assbag1
(g97
g3
NtRp360
(dp361
g100
(lp362
sg102
S''
sg103
g104
sg45
g1
(g47
g3
NtRp363
(dp364
g50
Nsg51
g1
(g52
g53
I5105
tRp365
sg55
g1
(g52
g53
I5036
tRp366
sg57
I-1
sg58
Nsbsg109
S'tRNA'
p367
sg111
(dp368
S'product'
p369
(lp370
S'tRNA-Ala'
p371
assbag1
(g97
g3
NtRp372
(dp373
g100
(lp374
sg102
S''
sg103
g104
sg45
g1
(g47
g3
NtRp375
(dp376
g50
Nsg51
g1
(g52
g53
I5178
tRp377
sg55
g1
(g52
g53
I5106
tRp378
sg57
I-1
sg58
Nsbsg109
S'tRNA'
p379
sg111
(dp380
S'product'
p381
(lp382
S'tRNA-Asn'
p383
assbag1
(g97
g3
NtRp384
(dp385
g100
(lp386
sg102
S''
sg103
g104
sg45
g1
(g47
g3
NtRp387
(dp388
g50
Nsg51
g1
(g52
g53
I5215
tRp389
sg55
g1
(g52
g53
I5178
tRp390
sg57
I1
sg58
Nsbsg109
S'rep_origin'
p391
sg111
(dp392
S'note'
p393
(lp394
S'origin of L-strand replication'
p395
assbag1
(g97
g3
NtRp396
(dp397
g100
(lp398
sg102
S''
sg103
g104
sg45
g1
(g47
g3
NtRp399
(dp400
g50
Nsg51
g1
(g52
g53
I5279
tRp401
sg55
g1
(g52
g53
I5211
tRp402
sg57
I-1
sg58
Nsbsg109
S'tRNA'
p403
sg111
(dp404
S'product'
p405
(lp406
S'tRNA-Cys'
p407
assbag1
(g97
g3
NtRp408
(dp409
g100
(lp410
sg102
S''
sg103
g104
sg45
g1
(g47
g3
NtRp411
(dp412
g50
Nsg51
g1
(g52
g53
I5347
tRp413
sg55
g1
(g52
g53
I5279
tRp414
sg57
I-1
sg58
Nsbsg109
S'tRNA'
p415
sg111
(dp416
S'product'
p417
(lp418
S'tRNA-Tyr'
p419
assbag1
(g97
g3
NtRp420
(dp421
g100
(lp422
sg102
S''
sg103
g104
sg45
g1
(g47
g3
NtRp423
(dp424
g50
Nsg51
g1
(g52
g53
I6893
tRp425
sg55
g1
(g52
g53
I5348
tRp426
sg57
I1
sg58
Nsbsg109
S'gene'
p427
sg111
(dp428
S'db_xref'
p429
(lp430
S'GeneID:804478'
p431
asS'gene'
p432
(lp433
S'COX1'
p434
assbag1
(g97
g3
NtRp435
(dp436
g100
(lp437
sg102
S''
sg103
g104
sg45
g1
(g47
g3
NtRp438
(dp439
g50
Nsg51
g1
(g52
g53
I6893
tRp440
sg55
g1
(g52
g53
I5348
tRp441
sg57
I1
sg58
Nsbsg109
S'CDS'
p442
sg111
(dp443
S'product'
p444
(lp445
S'cytochrome c oxidase subunit I'
p446
asS'codon_start'
p447
(lp448
S'1'
asS'transl_table'
p449
(lp450
S'2'
asS'db_xref'
p451
(lp452
S'GI:17737324'
p453
aS'GeneID:804478'
p454
asS'translation'
p455
(lp456
S'MFINRWLFSTNHKDIGTLYLLFGAWAGMVGTALSLLIRAELGQPGTLLGDDQIYNVIVTAHAFVMIFFMVMPIMIGGFGNWLVPLMIGAPDMAFPRMNNMSFWLLPPSFLLLLASSMVEAGAGTGWTVYPPLAGNLAHAGASVDLTIFSLHLAGVSSILGAINFITTIINMKPPAMSQYQTPLFVWSVLITAVLLLLSLPVLAAGITMLLTDRNLNTTFFDPAGGGDPILYQHLFWFFGHPEVYILILPGFGMISHIVTYYSGKKEPFGYMGMVWAMMSIGFLGFIVWAHHMFTVGMDVDTRAYFTSATMIIAIPTGVKVFSWLATLHGGNIKWSPAMLWALGFIFLFTVGGLTGIVLANSSLDIVLHDTYYVVAHFHYVLSMGAVFAIMGGFAHWFPLFSGYTLNDTWAKIHFTIMFVGVNMTFFPQHFLGLSGMPRRYSDYPDAYTTWNTVSSMGSFISLTAVMLMIFMIWEAFASKREVAMVELTTTNIEWLHGCPPPYHTFEEPTYVIQK'
p457
asS'gene'
p458
(lp459
S'COX1'
p460
asS'protein_id'
p461
(lp462
S'NP_008473.4'
p463
assbag1
(g97
g3
NtRp464
(dp465
g100
(lp466
sg102
S''
sg103
g104
sg45
g1
(g47
g3
NtRp467
(dp468
g50
Nsg51
g1
(g52
g53
I6961
tRp469
sg55
g1
(g52
g53
I6890
tRp470
sg57
I-1
sg58
Nsbsg109
S'tRNA'
p471
sg111
(dp472
S'codon_recognized'
p473
(lp474
S'UCN'
p475
asS'product'
p476
(lp477
S'tRNA-Ser'
p478
assbag1
(g97
g3
NtRp479
(dp480
g100
(lp481
sg102
S''
sg103
g104
sg45
g1
(g47
g3
NtRp482
(dp483
g50
Nsg51
g1
(g52
g53
I7033
tRp484
sg55
g1
(g52
g53
I6965
tRp485
sg57
I1
sg58
Nsbsg109
S'tRNA'
p486
sg111
(dp487
S'product'
p488
(lp489
S'tRNA-Asp'
p490
assbag1
(g97
g3
NtRp491
(dp492
g100
(lp493
sg102
S''
sg103
g104
sg45
g1
(g47
g3
NtRp494
(dp495
g50
Nsg51
g1
(g52
g53
I7717
tRp496
sg55
g1
(g52
g53
I7033
tRp497
sg57
I1
sg58
Nsbsg109
S'gene'
p498
sg111
(dp499
S'db_xref'
p500
(lp501
S'GeneID:804479'
p502
asS'gene'
p503
(lp504
S'COX2'
p505
assbag1
(g97
g3
NtRp506
(dp507
g100
(lp508
sg102
S''
sg103
g104
sg45
g1
(g47
g3
NtRp509
(dp510
g50
Nsg51
g1
(g52
g53
I7717
tRp511
sg55
g1
(g52
g53
I7033
tRp512
sg57
I1
sg58
Nsbsg109
S'CDS'
p513
sg111
(dp514
S'product'
p515
(lp516
S'cytochrome c oxidase subunit II'
p517
asS'codon_start'
p518
(lp519
S'1'
asS'transl_table'
p520
(lp521
S'2'
asS'db_xref'
p522
(lp523
S'GI:17737325'
p524
aS'GeneID:804479'
p525
asS'translation'
p526
(lp527
S'MAYPFQLGLQDATSPIMEELLHFHDHTLMIVFLISSLVLYIISLMLTTKLTHTSTMDAQEVETVWTILPAIILILIALPSLRILYMMDEINNPSLTVKTMGHQWYWSYEYTDYEDLNFDSYMIPTQELKPGELRLLEVDNRVVLPMEMTIRMLISSEDVLHSWAVPSLGLKTDAIPGRLNQTTLMAMRPGLYYGQCSEICGSNHSFMPIVLEMVPLSYFETWSALMV'
p528
asS'gene'
p529
(lp530
S'COX2'
p531
asS'protein_id'
p532
(lp533
S'NP_008474.4'
p534
assbag1
(g97
g3
NtRp535
(dp536
g100
(lp537
sg102
S''
sg103
g104
sg45
g1
(g47
g3
NtRp538
(dp539
g50
Nsg51
g1
(g52
g53
I7801
tRp540
sg55
g1
(g52
g53
I7734
tRp541
sg57
I1
sg58
Nsbsg109
S'tRNA'
p542
sg111
(dp543
S'product'
p544
(lp545
S'tRNA-Lys'
p546
assbag1
(g97
g3
NtRp547
(dp548
g100
(lp549
sg102
S''
sg103
g104
sg45
g1
(g47
g3
NtRp550
(dp551
g50
Nsg51
g1
(g52
g53
I8006
tRp552
sg55
g1
(g52
g53
I7802
tRp553
sg57
I1
sg58
Nsbsg109
S'gene'
p554
sg111
(dp555
S'db_xref'
p556
(lp557
S'GeneID:804487'
p558
asS'gene'
p559
(lp560
S'ATP8'
p561
assbag1
(g97
g3
NtRp562
(dp563
g100
(lp564
sg102
S''
sg103
g104
sg45
g1
(g47
g3
NtRp565
(dp566
g50
Nsg51
g1
(g52
g53
I8006
tRp567
sg55
g1
(g52
g53
I7802
tRp568
sg57
I1
sg58
Nsbsg109
S'CDS'
p569
sg111
(dp570
S'product'
p571
(lp572
S'ATP synthase F0 subunit 8'
p573
asS'codon_start'
p574
(lp575
S'1'
asS'transl_table'
p576
(lp577
S'2'
asS'db_xref'
p578
(lp579
S'GI:5835657'
p580
aS'GeneID:804487'
p581
asS'translation'
p582
(lp583
S'MPQLDTSTWFIMIFSMFLTLFILFQLKISNHYYPENPMTKSAKIAGQHNPWENKWTKIYSLLSLPPQ'
p584
asS'gene'
p585
(lp586
S'ATP8'
p587
asS'protein_id'
p588
(lp589
S'NP_008475.1'
p590
assbag1
(g97
g3
NtRp591
(dp592
g100
(lp593
sg102
S''
sg103
g104
sg45
g1
(g47
g3
NtRp594
(dp595
g50
Nsg51
g1
(g52
g53
I8644
tRp596
sg55
g1
(g52
g53
I7963
tRp597
sg57
I1
sg58
Nsbsg109
S'gene'
p598
sg111
(dp599
S'db_xref'
p600
(lp601
S'GeneID:804488'
p602
asS'gene'
p603
(lp604
S'ATP6'
p605
assbag1
(g97
g3
NtRp606
(dp607
g100
(lp608
sg102
S''
sg103
g104
sg45
g1
(g47
g3
NtRp609
(dp610
g50
Nsg51
g1
(g52
g53
I8644
tRp611
sg55
g1
(g52
g53
I7963
tRp612
sg57
I1
sg58
Nsbsg109
S'CDS'
p613
sg111
(dp614
S'product'
p615
(lp616
S'ATP synthase F0 subunit 6'
p617
asS'codon_start'
p618
(lp619
S'1'
asS'transl_table'
p620
(lp621
S'2'
asS'db_xref'
p622
(lp623
S'GI:5835658'
p624
aS'GeneID:804488'
p625
asS'translation'
p626
(lp627
S'MNENLFASFAAPSMMGLPIVVLIVMFPSILFPTPSRLINNRLISIQQWLIQLTSKQMLAIHNQKGRTWALMLMSLILFIGSTNLLGLLPHSFTPTTQLSMNLGMAIPLWAGTVITGFRYKTKASLAHFLPQGTPLPLIPMLVVIETISLFIQPMALAVRLTANITAGHLLIHLIGGATLALINISATTAFITFIILILLTILEFAVALIQAYVFTLLVSLYLHDNT'
p628
asS'gene'
p629
(lp630
S'ATP6'
p631
asS'protein_id'
p632
(lp633
S'NP_008476.1'
p634
assbag1
(g97
g3
NtRp635
(dp636
g100
(lp637
sg102
S''
sg103
g104
sg45
g1
(g47
g3
NtRp638
(dp639
g50
Nsg51
g1
(g52
g53
I9427
tRp640
sg55
g1
(g52
g53
I8643
tRp641
sg57
I1
sg58
Nsbsg109
S'gene'
p642
sg111
(dp643
S'db_xref'
p644
(lp645
S'GeneID:804480'
p646
asS'gene'
p647
(lp648
S'COX3'
p649
assbag1
(g97
g3
NtRp650
(dp651
g100
(lp652
sg102
S''
sg103
g104
sg45
g1
(g47
g3
NtRp653
(dp654
g50
Nsg51
g1
(g52
g53
I9427
tRp655
sg55
g1
(g52
g53
I8643
tRp656
sg57
I1
sg58
Nsbsg109
S'CDS'
p657
sg111
(dp658
S'product'
p659
(lp660
S'cytochrome c oxidase subunit III'
p661
asS'transl_except'
p662
(lp663
S'(pos:9427,aa:TERM)'
p664
asS'codon_start'
p665
(lp666
S'1'
asS'transl_table'
p667
(lp668
S'2'
asS'note'
p669
(lp670
S"TAA stop codon is completed by the addition of 3' A residues to the mRNA"
p671
asS'db_xref'
p672
(lp673
S'GI:17737326'
p674
aS'GeneID:804480'
p675
asS'translation'
p676
(lp677
S'MTHQTHAYHMVNPSPWPLTGALSALLMTSGLIMWFHYNSMALLTLGFTTNLLTMCQWWRDVIREGTFQGHHTPIVQKGLRYGMVLFIVSEVFFFAGFFWAFYHSSLAPTPELGGCWPPTGIIPLNPLEVPLLNTSVLLASGVSITWAHHSLMEGNRKHMLQALFITISLGVYFTLLQASEYYETSFTISDGVYGSTFFMATGFHGLHVIIGSTFLIVCFLRQLYYHFTSNHHFGFEAAAWYWHFVDVVWLFLYVSIYWWGS'
p678
asS'gene'
p679
(lp680
S'COX3'
p681
asS'protein_id'
p682
(lp683
S'NP_008477.4'
p684
assbag1
(g97
g3
NtRp685
(dp686
g100
(lp687
sg102
S''
sg103
g104
sg45
g1
(g47
g3
NtRp688
(dp689
g50
Nsg51
g1
(g52
g53
I9495
tRp690
sg55
g1
(g52
g53
I9427
tRp691
sg57
I1
sg58
Nsbsg109
S'tRNA'
p692
sg111
(dp693
S'product'
p694
(lp695
S'tRNA-Gly'
p696
assbag1
(g97
g3
NtRp697
(dp698
g100
(lp699
sg102
S''
sg103
g104
sg45
g1
(g47
g3
NtRp700
(dp701
g50
Nsg51
g1
(g52
g53
I9841
tRp702
sg55
g1
(g52
g53
I9495
tRp703
sg57
I1
sg58
Nsbsg109
S'gene'
p704
sg111
(dp705
S'db_xref'
p706
(lp707
S'GeneID:804481'
p708
asS'gene'
p709
(lp710
S'ND3'
p711
assbag1
(g97
g3
NtRp712
(dp713
g100
(lp714
sg102
S''
sg103
g104
sg45
g1
(g47
g3
NtRp715
(dp716
g50
Nsg51
g1
(g52
g53
I9841
tRp717
sg55
g1
(g52
g53
I9495
tRp718
sg57
I1
sg58
Nsbsg109
S'CDS'
p719
sg111
(dp720
S'product'
p721
(lp722
S'NADH dehydrogenase subunit 3'
p723
asS'transl_except'
p724
(lp725
S'(pos:9841,aa:TERM)'
p726
asS'codon_start'
p727
(lp728
S'1'
asS'transl_table'
p729
(lp730
S'2'
asS'note'
p731
(lp732
S"TAA stop codon is completed by the addition of 3' A residues to the mRNA"
p733
asS'db_xref'
p734
(lp735
S'GI:17737327'
p736
aS'GeneID:804481'
p737
asS'translation'
p738
(lp739
S'MNVMLTLMTNVTLASLLVLIAFWLPQLNIYTDKTSPYECGFDPMGSARLPFSMKFFLVAITFLLFDLEIALLLPLPWASQTNKLTTMLIMALLLISLLAASLAYEWTEKGLEWTE'
p740
asS'gene'
p741
(lp742
S'ND3'
p743
asS'protein_id'
p744
(lp745
S'NP_008478.4'
p746
assbag1
(g97
g3
NtRp747
(dp748
g100
(lp749
sg102
S''
sg103
g104
sg45
g1
(g47
g3
NtRp750
(dp751
g50
Nsg51
g1
(g52
g53
I9910
tRp752
sg55
g1
(g52
g53
I9841
tRp753
sg57
I1
sg58
Nsbsg109
S'tRNA'
p754
sg111
(dp755
S'product'
p756
(lp757
S'tRNA-Arg'
p758
assbag1
(g97
g3
NtRp759
(dp760
g100
(lp761
sg102
S''
sg103
g104
sg45
g1
(g47
g3
NtRp762
(dp763
g50
Nsg51
g1
(g52
g53
I10207
tRp764
sg55
g1
(g52
g53
I9910
tRp765
sg57
I1
sg58
Nsbsg109
S'gene'
p766
sg111
(dp767
S'db_xref'
p768
(lp769
S'GeneID:804482'
p770
asS'gene'
p771
(lp772
S'ND4L'
p773
assbag1
(g97
g3
NtRp774
(dp775
g100
(lp776
sg102
S''
sg103
g104
sg45
g1
(g47
g3
NtRp777
(dp778
g50
Nsg51
g1
(g52
g53
I10207
tRp779
sg55
g1
(g52
g53
I9910
tRp780
sg57
I1
sg58
Nsbsg109
S'CDS'
p781
sg111
(dp782
S'product'
p783
(lp784
S'NADH dehydrogenase subunit 4L'
p785
asS'codon_start'
p786
(lp787
S'1'
asS'transl_table'
p788
(lp789
S'2'
asS'db_xref'
p790
(lp791
S'GI:5835661'
p792
aS'GeneID:804482'
p793
asS'translation'
p794
(lp795
S'MSMVYINIFLAFILSLMGMLVYRSHLMSSLLCLEGMMLSLFVMMSVTILNNHLTLASMMPIVLLVFAACEAALGLSLLVMVSNTYGTDYVQNLNLLQC'
p796
asS'gene'
p797
(lp798
S'ND4L'
p799
asS'protein_id'
p800
(lp801
S'NP_008479.1'
p802
assbag1
(g97
g3
NtRp803
(dp804
g100
(lp805
sg102
S''
sg103
g104
sg45
g1
(g47
g3
NtRp806
(dp807
g50
Nsg51
g1
(g52
g53
I11578
tRp808
sg55
g1
(g52
g53
I10200
tRp809
sg57
I1
sg58
Nsbsg109
S'gene'
p810
sg111
(dp811
S'db_xref'
p812
(lp813
S'GeneID:804483'
p814
asS'gene'
p815
(lp816
S'ND4'
p817
assbag1
(g97
g3
NtRp818
(dp819
g100
(lp820
sg102
S''
sg103
g104
sg45
g1
(g47
g3
NtRp821
(dp822
g50
Nsg51
g1
(g52
g53
I11578
tRp823
sg55
g1
(g52
g53
I10200
tRp824
sg57
I1
sg58
Nsbsg109
S'CDS'
p825
sg111
(dp826
S'product'
p827
(lp828
S'NADH dehydrogenase subunit 4'
p829
asS'transl_except'
p830
(lp831
S'(pos:11578,aa:TERM)'
p832
asS'codon_start'
p833
(lp834
S'1'
asS'transl_table'
p835
(lp836
S'2'
asS'note'
p837
(lp838
S"TAA stop codon is completed by the addition of 3' A residues to the mRNA"
p839
asS'db_xref'
p840
(lp841
S'GI:5835662'
p842
aS'GeneID:804483'
p843
asS'translation'
p844
(lp845
S'MLKIIIPTIMLIPLTWMSKPNMIWINTTTYGLLISLISLFYLNQPNDNTLNSSLMFFSDSLSAPLLALTTWLLPLMLMASQHHLSKEPLTRKKLYISMLILLQLFLIMTFTASELIFFYILFEATLIPTLIIITRWGNQTERLNAGLYFLFYTLMGSLPLLVALLYIHNFMGSLNFLMIQYWIQPLPNSWSNIFLWLACMMAFMVKMPLYGLHLWLPKAHVEAPIAGSMVLAAVLLKLGGYGMMRITTLLNPLTNFMAYPFMMLSLWGMIMTSSICLRQTDLKSLIAYSSVSHMALVIVAVLIQTPWSYMGATALMIAHGLTSSMLFCLANSNYERIHSRTMILARGLQTLLPLMAAWWLLASLTNLALPPTINLIGELFVVMSSFSWSNITIILMGINIIITALYSLYMLITTQRGKYSHHIKNIKPSFTRENALMTLHLLPLLLLSLNPKIILGPIY'
p846
asS'gene'
p847
(lp848
S'ND4'
p849
asS'protein_id'
p850
(lp851
S'NP_008480.1'
p852
assbag1
(g97
g3
NtRp853
(dp854
g100
(lp855
sg102
S''
sg103
g104
sg45
g1
(g47
g3
NtRp856
(dp857
g50
Nsg51
g1
(g52
g53
I11647
tRp858
sg55
g1
(g52
g53
I11578
tRp859
sg57
I1
sg58
Nsbsg109
S'tRNA'
p860
sg111
(dp861
S'product'
p862
(lp863
S'tRNA-His'
p864
assbag1
(g97
g3
NtRp865
(dp866
g100
(lp867
sg102
S''
sg103
g104
sg45
g1
(g47
g3
NtRp868
(dp869
g50
Nsg51
g1
(g52
g53
I11707
tRp870
sg55
g1
(g52
g53
I11647
tRp871
sg57
I1
sg58
Nsbsg109
S'tRNA'
p872
sg111
(dp873
S'codon_recognized'
p874
(lp875
S'AGY'
p876
asS'product'
p877
(lp878
S'tRNA-Ser'
p879
assbag1
(g97
g3
NtRp880
(dp881
g100
(lp882
sg102
S''
sg103
g104
sg45
g1
(g47
g3
NtRp883
(dp884
g50
Nsg51
g1
(g52
g53
I11777
tRp885
sg55
g1
(g52
g53
I11707
tRp886
sg57
I1
sg58
Nsbsg109
S'tRNA'
p887
sg111
(dp888
S'codon_recognized'
p889
(lp890
S'CUN'
p891
asS'product'
p892
(lp893
S'tRNA-Leu'
p894
assbag1
(g97
g3
NtRp895
(dp896
g100
(lp897
sg102
S''
sg103
g104
sg45
g1
(g47
g3
NtRp898
(dp899
g50
Nsg51
g1
(g52
g53
I13598
tRp900
sg55
g1
(g52
g53
I11777
tRp901
sg57
I1
sg58
Nsbsg109
S'gene'
p902
sg111
(dp903
S'db_xref'
p904
(lp905
S'GeneID:804484'
p906
asS'gene'
p907
(lp908
S'ND5'
p909
assbag1
(g97
g3
NtRp910
(dp911
g100
(lp912
sg102
S''
sg103
g104
sg45
g1
(g47
g3
NtRp913
(dp914
g50
Nsg51
g1
(g52
g53
I13598
tRp915
sg55
g1
(g52
g53
I11777
tRp916
sg57
I1
sg58
Nsbsg109
S'CDS'
p917
sg111
(dp918
S'product'
p919
(lp920
S'NADH dehydrogenase subunit 5'
p921
asS'codon_start'
p922
(lp923
S'1'
asS'transl_table'
p924
(lp925
S'2'
asS'db_xref'
p926
(lp927
S'GI:17737328'
p928
aS'GeneID:804484'
p929
asS'translation'
p930
(lp931
S'MNMFSSCMITALVILTLPIIMSSTKLYKNKLYPYYVKTATSYAFMISMIPTMMFIYSGQETIISNWHWMTIQTMKLSMSFKLDYFSMIFVPVALFVTWSIMEFSMWYMHSDPYINRFFKYLLLFLITMMVLVTANNMFQLFIGWEGVGIMSFLLIGWWYGRTDANTAALQAVLYNRIGDVGFIMTMAWFLLNLNTWDLQQIFITTNDNFNLPLLGLLLAATGKSAQFGLHPWLPSAMEGPTPVSALLHSSTMVVAGVFLLIRFHPLMEHNQTIQTLTLCLGAITTLFTAICALTQNDIKKIVAFSTSSQLGLMMVTIGINQPYLAFLHICTHAFFKAMLFMCSGSVIHSLNDEQDIRKMGGLFKVLPFTTTSLIIGSLALTGMPFLTGFYSKDLIIESANTSNTNAWALLITLVATSLTAAYSTRIMFFALLGQPRFSPMILINENNPLLINSIKRLLIGSVFAGYIISHSITPTTIPQMTMPHYLKMTALAVTTLGFILALELNLTSQGLKFNYPSNYFKFSSLLGYYPTIMHRLTPKTSLTISQKSASMLLDSIWLENILPKSISYFQMKSSTLISNQKGLIKLYFLSFMLTMILSLLILNYHG'
p932
asS'gene'
p933
(lp934
S'ND5'
p935
asS'protein_id'
p936
(lp937
S'NP_008481.4'
p938
assbag1
(g97
g3
NtRp939
(dp940
g100
(lp941
sg102
S''
sg103
g104
sg45
g1
(g47
g3
NtRp942
(dp943
g50
Nsg51
g1
(g52
g53
I14109
tRp944
sg55
g1
(g52
g53
I13581
tRp945
sg57
I-1
sg58
Nsbsg109
S'gene'
p946
sg111
(dp947
S'db_xref'
p948
(lp949
S'GeneID:804485'
p950
asS'gene'
p951
(lp952
S'ND6'
p953
assbag1
(g97
g3
NtRp954
(dp955
g100
(lp956
sg102
S''
sg103
g104
sg45
g1
(g47
g3
NtRp957
(dp958
g50
Nsg51
g1
(g52
g53
I14109
tRp959
sg55
g1
(g52
g53
I13581
tRp960
sg57
I-1
sg58
Nsbsg109
S'CDS'
p961
sg111
(dp962
S'product'
p963
(lp964
S'NADH dehydrogenase subunit 6'
p965
asS'codon_start'
p966
(lp967
S'1'
asS'transl_table'
p968
(lp969
S'2'
asS'db_xref'
p970
(lp971
S'GI:17737329'
p972
aS'GeneID:804485'
p973
asS'translation'
p974
(lp975
S'MMTYIVFILSIVFVMSFVGFATKPSPIYGGLVLIISGGIGCAIVLNFGGSFLGLMVFLIYLGGMLVVFGYTTAMATEQYPEVWVSNKAVLAAFITGLLSELLTACYILKDDEVEVVLKFNGMGDWVIYDTGDSGFFSEEAMGIAALYSYGTWLVVVTGWSLLIGVLVIMEVTRGN'
p976
asS'gene'
p977
(lp978
S'ND6'
p979
asS'protein_id'
p980
(lp981
S'NP_008482.4'
p982
assbag1
(g97
g3
NtRp983
(dp984
g100
(lp985
sg102
S''
sg103
g104
sg45
g1
(g47
g3
NtRp986
(dp987
g50
Nsg51
g1
(g52
g53
I14178
tRp988
sg55
g1
(g52
g53
I14109
tRp989
sg57
I-1
sg58
Nsbsg109
S'tRNA'
p990
sg111
(dp991
S'product'
p992
(lp993
S'tRNA-Glu'
p994
assbag1
(g97
g3
NtRp995
(dp996
g100
(lp997
sg102
S''
sg103
g104
sg45
g1
(g47
g3
NtRp998
(dp999
g50
Nsg51
g1
(g52
g53
I15322
tRp1000
sg55
g1
(g52
g53
I14182
tRp1001
sg57
I1
sg58
Nsbsg109
S'gene'
p1002
sg111
(dp1003
S'db_xref'
p1004
(lp1005
S'GeneID:804486'
p1006
asS'gene'
p1007
(lp1008
S'CYTB'
p1009
asS'gene_synonym'
p1010
(lp1011
S'cytB'
p1012
assbag1
(g97
g3
NtRp1013
(dp1014
g100
(lp1015
sg102
S''
sg103
g104
sg45
g1
(g47
g3
NtRp1016
(dp1017
g50
Nsg51
g1
(g52
g53
I15322
tRp1018
sg55
g1
(g52
g53
I14182
tRp1019
sg57
I1
sg58
Nsbsg109
S'CDS'
p1020
sg111
(dp1021
S'product'
p1022
(lp1023
S'cytochrome b'
p1024
asS'codon_start'
p1025
(lp1026
S'1'
asS'gene_synonym'
p1027
(lp1028
S'cytB'
p1029
asS'transl_table'
p1030
(lp1031
S'2'
asS'db_xref'
p1032
(lp1033
S'GI:5835665'
p1034
aS'GeneID:804486'
p1035
asS'translation'
p1036
(lp1037
S'MTNIRKTHPLAKIVNNSFIDLPAPSNISAWWNFGSLLGVCLILQILTGLFLAMHYTSDTATAFSSVTHICRDVNYGWIIRYMHANGASMFFICLFLHVGRGLYYGSYVFMETWNIGIVLLFATMATAFMGYVLPWGQMSFWGATVITNLLSAIPYIGTDLVEWIWGGFSVDKATLTRFFAFHFILPFIIAALAMVHLLFLHETGSNNPSGITSDSDKIPFHPYYTIKDILGALLLLLILMSLVLFSPDLLGDPDNYTPANPLNTPPHIKPEWYFLFAYAILRSIPNKLGGVLALVFSILILAFIPLLHTSKQRSMMFRPLSQCLFWLLVADLLTLTWIGGQPVEHPFIIIGQVASILYFTILLILMPTVSVIENNLLKW'
p1038
asS'gene'
p1039
(lp1040
S'CYTB'
p1041
asS'protein_id'
p1042
(lp1043
S'NP_008483.1'
p1044
assbag1
(g97
g3
NtRp1045
(dp1046
g100
(lp1047
sg102
S''
sg103
g104
sg45
g1
(g47
g3
NtRp1048
(dp1049
g50
Nsg51
g1
(g52
g53
I15392
tRp1050
sg55
g1
(g52
g53
I15322
tRp1051
sg57
I1
sg58
Nsbsg109
S'tRNA'
p1052
sg111
(dp1053
S'product'
p1054
(lp1055
S'tRNA-Thr'
p1056
assbag1
(g97
g3
NtRp1057
(dp1058
g100
(lp1059
sg102
S''
sg103
g104
sg45
g1
(g47
g3
NtRp1060
(dp1061
g50
Nsg51
g1
(g52
g53
I15457
tRp1062
sg55
g1
(g52
g53
I15391
tRp1063
sg57
I-1
sg58
Nsbsg109
S'tRNA'
p1064
sg111
(dp1065
S'product'
p1066
(lp1067
S'tRNA-Pro'
p1068
assbag1
(g97
g3
NtRp1069
(dp1070
g100
(lp1071
sg102
S''
sg103
g104
sg45
g1
(g47
g3
NtRp1072
(dp1073
g50
Nsg51
g1
(g52
g53
I16727
tRp1074
sg55
g1
(g52
g53
I15457
tRp1075
sg57
I1
sg58
Nsbsg109
S'D-loop'
p1076
sg111
(dp1077
S'note'
p1078
(lp1079
S'control region'
p1080
assbasS'_seq'
p1081
g1
(cBio.Seq
Seq
p1082
g3
NtRp1083
(dp1084
S'alphabet'
p1085
g1
(cBio.Alphabet.IUPAC
IUPACAmbiguousDNA
p1086
g3
NtRp1087
sS'_data'
p1088
S'GTTAATGTAGCTTAATTAATAAAGCAAGGCACTGAAAATGCCAAGATGAGTCGCACGACTCCATAAACATAAAGGTTTGGTCCTAGCCTTCCTATTAGTTTTTAGTAGACTTACACATGCAAGCCTCCACGCCCCAGTGAGAATGCCCTTAAAATCACCAGTGATCTAAAGGAGCAGGTATCAAGCACACTCTTAAGTAGCTCATAACACCTTGCTAAGCCACACCCCCACGGGATACAGCAGTGATAAAAATTAAGCCATAAACGAAAGTTTGACTAAGCCATACTAAATAGGGTTGGTAAATTTCGTGCCAGCCACCGCGGTCATACGATTAACCCAAACTAATAGGCCTACGGCGTAAAGCGTGTTCAAGATACTTTTACACTAAAGTTAAAACTTAACTAAGCCGTAAAAAGCTACAGTTATCATAAAATAAACCACGAAAGTGACTTTATAATAATCTGACTACACGATAGCTAAGACCCAAACTGGGATTAGATACCCCACTATGCTTAGCCCTAAACATAGATAATTTTACAACAAAATAATTCGCCAGAGGACTACTAGCAATAGCTTAAAACTCAAAGGACTTGGCGGTGCTTTATATCCCTCTAGAGGAGCCTGTTCTATAATCGATAAACCCCGATAAACCTCACCACCTTTCGCTAATTCAGTCTATATACCGCCATCTTCAGCAAACCCTCAAAAGGTAGAACAGTAAGCACAATCATTTTACATAAAAAAGTTAGGTCAAGGTGTAACTTATGAGGTGGGAAGAAATGGGCTACATTTTCTACCCAAGAACATTTCACGAATGTTTTTATGAAATTAAAAACTGAAGGAGGATTTAGTAGTAAATTAAGAATAGAGAGCTTAATTGAATAGGGCCATGAAGCACGCACACACCGCCCGTCACCCTCCTCAAGTAATAAGACACAACCATAACCATATTAACTTAACTAAAACACAAGAGGAGACAAGTCGTAACAAGGTAAGCATACCGGAAGGTGTGCTTGGATTAATCAAAGTGTAGCTTAACTAAAGCGTCTGGCCTACACCCAGAAGATTTCATTACTTATGGCCACTTTGAACAAAAGCTAGCCCAACTAACCCCAAACTTAAGTATTACAGACACATAAAATAAAACATTTAGTTAAACAATAAAAGTATAGGAGATAGAAATTTTAATTGGAGCGATAGAGATAGTACCGTAAGGGAATGATGAAAGACATCTTAACAGTATTAAACAGCAAAGATTACCCCTTCTACCTTTTGCATAATGAACTAGCCAGAAACAACTTAACAAAGAGAACTTAAGCTAAGCTCCCCGAAACCAGACGAGCTACCCATAAACAATCTAAAAGGATCAACTCATCTATGTAGCAAAATAGTGAGAAGATTTGTGGGTAGAGGTGAAAAGCCTAACGAGCCTGGTGATAGCTGGTTACCCACAGACAGAATTTTAGTTCAACTTTAAATTTACCTAAAAAAAATAAAATTTTAATGTAAATTTAAAATATAGTCTAAGAAGGTACAGCTTCTTAGAATCAGGATACAACCTTTATTAGAGAGTATATACTAATATCACCATAGTTGGCTTAAAAGCAGCCACCAATTGAGAAAGCGTTCCAGCTCAACAAACAATATAACTTAATCCCAACCATACTACATCAACTCCTAATTATACCCCCTGGGTCATTCTATTTAAGTATAGAAGCAATAATGCTAGTATGAGTAACAAGAACCATTTTCTCCCCGCATAAGCTTATATCAGGAACGGATAGACCACTGATAGTTAACAATCTGATAATATCAACCCAAAAATGAAATACTTATCCACCCCATTGTTAACCCAACACAGGTATGCATTCAAGGAAAGATTAAAAGGAGTAAAAGGAACTCGGCAAACACAAACCCCGCCTGTTTACCAAAAACATCACCTCCAGCATTTCTAGTATTGGAGGCACTGCCTGCCCGGTGACACTTGTTTAACGGCCGCGGTATCCTGACCGTGCAAAGGTAGCATAATCATTTGTTCTCTAAATAGGGACTTGTATGAATGGCCACACGAGGGTTTAACTGTCTCTTACTCCCAATCAGTGAAATTGACCTTCCCGTGAAGAGGCGGGAATACCACAATAAGACGAGAAGACCCTATGGAGCTTTAATTAACTAACCCAAACTTATGGATACTAGATACCTACAAGGCATAACATAACACCATTATTATGAGTTAGCAATTTAGGTTGGGGTGACCTCGGAATATAAAAAAACTCCCGAGTGATTAAAATTTAGACCCACAAGTCAAAATACAACATCACTTATTGATCCAATAATTTTTGATCAACGGAACAAGTTACCCTAGGGATAACAGCGCAATCCTATTCAAGAGTCCATATCGACAATAGGGTTTACGACCTCGATGTTGGATCAGGACATCCTAATGGTGCAGCAGCTATTAAGGGTTCGTTTGTTCAACGATTAAAGTCCTACGTGATCTGAGTTCAGACCGGAGTAATCCAGGTCGGTTTCTATCTATTATACAACCTCCCCCAGTACGAAAGGACAAGGGATGTAAGGCCTACCTCACAGAGGCGCCTTAAAACTAATAGATGAAGTCAACTCAATCTAACCAGTTTATCTCCTCATAAGCCCGAGAAAAGGGGCTTTGTTAGGGTGCAGGGCCCGGTAACTGCGTAAAACTTAAACCTTTACTATCAGAGGTTCAATTCCTCTCCCTAACAAAATGTTCTTTATCAACATTATCTCTCTTATTATCCCAATCCTTCTTGCCGTAGCCTTCCTCACCCTCGTTGAACGAAAAGTCTTAGGCTATATACAACTTCGAAAAGGACCTAATATTGTAGGCCCCTACGGCCTCCTTCAACCAATCGCAGACGCAGTAAAACTCTTCACAAAAGAACCTCTACGACCACTTACATCCTCTATATCAATATTCATCCTAGCCCCCATTCTAGCTCTATCACTAGCCCTAACTATGTGAATTCCCCTCCCAATACCCTACCCACTCATTAATATAAACTTGGGAGTCCTATTCATACTAGCAATATCAAGCCTCGCCGTGTACTCCATCCTCTGATCAGGATGAGCCTCAAACTCCAAATACGCCCTAATCGGAGCCCTTCGAGCAGTAGCTCAAACAATCTCATATGAAGTAACGCTAGCAATTATTCTTCTATCAGTCCTCCTAATAAACGGGTCATTTACACTATCCACGCTAATTATTACCCAAGAACATATATGATTAATCTTTCCGGCCTGACCCCTAGCCATGATATGATTCATCTCTACCCTAGCAGAAACTAATCGAGCCCCCTTCGACTTAACTGAAGGAGAATCCGAACTAGTCTCTGGATTTAACGTAGAGTATGCAGCAGGTCCTTTCGCCCTATTCTTTCTAGCAGAGTACGCAAATATTATTATAATAAACATCCTCACAACAATTCTGTTCTTCGGCGCATTCCACAACCCATTCATACCAGAACTCTACTCTATTAACTTCACTATAAAAACCCTCTTATTAACCATCTGCTTCCTATGAATTCGAGCATCATACCCTCGATTCCGCTACGATCAGTTAATACACTTATTATGAAAAAATTTTCTACCCTTAACTTTAGCCCTATGCATATGACATGTTGCCTTACCCATTATCACCGCAAGTATCCCACCCCAAACATAAGAAATATGTCTGATAAAAGAGTTACTTTGATAGAGTAAATAATAGAGGTTTAAATCCTCTTATTTCTAGAATAATAGGCTTCGAACCTAATCTTAAGAATTCAAAGATCTTCGTGCTACCAAACTTACACTATATTCTACAGTAAGGTCAGCTAAATTAAGCTATCGGGCCCATACCCCGAAAATGTTGGTTTATACCCTTCCCGTACTAATAAAACCCCCTATTCTCATTATCATCATAGCAACTATCATGACAGGAACCATAATCGTCATACTAAGCTCGCACTGATTACTGATCTGAATTGGATTCGAAATAAACATGCTAGCCATCATCCCTATTCTCATAAAAAAGTACAATCCACGAGCCATAGAGGCCTCTACAAAATATTTTCTTACACAAGCTACAGCCTCAATATTACTAATAATAGGAGTCACTATCAACCTCCTTTACTCCGGCCAATGGGTAATCTCAAAAATCTCAAACCCCATCGCATCCATCATGATAACCACTGCCCTAACAATAAAACTAGGCCTATCTCCATTCCACTTCTGAGTTCCCGAAGTAACACAGGGAATTACGCTCATATCAGGAATAATCCTACTAACATGACAAAAAATCGCACCTATATCCATCCTATATCAAATCTCTCCATCAATTAACACTAACCTTCTTATACTAATAGCCCTTACATCCGTTCTAGTAGGAGGCTGAGGCGGACTAAATCAAACTCAACTACGAAAAATCATAGCATACTCCTCCATTGCCCACATAGGCTGAATAGCCGCTATCATTACTTATAACCCTACAATAATAGTTCTAAACTTAACTTTATATATTCTAATAACACTATCTACCTTCATACTATTTATATTAAACTCATCCACCACGACCCTATCTTTATCCCACATATGAAACAAATTTCCCCTAATCACTTCCATAATCTTAATCTTAATACTATCCCTAGGAGGACTACCCCCATTATCTGGCTTCATCCCCAAATGAATAATTATTCAAGAATTAACGAAAAATAACATAATTATTATTCCAACACTAATGGCTATCACCGCTCTACTTAACTTATATTTCTACCTGCGACTCACATATAGCACCGCACTTACCATATTTCCATCCACAAACAACATAAAAATAAAATGACAGTTCGAATACACAAAAAAGGCAACCCTATTACCCCCCTTAATTATTACCTCAACTATACTACTCCCACTAACACCTATATTATCAGTCTTGGACTAGGAGTTTAGGTTAGACCAGACCAAGAGCCTTCAAAGCTCTAAGCAAGTGCTACACACTTAACCCCTGATCAAATCACCTCTAAGGGCTGCAAGAATCTATCTTACATCAATTGAATGCAAATCAAACACTTTAATTAAGCTAAGCCCTCCCTAGATTGGTGAGCTTCTACCTCACGAAATTTTAGTTAACAGCTAAATACCCTAGTAACTGGCTTCAATCTACCTTCTCCCGCCGCGTAGAAAAAAAAGGCGGGAGAAGCCCCGGCGGCGTCTAGGCTGCTTCTTTGAATTTGCAATTCAATATGAAAATTCACCACGGAGCTTGGCAAAAAGAGGACTTAAACCCCTATCTTTAGATTTACAGTCTAATGCTTTTATCAGCCATTTTACCTATGTTCATTAACCGATGACTGTTCTCCACTAATCACAAGGATATTGGTACTTTATACTTACTATTTGGAGCATGAGCCGGTATAGTAGGCACTGCTTTGAGCCTCCTCATCCGAGCCGAACTAGGTCAGCCCGGTACTTTACTAGGTGACGATCAAATTTATAATGTCATCGTAACCGCCCATGCTTTCGTAATAATCTTCTTCATAGTCATGCCCATCATAATTGGGGGCTTTGGAAACTGACTAGTGCCGTTAATAATTGGTGCTCCGGACATGGCATTCCCCCGAATAAATAACATGAGCTTCTGACTCCTTCCTCCATCCTTTCTTCTACTATTAGCATCTTCTATGGTAGAAGCAGGTGCAGGAACGGGATGAACCGTATACCCCCCACTGGCTGGCAATCTGGCCCATGCAGGAGCATCCGTTGACCTTACAATTTTCTCCTTACACTTAGCCGGAGTCTCTTCTATTTTAGGGGCAATTAATTTCATCACTACTATTATCAACATAAAACCCCCTGCAATATCCCAGTATCAAACTCCCCTGTTTGTATGATCAGTACTAATTACAGCAGTTCTACTCTTACTATCCCTGCCTGTACTGGCTGCTGGAATTACAATACTTTTAACAGACCGGAATCTTAATACAACATTTTTTGATCCCGCTGGAGGAGGAGACCCTATCCTATATCAACACCTATTCTGATTCTTCGGACATCCTGAAGTTTACATTCTTATCCTGCCCGGATTCGGAATAATTTCTCACATTGTCACTTACTACTCAGGGAAAAAAGAGCCTTTCGGTTATATAGGAATAGTATGAGCAATAATATCTATTGGGTTTTTAGGCTTTATCGTATGAGCTCACCATATGTTTACCGTAGGAATAGATGTAGACACACGAGCGTACTTTACGTCCGCCACTATAATTATCGCTATTCCAACGGGAGTAAAAGTATTTAGTTGACTGGCAACACTTCATGGAGGCAATATTAAATGATCTCCAGCTATGCTATGAGCTTTAGGGTTTATTTTCTTATTTACAGTAGGCGGGTTAACAGGTATTGTCCTAGCTAATTCGTCCTTAGACATCGTTCTTCATGATACATATTATGTTGTGGCTCATTTTCACTATGTGCTTTCAATAGGAGCAGTTTTTGCCATTATGGGAGGATTTGCCCACTGATTCCCTTTATTCTCAGGTTATACTCTTAACGATACTTGAGCAAAGATTCACTTTACAATTATGTTTGTGGGAGTAAATATAACTTTCTTCCCTCAACATTTCCTAGGTTTATCTGGAATACCTCGTCGATACTCTGACTACCCAGATGCATATACTACCTGAAATACCGTCTCCTCTATAGGATCGTTTATCTCGCTTACAGCGGTGATGCTTATAATTTTTATGATCTGGGAAGCCTTTGCATCCAAACGAGAAGTTGCTATAGTAGAACTTACTACAACTAACATTGAGTGACTACATGGATGTCCCCCTCCATACCACACGTTCGAAGAACCTACATATGTGATCCAAAAATAAGAAAGGAAGGAATCGAACCCCCTAAAATTGGTTTCAAGCCAATGTCATAACCATTATGTCTTTCTCAATCAGGAGGTATTAGTAAAACATTACATGACTTTGTCAAAGTTAAATTATAGGTGAAACCCCTATATATCTCTATGGCGTACCCATTTCAACTCGGATTACAGGACGCAACCTCCCCTATTATAGAGGAGCTACTTCATTTTCATGACCATACACTAATAATTGTATTCTTAATCAGTTCTTTAGTTCTCTATATCATTTCACTAATATTGACTACAAAATTAACCCATACAAGCACAATAGACGCACAAGAAGTGGAAACAGTATGAACCATTCTACCCGCCATTATCCTAATCCTAATCGCTCTACCTTCCCTCCGAATCCTTTATATAATGGACGAAATTAATAACCCCTCTTTAACCGTGAAAACAATAGGCCACCAATGATACTGAAGCTATGAATATACTGACTATGAAGACTTAAACTTTGACTCCTACATAATCCCAACACAAGAATTAAAGCCAGGAGAACTCCGACTATTAGAAGTAGACAACCGAGTTGTCCTCCCAATAGAAATAACCATCCGAATACTTATCTCTTCAGAAGACGTTTTGCATTCATGAGCCGTTCCATCACTAGGTCTAAAAACTGACGCTATTCCAGGACGACTAAACCAAACCACCCTTATAGCCATACGACCAGGACTGTACTATGGCCAGTGCTCTGAAATCTGCGGATCTAACCACAGCTTTATACCCATTGTTCTTGAAATAGTCCCCCTATCTTACTTTGAGACCTGATCTGCCTTAATAGTATAACCTAGACTAGATCTACTCATTAAGAAGCTATAAAGCATTAACCTTTTAAGTTAAAGACTGGGAGTTTTAACCTCTCCTTAATGAAATGCCACAGCTAGATACATCCACCTGATTTATTATAATCTTTTCAATATTTCTCACCCTCTTCATCCTATTTCAACTAAAAATTTCAAATCACTACTACCCAGAAAACCCGATAACCAAATCTGCTAAAATTGCTGGTCAACATAATCCTTGAGAAAACAAATGAACGAAAATCTATTCGCTTCTTTCGCTGCCCCCTCAATAATAGGTCTCCCTATTGTGGTACTGATCGTCATATTCCCTTCCATTTTATTCCCAACACCCAGTCGCCTAATCAATAATCGGTTAATCTCCATTCAGCAATGACTAATTCAACTAACATCAAAACAAATACTAGCAATTCATAACCAAAAGGGACGAACCTGAGCTCTCATACTTATATCACTAATTCTATTTATTGGCTCAACTAATCTACTTGGACTATTACCTCACTCATTTACGCCCACAACACAACTCTCTATAAACCTCGGAATAGCAATTCCCCTATGAGCAGGGACAGTAATTACCGGTTTCCGCTATAAAACCAAAGCATCCTTAGCACACTTTCTACCCCAAGGCACCCCTCTCCCCCTAATTCCAATACTAGTAGTCATCGAAACTATTAGTCTATTTATTCAACCCATGGCTCTAGCCGTTCGATTAACCGCCAATATTACTGCAGGACACCTCCTAATCCATTTGATTGGAGGGGCTACCTTAGCTCTTATCAATATTAGCGCGACCACAGCTTTTATCACTTTTATTATTCTAATCCTACTTACGATCCTAGAATTTGCTGTTGCCTTAATTCAAGCCTATGTTTTTACCTTACTAGTGAGTCTATACTTACATGACAACACCTAATGACCCACCAAACTCACGCTTACCACATAGTCAACCCAAGCCCATGACCGCTGACAGGGGCCCTTTCTGCCCTCCTTATAACATCGGGTCTTATCATATGATTTCACTATAACTCAATAGCCCTACTTACATTAGGATTCACAACCAACCTGTTAACCATATGCCAGTGATGACGAGATGTGATCCGAGAAGGCACATTCCAAGGACATCATACCCCTATTGTACAAAAAGGACTACGATACGGAATAGTTCTTTTTATCGTATCAGAAGTATTTTTCTTTGCAGGCTTCTTCTGAGCCTTTTACCACTCCAGCCTAGCCCCTACTCCTGAACTTGGGGGTTGCTGACCTCCTACCGGCATTATTCCTCTTAACCCATTAGAAGTGCCTCTACTCAACACCTCAGTCCTCCTAGCCTCCGGAGTATCTATTACTTGAGCCCATCATAGTTTAATAGAAGGTAATCGCAAACATATACTTCAAGCCTTATTCATTACAATCTCCTTAGGCGTATATTTTACGCTATTACAGGCCTCCGAATACTATGAGACATCTTTTACAATCTCCGATGGGGTATACGGATCTACCTTTTTTATAGCCACTGGATTTCACGGATTACACGTAATTATTGGCTCTACATTCCTCATCGTGTGCTTCCTCCGACAGCTATACTACCACTTCACATCAAACCACCACTTCGGATTTGAAGCCGCTGCATGATATTGACACTTTGTTGATGTAGTCTGGCTATTCTTGTATGTATCTATTTATTGATGAGGATCCTATTTCTTTAGTATAACTAGTACAATTGACTTCCAATCAGTTAGCTCCAGATCAACCTGGAAAGAAGTAATAAACGTTATATTAACTTTGATAACTAATGTAACCCTAGCATCCTTACTTGTACTAATCGCATTCTGACTTCCCCAGCTAAATATCTATACAGACAAGACAAGCCCCTACGAATGTGGTTTTGACCCCATGGGATCTGCTCGCCTACCTTTCTCTATAAAATTTTTCCTAGTTGCCATCACATTTCTGCTTTTCGACCTAGAAATTGCACTCCTACTCCCACTTCCCTGAGCGTCACAAACCAACAAGCTAACAACAATACTTATCATAGCACTCCTACTAATCTCCCTCCTAGCTGCGAGCCTAGCGTATGAATGGACCGAAAAGGGGCTAGAATGAACCGAATATGATAATTAGTTTAAGCCAAAAACAAATGATTTCGACTCATTAGATTATGATTTATCTCATAATTATCATGTCCATAGTATATATTAATATCTTTCTGGCATTCATTCTTTCTCTAATAGGTATACTTGTTTATCGATCACACCTAATATCATCGCTACTATGCTTAGAGGGCATAATATTATCACTATTTGTAATAATATCTGTAACTATTCTCAACAATCACCTCACATTAGCCAGCATGATACCAATCGTACTACTAGTATTTGCTGCCTGCGAAGCAGCATTAGGACTATCTCTACTAGTTATAGTATCTAACACCTACGGGACTGATTACGTACAAAACCTAAACCTTTTACAATGCTAAAAATTATCATCCCTACTATCATACTAATCCCCCTTACATGAATATCAAAGCCTAACATAATCTGAATTAACACGACAACATATGGTTTGCTAATCAGCTTAATCAGCTTATTCTACCTAAACCAACCAAATGATAATACATTGAACTCCTCCTTAATATTTTTCTCTGATTCCCTATCGGCACCACTATTAGCACTCACAACATGACTTCTGCCCCTTATACTTATAGCAAGTCAACACCATTTATCAAAAGAACCCTTAACTCGAAAAAAACTATATATTTCAATACTAATTCTTCTCCAATTGTTCCTAATTATAACTTTCACAGCCTCTGAACTCATCTTCTTTTACATCCTATTTGAAGCAACACTGATTCCGACCCTGATCATTATTACCCGATGAGGAAATCAAACTGAACGACTAAACGCAGGACTCTACTTCTTATTTTATACTTTAATAGGATCCCTCCCACTCCTAGTAGCTCTCCTTTATATCCACAATTTCATGGGCTCCCTAAATTTTCTCATAATTCAATACTGAATCCAGCCTCTGCCAAACTCCTGATCTAATATTTTCCTATGACTGGCATGCATAATAGCATTCATAGTAAAGATACCTCTATACGGCCTCCACTTGTGACTACCAAAAGCACACGTAGAGGCCCCTATTGCCGGCTCCATAGTACTTGCCGCTGTACTCCTAAAACTAGGGGGCTATGGCATGATACGAATTACAACCCTACTAAATCCCCTGACCAATTTCATAGCATACCCCTTCATAATATTGTCTCTATGAGGCATAATCATAACAAGCTCTATCTGTCTCCGTCAAACAGATCTAAAATCCCTAATTGCATACTCCTCAGTTAGTCATATGGCACTGGTTATCGTAGCGGTTCTTATTCAAACACCATGAAGTTATATAGGTGCAACAGCTCTAATAATTGCCCATGGTTTAACATCCTCAATACTATTCTGCTTAGCCAACTCCAATTACGAACGAATCCATAGCCGTACTATAATTCTCGCACGAGGACTTCAAACTCTCCTTCCCCTAATAGCAGCCTGATGACTATTAGCAAGCCTCACAAATCTGGCTCTCCCTCCAACAATTAATCTTATCGGAGAACTATTTGTAGTGATATCCTCATTCTCATGATCCAACATTACTATTATCCTAATAGGAATTAACATTATCATCACCGCCCTATACTCACTTTATATATTAATCACCACACAACGTGGTAAATATTCCCACCATATCAAAAATATCAAACCATCATTCACACGAGAAAATGCCCTAATGACCTTGCACCTACTGCCCCTACTCCTCCTATCCCTTAACCCTAAAATTATTCTCGGTCCCATCTACTGTAAGCATAGTTTAACAAAAACATTAGATTGTGAGTCTAACAATAAAAGCTCAAACCTTTTTGCTTACCGAAAAAGTACTGCAAGAACTGCTAATTCATGCTCCCATGCATAAGAACATGGCTTTTTCAACTTTTATAGGATAGAAGTAATCCGTTGGTCTTAGGAACCAAAAAATTGGTGCAACTCCAGATAAAAGTAATAAATATATTTTCTTCATGCATAATCACAGCCCTAGTTATTCTTACTTTGCCCATCATTATATCCTCTACTAAACTTTACAAGAATAAGCTATACCCATACTATGTAAAAACCGCTACTTCTTACGCGTTCATAATTAGCATAATTCCCACAATAATATTCATCTACTCAGGACAGGAAACAATCATTTCAAACTGGCATTGAATAACAATCCAAACTATAAAACTATCCATGAGTTTCAAATTAGACTACTTCTCAATAATCTTTGTACCTGTAGCCCTTTTTGTCACGTGGTCTATCATAGAATTCTCTATATGATATATACACTCCGATCCTTACATTAACCGGTTTTTCAAGTACCTTCTCTTATTCCTCATCACTATAATAGTCCTAGTTACCGCAAACAACATATTCCAACTATTCATTGGTTGAGAAGGAGTTGGCATTATATCATTCCTACTTATTGGATGATGGTACGGCCGAACCGATGCAAATACAGCCGCCCTACAAGCCGTCCTCTACAACCGTATTGGAGATGTAGGCTTCATTATAACCATAGCATGATTTCTACTAAACTTAAACACATGAGACCTTCAACAAATCTTCATTACGACAAACGATAATTTTAATCTGCCACTACTTGGCCTACTACTAGCAGCTACCGGTAAATCTGCTCAATTCGGCCTACATCCCTGACTCCCCTCAGCCATAGAAGGCCCCACTCCTGTATCAGCCCTACTTCACTCAAGCACAATAGTTGTAGCAGGAGTATTTCTTCTTATCCGCTTTCATCCACTAATAGAGCATAACCAAACTATTCAAACCCTCACTTTATGCTTAGGGGCCATTACTACACTATTTACCGCAATCTGCGCTCTTACACAGAATGATATCAAAAAAATTGTAGCGTTCTCTACCTCAAGCCAACTAGGCCTAATAATAGTAACAATTGGCATTAACCAGCCCTACTTAGCCTTCTTACACATCTGCACTCACGCATTTTTTAAAGCTATACTATTCATATGCTCAGGGTCAGTTATCCACAGCCTAAACGATGAACAAGACATTCGAAAAATGGGTGGCCTATTTAAAGTCCTTCCCTTCACCACAACCTCCCTTATTATCGGAAGCCTCGCATTAACAGGCATGCCTTTCCTTACAGGATTCTACTCCAAAGACCTGATCATCGAGTCCGCTAACACGTCGAATACCAACGCCTGAGCCCTCTTAATTACACTCGTTGCCACATCCCTAACCGCTGCCTACAGCACCCGAATTATATTCTTTGCTCTACTAGGCCAGCCCCGCTTCTCCCCTATAATCCTTATCAACGAGAATAATCCTCTCCTAATTAACTCTATTAAACGACTCCTTATCGGAAGTGTATTTGCAGGGTATATTATCTCCCACAGCATCACACCCACTACCATCCCACAGATAACTATGCCTCATTATCTAAAAATGACAGCCCTTGCAGTAACCACCTTGGGTTTCATCCTGGCACTAGAACTAAACCTTACCTCACAAGGACTCAAATTTAACTATCCTTCTAATTACTTTAAATTCTCCAGCCTCCTTGGCTACTATCCAACCATTATGCACCGCCTCACACCTAAAACAAGTTTAACCATTAGCCAGAAATCAGCATCTATACTTCTGGACTCCATCTGACTAGAAAACATCCTACCCAAATCAATCTCATATTTCCAAATAAAATCTTCTACCCTTATTTCAAATCAAAAAGGTCTCATCAAACTCTATTTCCTATCGTTCATACTAACTATAATCCTCAGTCTACTAATCCTTAATTACCACGGGTAACTTCCATGATAACCAACACACCAATTAATAATGATCAGCCTGTAACAACCACCAACCAAGTCCCATAACTGTACAGAGCCGCAATACCCATAGCCTCTTCACTAAAAAACCCAGAGTCCCCCGTATCATAGATCACTCAATCCCCTATTCCATTAAACTTTAATACTACCTCCACCTCGTCATCCTTCAAAATATAGCAAGCAGTCAACAATTCAGACAACAAACCAGTAATAAAAGCCGCTAGAACAGCCTTATTTGAAACTCACACCTCAGGGTATTGCTCAGTAGCCATAGCAGTTGTATAACCAAATACTACTAATATACCCCCCAAATAAATTAAAAATACTATCAACCCTAAAAAAGAACCCCCAAAATTCAGAACAATCGCACAACCAATCCCACCGCTAATAATTAGCACAAGCCCACCATAAATAGGAGATGGTTTAGTGGCAAAACCCACAAAACTCATCACAAAAACGATACTTAAAATAAATACAATGTATGTTATCATTATTCCTACATGGAATTTAACCATGACTAATGACATGAAAAATCATCGTTGTATTTCAACTATAAGAACATTAATGACCAACATTCGAAAAACCCACCCACTAGCCAAAATTGTTAATAACTCATTCATTGACCTCCCAGCGCCGTCTAACATCTCTGCTTGATGGAACTTCGGATCCTTACTAGGAGTATGCTTGATTCTACAGATTCTAACAGGTTTATTCTTAGCTATGCACTATACATCGGACACAGCCACAGCTTTTTCATCAGTCACCCACATCTGCCGAGACGTTAACTACGGCTGAATTATCCGCTATATGCACGCAAATGGCGCTTCCATATTCTTTATCTGCCTATTCCTACATGTAGGACGAGGCCTATATTACGGATCCTATGTATTCATAGAAACATGAAACATTGGAATTGTACTATTATTCGCAACCATAGCCACAGCATTCATGGGCTATGTACTACCATGAGGACAAATATCATTTTGAGGAGCAACTGTAATCACTAATCTTCTCTCTGCCATCCCTTATATCGGAACTGACTTAGTAGAATGGATCTGAGGCGGCTTCTCAGTGGACAAAGCAACCCTAACACGATTCTTTGCATTCCATTTCATCCTCCCTTTCATCATCGCAGCTCTAGCAATAGTACACCTCCTATTTCTACACGAAACCGGATCCAACAACCCTTCAGGAATCACATCAGACTCAGACAAAATTCCATTTCACCCTTACTACACAATCAAGGATATCCTAGGAGCCTTACTCCTACTCCTAATCCTAATATCACTAGTTTTATTTTCACCTGACCTATTAGGAGACCCAGATAACTACACCCCTGCAAACCCCCTAAACACCCCTCCACATATTAAACCTGAGTGATATTTTCTATTCGCCTATGCTATCCTACGATCCATTCCTAATAAATTAGGAGGTGTACTCGCCCTAGTATTCTCCATCCTAATCTTGGCATTCATTCCACTCCTCCACACATCTAAGCAACGCAGCATAATATTCCGGCCCCTTAGCCAATGCCTATTCTGACTTTTAGTCGCCGATCTTCTCACTTTAACATGAATTGGAGGACAACCAGTTGAGCACCCTTTCATCATTATCGGACAAGTCGCTTCAATCTTATATTTCACCATCTTATTGATCCTAATACCAACAGTTAGCGTTATCGAAAACAACCTTCTAAAATGAAGAGTCTTTGTAGTATAATCATTACCTTGGTCTTGTAAACCAAAAATGGAGAGTAACCGCCCTCCCTAAGACTCAAGGAAGAAGCTCTTGCTCCACCATCAGCACCCAAAGCTGAGATTCTTCTTAAACTATTCCCTGACACCCCTACATTCATATATTGAATCACCCCTACTGTGCTATGTCAGTATCTCCAGGTAAACCCTTCTCCCCTCCCCTATGTACGTCGTGCATTAATGGTTTGCCCCATGCATATAAGCATGTACATAATATTATATCCTTACATAGGACATATTAACTCAATCTCATAATTCACTGATCTTTCAACAGTAATCGAATGCATATCACTTAGTCCAATAAGGGCTTAATCACCATGCCTCGAGAAACCATCAACCCTTGCTCGTAATGTCCCTCTTCTCGCTCCGGGCCCATACTAACGTGGGGGTTACTATCATGAAACTATACCTGGCATCTGGTTCTTACTTCAGGGCCATAACCTTATTTACTCCAATCCTACTAATTCTCGCAAATGGGACATCTCGATGGACTAATGACTAATCAGCCCATGATCACACATAACTGTGGTGTCATGCATCTGGTATCTTTTAATTTTTAGGGGGGGAATCTGCTATCACTCACCTACGACCGCAACGGCACTAACTCTAACTTATCTTCTGCTCTCAGGGAATATGCCCGTCGCGGCCCTAATGCAGTCAAATAACTTGTAGCTGGACTTATTCATTATCATTTATCAACTCACGCATAAAATCAAGGTGCTATTCAGTCAATGGTTTCAGGACATATAGTTTTAGGGTACACGTACGTACACGTACGTACACGTACGTACACGTACGTACACGTACGTACACGTGCGTACACGTGCGTACACGTACGTACACGTGCGTACACGTGCGTACACGTGCGTACACGTACGTACACGTGCGTACACGTACGTACACGTGCGTACACGTACGTACACGTACGTACACGTGCGTACACGTACGTACACGTGCGTACACGTGCGTACACGTGCGTACACGTACGTACACGTGCGTACACGTGCGTACACGTACGTACACGTACGTACACGTGCGTACACGTACGTACACGTACGCACGCGCGTAAGACATTAAGTTAACTTATACAAACCCCCCTTACCCCCCGTAAACTCATGTCATCTATTATACACTTATTTATGTCCCGCCAAACCCCAAAAACAGGACTAAGTGCATACAATACTCACAAGCTTTATTTAAATTATATACAAATGTATTGCTACTCTAGTTAACTTAACACAACAGTCTTACACGCATTTGGTCTCGTAGTCTATCTATAGATAGCATTCCCTTTTTTTTCCCTCTCATATTTACTATGTATTTTATTTATTACGCACACTACAATTTCAGTATAA'
p1089
sbsS'_per_letter_annotations'
p1090
g1
(cBio.SeqRecord
_RestrictedDict
p1091
c__builtin__
dict
p1092
(dtRp1093
(dp1094
S'_length'
p1095
I16727
sbsg103
S'NC_002008.4'
p1096
sS'name'
p1097
S'NC_002008'
p1098
sb.