ccopy_reg
_reconstructor
p1
(cBio.SeqRecord
SeqRecord
p2
c__builtin__
object
p3
NtRp4
(dp5
S'dbxrefs'
p6
(lp7
S'Project:19129 BioProject:PRJNA19129'
p8
asS'description'
p9
S'Equus caballus mitochondrion, complete genome.'
p10
sS'annotations'
p11
(dp12
S'comment'
p13
S'PROVISIONAL REFSEQ: This record has not yet been subject to final\nNCBI review. The reference sequence was derived from X79547.\nUsers are requested to refer to the citation of this entry as well\nas the accession number in their publications.\nCOMPLETENESS: full length.'
p14
sS'sequence_version'
p15
I1
sS'source'
p16
S'mitochondrion Equus caballus (horse)'
p17
sS'taxonomy'
p18
(lp19
S'Eukaryota'
p20
aS'Metazoa'
p21
aS'Chordata'
p22
aS'Craniata'
p23
aS'Vertebrata'
p24
aS'Euteleostomi'
p25
aS'Mammalia'
p26
aS'Eutheria'
p27
aS'Laurasiatheria'
p28
aS'Perissodactyla'
p29
aS'Equidae'
p30
aS'Equus'
p31
asS'keywords'
p32
(lp33
S''
asS'references'
p34
(lp35
g1
(cBio.SeqFeature
Reference
p36
g3
NtRp37
(dp38
g13
S''
sS'title'
p39
S'The complete mitochondrial DNA sequence of the horse, Equus caballus: extensive heteroplasmy of the control region'
p40
sS'consrtm'
p41
S''
sS'journal'
p42
S'Gene 148 (2), 357-362 (1994)'
p43
sS'location'
p44
(lp45
g1
(cBio.SeqFeature
FeatureLocation
p46
g3
NtRp47
(dp48
S'ref'
p49
NsS'_end'
p50
g1
(cBio.SeqFeature
ExactPosition
p51
c__builtin__
int
p52
I16660
tRp53
sS'_start'
p54
g1
(g51
g52
I0
tRp55
sS'_strand'
p56
NsS'ref_db'
p57
NsbasS'pubmed_id'
p58
S'7958969'
p59
sS'authors'
p60
S'Xu,X. and Arnason,U.'
p61
sS'medline_id'
p62
S''
sbag1
(g36
g3
NtRp63
(dp64
g13
S''
sg39
S'Direct Submission'
p65
sg41
S'NCBI Genome Project'
p66
sg42
S'Submitted (28-OCT-1999) National Center for Biotechnology Information, NIH, Bethesda, MD 20894, USA'
p67
sg44
(lp68
g1
(g46
g3
NtRp69
(dp70
g49
Nsg50
g1
(g51
g52
I16660
tRp71
sg54
g1
(g51
g52
I0
tRp72
sg56
Nsg57
Nsbasg58
S''
sg60
S''
sg62
S''
sbag1
(g36
g3
NtRp73
(dp74
g13
S''
sg39
S'Direct Submission'
p75
sg41
S''
sg42
S'Submitted (06-JUN-1994) University of Lund, Dept. of Genetics, Division Evolutionary Molec. Systematics, Solvegatan 29, 223 62 Lund, Sweden'
p76
sg44
(lp77
g1
(g46
g3
NtRp78
(dp79
g49
Nsg50
g1
(g51
g52
I16660
tRp80
sg54
g1
(g51
g52
I0
tRp81
sg56
Nsg57
Nsbasg58
S''
sg60
S'Arnason,U.'
p82
sg62
S''
sbasS'accessions'
p83
(lp84
S'NC_001640'
p85
asS'data_file_division'
p86
S'MAM'
p87
sS'date'
p88
S'01-FEB-2010'
p89
sS'organism'
p90
S'Equus caballus'
p91
sS'gi'
p92
S'5835107'
p93
ssS'features'
p94
(lp95
g1
(cBio.SeqFeature
SeqFeature
p96
g3
NtRp97
(dp98
S'sub_features'
p99
(lp100
sS'location_operator'
p101
S''
sS'id'
p102
S'<unknown id>'
p103
sg44
g1
(g46
g3
NtRp104
(dp105
g49
Nsg50
g1
(g51
g52
I16660
tRp106
sg54
g1
(g51
g52
I0
tRp107
sg56
I1
sg57
NsbsS'type'
p108
S'source'
p109
sS'qualifiers'
p110
(dp111
S'organelle'
p112
(lp113
S'mitochondrion'
p114
asS'db_xref'
p115
(lp116
S'taxon:9796'
p117
asS'mol_type'
p118
(lp119
S'genomic DNA'
p120
asS'organism'
p121
(lp122
S'Equus caballus'
p123
assbag1
(g96
g3
NtRp124
(dp125
g99
(lp126
sg101
S''
sg102
g103
sg44
g1
(g46
g3
NtRp127
(dp128
g49
Nsg50
g1
(g51
g52
I70
tRp129
sg54
g1
(g51
g52
I0
tRp130
sg56
I1
sg57
Nsbsg108
S'tRNA'
p131
sg110
(dp132
S'product'
p133
(lp134
S'tRNA-Phe'
p135
assbag1
(g96
g3
NtRp136
(dp137
g99
(lp138
sg101
S''
sg102
g103
sg44
g1
(g46
g3
NtRp139
(dp140
g49
Nsg50
g1
(g51
g52
I1045
tRp141
sg54
g1
(g51
g52
I70
tRp142
sg56
I1
sg57
Nsbsg108
S'rRNA'
p143
sg110
(dp144
S'product'
p145
(lp146
S's-rRNA'
p147
assbag1
(g96
g3
NtRp148
(dp149
g99
(lp150
sg101
S''
sg102
g103
sg44
g1
(g46
g3
NtRp151
(dp152
g49
Nsg50
g1
(g51
g52
I1112
tRp153
sg54
g1
(g51
g52
I1045
tRp154
sg56
I1
sg57
Nsbsg108
S'tRNA'
p155
sg110
(dp156
S'product'
p157
(lp158
S'tRNA-Val'
p159
assbag1
(g96
g3
NtRp160
(dp161
g99
(lp162
sg101
S''
sg102
g103
sg44
g1
(g46
g3
NtRp163
(dp164
g49
Nsg50
g1
(g51
g52
I2693
tRp165
sg54
g1
(g51
g52
I1112
tRp166
sg56
I1
sg57
Nsbsg108
S'rRNA'
p167
sg110
(dp168
S'product'
p169
(lp170
S'l-rRNA'
p171
assbag1
(g96
g3
NtRp172
(dp173
g99
(lp174
sg101
S''
sg102
g103
sg44
g1
(g46
g3
NtRp175
(dp176
g49
Nsg50
g1
(g51
g52
I2403
tRp177
sg54
g1
(g51
g52
I2266
tRp178
sg56
I1
sg57
Nsbsg108
S'STS'
p179
sg110
(dp180
S'db_xref'
p181
(lp182
S'UniSTS:273091'
p183
asS'standard_name'
p184
(lp185
S'PMC31832P1'
p186
assbag1
(g96
g3
NtRp187
(dp188
g99
(lp189
sg101
S''
sg102
g103
sg44
g1
(g46
g3
NtRp190
(dp191
g49
Nsg50
g1
(g51
g52
I2559
tRp192
sg54
g1
(g51
g52
I2364
tRp193
sg56
I1
sg57
Nsbsg108
S'STS'
p194
sg110
(dp195
S'db_xref'
p196
(lp197
S'UniSTS:210357'
p198
asS'standard_name'
p199
(lp200
S'RH136367'
p201
assbag1
(g96
g3
NtRp202
(dp203
g99
(lp204
sg101
S''
sg102
g103
sg44
g1
(g46
g3
NtRp205
(dp206
g49
Nsg50
g1
(g51
g52
I2768
tRp207
sg54
g1
(g51
g52
I2693
tRp208
sg56
I1
sg57
Nsbsg108
S'tRNA'
p209
sg110
(dp210
S'codon_recognized'
p211
(lp212
S'UUR'
p213
asS'product'
p214
(lp215
S'tRNA-Leu'
p216
assbag1
(g96
g3
NtRp217
(dp218
g99
(lp219
sg101
S''
sg102
g103
sg44
g1
(g46
g3
NtRp220
(dp221
g49
Nsg50
g1
(g51
g52
I3727
tRp222
sg54
g1
(g51
g52
I2770
tRp223
sg56
I1
sg57
Nsbsg108
S'gene'
p224
sg110
(dp225
S'db_xref'
p226
(lp227
S'GeneID:807846'
p228
asS'gene'
p229
(lp230
S'ND1'
p231
assbag1
(g96
g3
NtRp232
(dp233
g99
(lp234
sg101
S''
sg102
g103
sg44
g1
(g46
g3
NtRp235
(dp236
g49
Nsg50
g1
(g51
g52
I3727
tRp237
sg54
g1
(g51
g52
I2770
tRp238
sg56
I1
sg57
Nsbsg108
S'CDS'
p239
sg110
(dp240
S'product'
p241
(lp242
S'NADH dehydrogenase subunit 1'
p243
asS'codon_start'
p244
(lp245
S'1'
asS'transl_table'
p246
(lp247
S'2'
asS'db_xref'
p248
(lp249
S'GI:5835108'
p250
aS'UniProtKB/Swiss-Prot:P48652'
p251
aS'GeneID:807846'
p252
asS'translation'
p253
(lp254
S'MFMINVLLLIVPILLAVAFLTLVERKVLGYMQLRKGPNIVGPYGLLQPIADALKLFIKEPLQPLTSSTSMFIIAPILALTLALTMWIPLPMPYPLINMNLGILFMLAMSSLAVYSILWSGWASNSKYALIGALRAVAQTISYEVTLAIILLSVLLMSGSFTLSTLIITQEYLWLIFPSWPLAMMWFISTLAETNRAPFDLTEGESELVSGFNVEYAAGPFALFFLAEYANIIMMNIFTTTLFLGAFHNPYLPELYSINFTIKALLLTCSFLWIRASYPRFRYDQLMHLLWKNFLPLTLALCMWHVSLPIMLSSIPPQT'
p255
asS'gene'
p256
(lp257
S'ND1'
p258
asS'protein_id'
p259
(lp260
S'NP_007160.1'
p261
assbag1
(g96
g3
NtRp262
(dp263
g99
(lp264
sg101
S''
sg102
g103
sg44
g1
(g46
g3
NtRp265
(dp266
g49
Nsg50
g1
(g51
g52
I3795
tRp267
sg54
g1
(g51
g52
I3726
tRp268
sg56
I1
sg57
Nsbsg108
S'tRNA'
p269
sg110
(dp270
S'product'
p271
(lp272
S'tRNA-Ile'
p273
assbag1
(g96
g3
NtRp274
(dp275
g99
(lp276
sg101
S''
sg102
g103
sg44
g1
(g46
g3
NtRp277
(dp278
g49
Nsg50
g1
(g51
g52
I3865
tRp279
sg54
g1
(g51
g52
I3792
tRp280
sg56
I-1
sg57
Nsbsg108
S'tRNA'
p281
sg110
(dp282
S'product'
p283
(lp284
S'tRNA-Gln'
p285
assbag1
(g96
g3
NtRp286
(dp287
g99
(lp288
sg101
S''
sg102
g103
sg44
g1
(g46
g3
NtRp289
(dp290
g49
Nsg50
g1
(g51
g52
I3936
tRp291
sg54
g1
(g51
g52
I3867
tRp292
sg56
I1
sg57
Nsbsg108
S'tRNA'
p293
sg110
(dp294
S'product'
p295
(lp296
S'tRNA-Met'
p297
assbag1
(g96
g3
NtRp298
(dp299
g99
(lp300
sg101
S''
sg102
g103
sg44
g1
(g46
g3
NtRp301
(dp302
g49
Nsg50
g1
(g51
g52
I4977
tRp303
sg54
g1
(g51
g52
I3936
tRp304
sg56
I1
sg57
Nsbsg108
S'gene'
p305
sg110
(dp306
S'db_xref'
p307
(lp308
S'GeneID:807844'
p309
asS'gene'
p310
(lp311
S'ND2'
p312
assbag1
(g96
g3
NtRp313
(dp314
g99
(lp315
sg101
S''
sg102
g103
sg44
g1
(g46
g3
NtRp316
(dp317
g49
Nsg50
g1
(g51
g52
I4977
tRp318
sg54
g1
(g51
g52
I3936
tRp319
sg56
I1
sg57
Nsbsg108
S'CDS'
p320
sg110
(dp321
S'product'
p322
(lp323
S'NADH dehydrogenase subunit 2'
p324
asS'codon_start'
p325
(lp326
S'1'
asS'transl_table'
p327
(lp328
S'2'
asS'db_xref'
p329
(lp330
S'GI:5835109'
p331
aS'UniProtKB/Swiss-Prot:P48653'
p332
aS'GeneID:807844'
p333
asS'translation'
p334
(lp335
S'MNPLIFTTILMTVLLGTMIVMMSSHWLMIWIGFEMNLLAIIPILMKKYNPRTMEASTKYFLTQATASMLLMMAIIINLMHSGQWTITKVFNPTASIIMTSALAMKLGLTPFHFWVPEVTQGISLTSGLILLTWQKLAPMSILYQISPSINLNILLTMAVLSILVGGWGGLNQTQLRKIMAYSSIAHMGWMTAVLVYNPTLTMLNMLIYIMMTLTMFMLFIHSSSTTTLSLSHTWNKMPLTTTLILITLLSMGGLPPLSGFMPKWMIIQELTKNSSIILPTLMAIMALLNLYFYMRLTYSTSLTMFPSTNNMKMKWQFETKRITLLPPLIVMSSLLLPLTPMLSILD'
p336
asS'gene'
p337
(lp338
S'ND2'
p339
asS'protein_id'
p340
(lp341
S'NP_007161.1'
p342
assbag1
(g96
g3
NtRp343
(dp344
g99
(lp345
sg101
S''
sg102
g103
sg44
g1
(g46
g3
NtRp346
(dp347
g49
Nsg50
g1
(g51
g52
I5045
tRp348
sg54
g1
(g51
g52
I4975
tRp349
sg56
I1
sg57
Nsbsg108
S'tRNA'
p350
sg110
(dp351
S'product'
p352
(lp353
S'tRNA-Trp'
p354
assbag1
(g96
g3
NtRp355
(dp356
g99
(lp357
sg101
S''
sg102
g103
sg44
g1
(g46
g3
NtRp358
(dp359
g49
Nsg50
g1
(g51
g52
I5119
tRp360
sg54
g1
(g51
g52
I5050
tRp361
sg56
I-1
sg57
Nsbsg108
S'tRNA'
p362
sg110
(dp363
S'product'
p364
(lp365
S'tRNA-Ala'
p366
assbag1
(g96
g3
NtRp367
(dp368
g99
(lp369
sg101
S''
sg102
g103
sg44
g1
(g46
g3
NtRp370
(dp371
g49
Nsg50
g1
(g51
g52
I5193
tRp372
sg54
g1
(g51
g52
I5120
tRp373
sg56
I-1
sg57
Nsbsg108
S'tRNA'
p374
sg110
(dp375
S'product'
p376
(lp377
S'tRNA-Asn'
p378
assbag1
(g96
g3
NtRp379
(dp380
g99
(lp381
sg101
S''
sg102
g103
sg44
g1
(g46
g3
NtRp382
(dp383
g49
Nsg50
g1
(g51
g52
I5225
tRp384
sg54
g1
(g51
g52
I5193
tRp385
sg56
I1
sg57
Nsbsg108
S'rep_origin'
p386
sg110
(dp387
S'note'
p388
(lp389
S'origin of L strand replication'
p390
assbag1
(g96
g3
NtRp391
(dp392
g99
(lp393
sg101
S''
sg102
g103
sg44
g1
(g46
g3
NtRp394
(dp395
g49
Nsg50
g1
(g51
g52
I5293
tRp396
sg54
g1
(g51
g52
I5225
tRp397
sg56
I-1
sg57
Nsbsg108
S'tRNA'
p398
sg110
(dp399
S'product'
p400
(lp401
S'tRNA-Cys'
p402
assbag1
(g96
g3
NtRp403
(dp404
g99
(lp405
sg101
S''
sg102
g103
sg44
g1
(g46
g3
NtRp406
(dp407
g49
Nsg50
g1
(g51
g52
I5360
tRp408
sg54
g1
(g51
g52
I5293
tRp409
sg56
I-1
sg57
Nsbsg108
S'tRNA'
p410
sg110
(dp411
S'product'
p412
(lp413
S'tRNA-Tyr'
p414
assbag1
(g96
g3
NtRp415
(dp416
g99
(lp417
sg101
S''
sg102
g103
sg44
g1
(g46
g3
NtRp418
(dp419
g49
Nsg50
g1
(g51
g52
I6906
tRp420
sg54
g1
(g51
g52
I5361
tRp421
sg56
I1
sg57
Nsbsg108
S'gene'
p422
sg110
(dp423
S'db_xref'
p424
(lp425
S'GeneID:807850'
p426
asS'gene'
p427
(lp428
S'COX1'
p429
assbag1
(g96
g3
NtRp430
(dp431
g99
(lp432
sg101
S''
sg102
g103
sg44
g1
(g46
g3
NtRp433
(dp434
g49
Nsg50
g1
(g51
g52
I6906
tRp435
sg54
g1
(g51
g52
I5361
tRp436
sg56
I1
sg57
Nsbsg108
S'CDS'
p437
sg110
(dp438
S'product'
p439
(lp440
S'cytochrome c oxidase subunit I'
p441
asS'codon_start'
p442
(lp443
S'1'
asS'transl_table'
p444
(lp445
S'2'
asS'db_xref'
p446
(lp447
S'GI:5835110'
p448
aS'UniProtKB/Swiss-Prot:P48659'
p449
aS'GeneID:807850'
p450
asS'translation'
p451
(lp452
S'MFINRWLFSTNHKDIGTLYLLFGAWAGMVGTALSLLIRAELGQPGTLLGDDQIYNVIVTAHAFVMIFFMVMPIMIGGFGNWLVPLMIGAPDMAFPRMNNMSFWLLPPSFLLLLASSMIEAGAGTGWTVYPPLAGNLAHAGASVDLTIFSLHLAGVSSILGAINFITTIINMKPPALSQYQTPLFVWSVLITAVLLLLALPVLAAGITMLLTDRNLNTTFFDPAGGGDPILYQHLFWFFGHPEVYILILPGFGMISHIVTYYSGKKEPFGYMGMVWAMMSIGFLGFIVWAHHMFTVGMDVDTRAYFTSATMIIAIPTGVKVFSWLATLHGGNIKWSPAMLWALGFIFLFTVGGLTGIVLANSSLDIVLHDTYYVVAHFHYVLSMGAVFAIMGGFVHWFPLFSGYTLNQTWAKIHFTIMFVGVNMTFFPQHFLGLSGMPRRYSDYPDAYTTWNTISSMGSFISLTAVMLMIFMIWEAFASKREVSTVELTSTNLEWLHGCPPPYHTFEEPTYVNLK'
p453
asS'gene'
p454
(lp455
S'COX1'
p456
asS'protein_id'
p457
(lp458
S'NP_007162.1'
p459
assbag1
(g96
g3
NtRp460
(dp461
g99
(lp462
sg101
S''
sg102
g103
sg44
g1
(g46
g3
NtRp463
(dp464
g49
Nsg50
g1
(g51
g52
I6972
tRp465
sg54
g1
(g51
g52
I6903
tRp466
sg56
I-1
sg57
Nsbsg108
S'tRNA'
p467
sg110
(dp468
S'codon_recognized'
p469
(lp470
S'UCN'
p471
asS'product'
p472
(lp473
S'tRNA-Ser'
p474
assbag1
(g96
g3
NtRp475
(dp476
g99
(lp477
sg101
S''
sg102
g103
sg44
g1
(g46
g3
NtRp478
(dp479
g49
Nsg50
g1
(g51
g52
I7047
tRp480
sg54
g1
(g51
g52
I6980
tRp481
sg56
I1
sg57
Nsbsg108
S'tRNA'
p482
sg110
(dp483
S'product'
p484
(lp485
S'tRNA-Asp'
p486
assbag1
(g96
g3
NtRp487
(dp488
g99
(lp489
sg101
S''
sg102
g103
sg44
g1
(g46
g3
NtRp490
(dp491
g49
Nsg50
g1
(g51
g52
I7731
tRp492
sg54
g1
(g51
g52
I7047
tRp493
sg56
I1
sg57
Nsbsg108
S'gene'
p494
sg110
(dp495
S'db_xref'
p496
(lp497
S'GeneID:807845'
p498
asS'gene'
p499
(lp500
S'COX2'
p501
assbag1
(g96
g3
NtRp502
(dp503
g99
(lp504
sg101
S''
sg102
g103
sg44
g1
(g46
g3
NtRp505
(dp506
g49
Nsg50
g1
(g51
g52
I7731
tRp507
sg54
g1
(g51
g52
I7047
tRp508
sg56
I1
sg57
Nsbsg108
S'CDS'
p509
sg110
(dp510
S'product'
p511
(lp512
S'cytochrome c oxidase subunit II'
p513
asS'codon_start'
p514
(lp515
S'1'
asS'transl_table'
p516
(lp517
S'2'
asS'db_xref'
p518
(lp519
S'GI:5835111'
p520
aS'UniProtKB/Swiss-Prot:P48660'
p521
aS'GeneID:807845'
p522
asS'translation'
p523
(lp524
S'MAYPFQLGFQDATSPIMEELLHFHDHTLMIVFLISSLVLYIISSMLTTKLTHTSTMDAQEVETIWTILPAIILILIALPSLRILYMMDEINNPSLTVKTMGHQWYWSYEYTDYEDLTFDSYMIPTSDLKPGELRLLEVDNRVVLPMEMTIRMLISSEDVLHSWAVPSLGLKTDAIPGRLNQTTLVASRPGLYYGQCSEICGSNHSFMPIVLELVPLKHFEEWSASML'
p525
asS'gene'
p526
(lp527
S'COX2'
p528
asS'protein_id'
p529
(lp530
S'NP_007163.1'
p531
assbag1
(g96
g3
NtRp532
(dp533
g99
(lp534
sg101
S''
sg102
g103
sg44
g1
(g46
g3
NtRp535
(dp536
g49
Nsg50
g1
(g51
g52
I7802
tRp537
sg54
g1
(g51
g52
I7734
tRp538
sg56
I1
sg57
Nsbsg108
S'tRNA'
p539
sg110
(dp540
S'product'
p541
(lp542
S'tRNA-Lys'
p543
assbag1
(g96
g3
NtRp544
(dp545
g99
(lp546
sg101
S''
sg102
g103
sg44
g1
(g46
g3
NtRp547
(dp548
g49
Nsg50
g1
(g51
g52
I8007
tRp549
sg54
g1
(g51
g52
I7803
tRp550
sg56
I1
sg57
Nsbsg108
S'gene'
p551
sg110
(dp552
S'db_xref'
p553
(lp554
S'GeneID:807849'
p555
asS'gene'
p556
(lp557
S'ATP8'
p558
assbag1
(g96
g3
NtRp559
(dp560
g99
(lp561
sg101
S''
sg102
g103
sg44
g1
(g46
g3
NtRp562
(dp563
g49
Nsg50
g1
(g51
g52
I8007
tRp564
sg54
g1
(g51
g52
I7803
tRp565
sg56
I1
sg57
Nsbsg108
S'CDS'
p566
sg110
(dp567
S'product'
p568
(lp569
S'ATP synthase F0 subunit 8'
p570
asS'codon_start'
p571
(lp572
S'1'
asS'transl_table'
p573
(lp574
S'2'
asS'db_xref'
p575
(lp576
S'GI:5835112'
p577
aS'UniProtKB/Swiss-Prot:P48663'
p578
aS'GeneID:807849'
p579
asS'translation'
p580
(lp581
S'MPQLDTSTWFINIVSMILTLFIVFQLKISKHSYPTHPEVKTTKMTKHSAPWESKWTKIYSPLSLPQQ'
p582
asS'gene'
p583
(lp584
S'ATP8'
p585
asS'protein_id'
p586
(lp587
S'NP_007164.1'
p588
assbag1
(g96
g3
NtRp589
(dp590
g99
(lp591
sg101
S''
sg102
g103
sg44
g1
(g46
g3
NtRp592
(dp593
g49
Nsg50
g1
(g51
g52
I8645
tRp594
sg54
g1
(g51
g52
I7964
tRp595
sg56
I1
sg57
Nsbsg108
S'gene'
p596
sg110
(dp597
S'db_xref'
p598
(lp599
S'GeneID:807854'
p600
asS'gene'
p601
(lp602
S'ATP6'
p603
assbag1
(g96
g3
NtRp604
(dp605
g99
(lp606
sg101
S''
sg102
g103
sg44
g1
(g46
g3
NtRp607
(dp608
g49
Nsg50
g1
(g51
g52
I8645
tRp609
sg54
g1
(g51
g52
I7964
tRp610
sg56
I1
sg57
Nsbsg108
S'CDS'
p611
sg110
(dp612
S'product'
p613
(lp614
S'ATP synthase F0 subunit 6'
p615
asS'codon_start'
p616
(lp617
S'1'
asS'transl_table'
p618
(lp619
S'2'
asS'db_xref'
p620
(lp621
S'GI:5835113'
p622
aS'UniProtKB/Swiss-Prot:P48662'
p623
aS'GeneID:807854'
p624
asS'translation'
p625
(lp626
S'MNENLFASFATPTMVGLPIVILIIMFPSILFPSPNRLINNRLISIQQWLVQLTSKQMMAIHNSKGQTWTLMLMSLILFIGSTNLLGLLPHSFTPTTQLSMNLGMAIPLWAGTVFMGFRHKTKAALAHFLPQGTPIFLIPMLVIIETISLFIQPVALAVRLTANITAGHLLMHLIGGATLALMSISPSTALITFIILILLTILEFAVAMIQAYVFTLLVSLYLHDNT'
p627
asS'gene'
p628
(lp629
S'ATP6'
p630
asS'protein_id'
p631
(lp632
S'NP_007165.1'
p633
assbag1
(g96
g3
NtRp634
(dp635
g99
(lp636
sg101
S''
sg102
g103
sg44
g1
(g46
g3
NtRp637
(dp638
g49
Nsg50
g1
(g51
g52
I9428
tRp639
sg54
g1
(g51
g52
I8644
tRp640
sg56
I1
sg57
Nsbsg108
S'gene'
p641
sg110
(dp642
S'db_xref'
p643
(lp644
S'GeneID:807856'
p645
asS'gene'
p646
(lp647
S'COX3'
p648
assbag1
(g96
g3
NtRp649
(dp650
g99
(lp651
sg101
S''
sg102
g103
sg44
g1
(g46
g3
NtRp652
(dp653
g49
Nsg50
g1
(g51
g52
I9428
tRp654
sg54
g1
(g51
g52
I8644
tRp655
sg56
I1
sg57
Nsbsg108
S'CDS'
p656
sg110
(dp657
S'product'
p658
(lp659
S'cytochrome c oxidase subunit III'
p660
asS'transl_except'
p661
(lp662
S'(pos:9428,aa:TERM)'
p663
asS'codon_start'
p664
(lp665
S'1'
asS'transl_table'
p666
(lp667
S'2'
asS'note'
p668
(lp669
S"TAA stop codon is completed by the addition of 3' A residues to the mRNA"
p670
asS'db_xref'
p671
(lp672
S'GI:5835114'
p673
aS'UniProtKB/Swiss-Prot:P48661'
p674
aS'GeneID:807856'
p675
asS'translation'
p676
(lp677
S'MTHQTHAYHMVNPSPWPLTGALSALLMTSGLAMWFHFNSTLLLAMGLLTNILTMYQWWRDIIRESTFQGHHTSIVQKGLRYGMILFIISEVFFFSGFFWAFYHSSLAPTPELGGCWPPTGIHPLNPLEVPLLNTSVLLASGVSITWAHHSLMEGNRKNMLQGLFITISLGVYFTLLQASEYYEASFTISDGVYGSTFFVATGFHGLHVIIGSTFLIVCFLRQLKFHFTSSHHFGFEAAAWYWHFVDVVWLFLYVSIYWWGS'
p678
asS'gene'
p679
(lp680
S'COX3'
p681
asS'protein_id'
p682
(lp683
S'NP_007166.1'
p684
assbag1
(g96
g3
NtRp685
(dp686
g99
(lp687
sg101
S''
sg102
g103
sg44
g1
(g46
g3
NtRp688
(dp689
g49
Nsg50
g1
(g51
g52
I9497
tRp690
sg54
g1
(g51
g52
I9428
tRp691
sg56
I1
sg57
Nsbsg108
S'tRNA'
p692
sg110
(dp693
S'product'
p694
(lp695
S'tRNA-Gly'
p696
assbag1
(g96
g3
NtRp697
(dp698
g99
(lp699
sg101
S''
sg102
g103
sg44
g1
(g46
g3
NtRp700
(dp701
g49
Nsg50
g1
(g51
g52
I9843
tRp702
sg54
g1
(g51
g52
I9497
tRp703
sg56
I1
sg57
Nsbsg108
S'gene'
p704
sg110
(dp705
S'db_xref'
p706
(lp707
S'GeneID:807855'
p708
asS'gene'
p709
(lp710
S'ND3'
p711
assbag1
(g96
g3
NtRp712
(dp713
g99
(lp714
sg101
S''
sg102
g103
sg44
g1
(g46
g3
NtRp715
(dp716
g49
Nsg50
g1
(g51
g52
I9843
tRp717
sg54
g1
(g51
g52
I9497
tRp718
sg56
I1
sg57
Nsbsg108
S'CDS'
p719
sg110
(dp720
S'product'
p721
(lp722
S'NADH dehydrogenase subunit 3'
p723
asS'transl_except'
p724
(lp725
S'(pos:9843,aa:TERM)'
p726
asS'codon_start'
p727
(lp728
S'1'
asS'transl_table'
p729
(lp730
S'2'
asS'note'
p731
(lp732
S"TAA stop codon is completed by the addition of 3' A residues to the mRNA"
p733
asS'db_xref'
p734
(lp735
S'GI:5835115'
p736
aS'UniProtKB/Swiss-Prot:P48654'
p737
aS'GeneID:807855'
p738
asS'translation'
p739
(lp740
S'MNLMLTLLTNTLLASLLVLIAFWLPQLNIYAEKTSPYECGFDPMGSARLPFSMKFFLVAITFLLFDLEIALLLPLPWASQTTNLNTMLIMALVLISLLAISLAYEWTQKGLEWTE'
p741
asS'gene'
p742
(lp743
S'ND3'
p744
asS'protein_id'
p745
(lp746
S'NP_007167.1'
p747
assbag1
(g96
g3
NtRp748
(dp749
g99
(lp750
sg101
S''
sg102
g103
sg44
g1
(g46
g3
NtRp751
(dp752
g49
Nsg50
g1
(g51
g52
I9913
tRp753
sg54
g1
(g51
g52
I9844
tRp754
sg56
I1
sg57
Nsbsg108
S'tRNA'
p755
sg110
(dp756
S'product'
p757
(lp758
S'tRNA-Arg'
p759
assbag1
(g96
g3
NtRp760
(dp761
g99
(lp762
sg101
S''
sg102
g103
sg44
g1
(g46
g3
NtRp763
(dp764
g49
Nsg50
g1
(g51
g52
I10211
tRp765
sg54
g1
(g51
g52
I9914
tRp766
sg56
I1
sg57
Nsbsg108
S'gene'
p767
sg110
(dp768
S'db_xref'
p769
(lp770
S'GeneID:807851'
p771
asS'gene'
p772
(lp773
S'ND4L'
p774
assbag1
(g96
g3
NtRp775
(dp776
g99
(lp777
sg101
S''
sg102
g103
sg44
g1
(g46
g3
NtRp778
(dp779
g49
Nsg50
g1
(g51
g52
I10211
tRp780
sg54
g1
(g51
g52
I9914
tRp781
sg56
I1
sg57
Nsbsg108
S'CDS'
p782
sg110
(dp783
S'product'
p784
(lp785
S'NADH dehydrogenase subunit 4L'
p786
asS'codon_start'
p787
(lp788
S'1'
asS'transl_table'
p789
(lp790
S'2'
asS'db_xref'
p791
(lp792
S'GI:5835116'
p793
aS'UniProtKB/Swiss-Prot:P48658'
p794
aS'GeneID:807851'
p795
asS'translation'
p796
(lp797
S'MSLVHINIFLAFTVSLVGLLMYRSHLMSSLLCLEGMMLSLFVMATMMVLNTHFTLASMMPIILLVFAACERALGLSLLVMVSNTYGVDHVQNLNLLQC'
p798
asS'gene'
p799
(lp800
S'ND4L'
p801
asS'protein_id'
p802
(lp803
S'NP_007168.1'
p804
assbag1
(g96
g3
NtRp805
(dp806
g99
(lp807
sg101
S''
sg102
g103
sg44
g1
(g46
g3
NtRp808
(dp809
g49
Nsg50
g1
(g51
g52
I11582
tRp810
sg54
g1
(g51
g52
I10204
tRp811
sg56
I1
sg57
Nsbsg108
S'gene'
p812
sg110
(dp813
S'db_xref'
p814
(lp815
S'GeneID:807852'
p816
asS'gene'
p817
(lp818
S'ND4'
p819
assbag1
(g96
g3
NtRp820
(dp821
g99
(lp822
sg101
S''
sg102
g103
sg44
g1
(g46
g3
NtRp823
(dp824
g49
Nsg50
g1
(g51
g52
I11582
tRp825
sg54
g1
(g51
g52
I10204
tRp826
sg56
I1
sg57
Nsbsg108
S'CDS'
p827
sg110
(dp828
S'product'
p829
(lp830
S'NADH dehydrogenase subunit 4'
p831
asS'transl_except'
p832
(lp833
S'(pos:11582,aa:TERM)'
p834
asS'codon_start'
p835
(lp836
S'1'
asS'transl_table'
p837
(lp838
S'2'
asS'note'
p839
(lp840
S"TAA stop codon is completed by the addition of 3' A residues to the mRNA"
p841
asS'db_xref'
p842
(lp843
S'GI:5835117'
p844
aS'UniProtKB/Swiss-Prot:P48655'
p845
aS'GeneID:807852'
p846
asS'translation'
p847
(lp848
S'MLKIIIPTIMLMPLTWLSKKNMIWINTTTYSLLISLISLSLLNQPSNNSLNFSLMFFSDPLSAPLLVLTTWLLPLMLMASQHHLSKEPLIRKKLYITMLTMLQTFLIMTFTATELISFYILFEATLVPTLIIITRWGNQTERLNAGLYFLFYTLMGSLPLLVALISIQNLTGSLNFLLIQYWNQALPDSWSNIFLWLACMMAFMVKMPVYGLHLWLPKAHVEAPIAGSMVLAAILLKLGGYGMLRITTMLNPQTSFMAYPFLMLSLWGMIMTSSICLRQTDLKSLIAYSSVSHMALVIVAVLIQTPWSYMGATALMIAHGLTSSMLFCLANSNYERTHSRTMILARGLQTLLPLMAAWWLLASLTNLALPPSINLIGELFVVMSSFSWSNITIILMGANITITALYSLYMLITTQRGKYTHHINSIKPSFTRENALMALHMTPLLLLSLNPKIILGFTY'
p849
asS'gene'
p850
(lp851
S'ND4'
p852
asS'protein_id'
p853
(lp854
S'NP_007169.1'
p855
assbag1
(g96
g3
NtRp856
(dp857
g99
(lp858
sg101
S''
sg102
g103
sg44
g1
(g46
g3
NtRp859
(dp860
g49
Nsg50
g1
(g51
g52
I11651
tRp861
sg54
g1
(g51
g52
I11582
tRp862
sg56
I1
sg57
Nsbsg108
S'tRNA'
p863
sg110
(dp864
S'product'
p865
(lp866
S'tRNA-His'
p867
assbag1
(g96
g3
NtRp868
(dp869
g99
(lp870
sg101
S''
sg102
g103
sg44
g1
(g46
g3
NtRp871
(dp872
g49
Nsg50
g1
(g51
g52
I11711
tRp873
sg54
g1
(g51
g52
I11651
tRp874
sg56
I1
sg57
Nsbsg108
S'tRNA'
p875
sg110
(dp876
S'codon_recognized'
p877
(lp878
S'AGY'
p879
asS'product'
p880
(lp881
S'tRNA-Ser'
p882
assbag1
(g96
g3
NtRp883
(dp884
g99
(lp885
sg101
S''
sg102
g103
sg44
g1
(g46
g3
NtRp886
(dp887
g49
Nsg50
g1
(g51
g52
I11782
tRp888
sg54
g1
(g51
g52
I11712
tRp889
sg56
I1
sg57
Nsbsg108
S'tRNA'
p890
sg110
(dp891
S'codon_recognized'
p892
(lp893
S'CUN'
p894
asS'product'
p895
(lp896
S'tRNA-Leu'
p897
assbag1
(g96
g3
NtRp898
(dp899
g99
(lp900
sg101
S''
sg102
g103
sg44
g1
(g46
g3
NtRp901
(dp902
g49
Nsg50
g1
(g51
g52
I13603
tRp903
sg54
g1
(g51
g52
I11788
tRp904
sg56
I1
sg57
Nsbsg108
S'gene'
p905
sg110
(dp906
S'db_xref'
p907
(lp908
S'GeneID:807853'
p909
asS'gene'
p910
(lp911
S'ND5'
p912
assbag1
(g96
g3
NtRp913
(dp914
g99
(lp915
sg101
S''
sg102
g103
sg44
g1
(g46
g3
NtRp916
(dp917
g49
Nsg50
g1
(g51
g52
I13603
tRp918
sg54
g1
(g51
g52
I11788
tRp919
sg56
I1
sg57
Nsbsg108
S'CDS'
p920
sg110
(dp921
S'product'
p922
(lp923
S'NADH dehydrogenase subunit 5'
p924
asS'codon_start'
p925
(lp926
S'1'
asS'transl_table'
p927
(lp928
S'2'
asS'db_xref'
p929
(lp930
S'GI:5835118'
p931
aS'UniProtKB/Swiss-Prot:P48656'
p932
aS'GeneID:807853'
p933
asS'translation'
p934
(lp935
S'MFSSLMLVSLLVLTLPIMLSIFNTYKNSTFPHHVKNTISYAFITSLIPTMMFIHSGQETIISNWHWMTMQTLKLSLSFKLDYFSMIFVPVALFVTWSIMEFSLWYMHSDPYITRFFKYLLTFLITMMILVTANNLFQLFIGWEGVGIMSFLLIGWWYGRTDANTAALQAILYNRIGDIGFIMAMAWFLFNTNTWDLQQIFMLDPNLTNLPLLGLLLAATGKSAQFGLHPWLPSAMEGPTPVSALLHSSTMVVAGVFLLIRFHPLMENNKTIQSLTLCLGAITTLFTAICALTQNDIKKIIAFSTSSQLGLMIVTIGINQPYLAFLHICTHAFFKAMLFMCSGSIIHSLNDEQDIRKMGGLFNAMPFTTTSLIIGSLALTGIPFLTGFYSKDLIIETANTSYTNAWALLMTLIATSLTAVYSTRIIFFALLGQPRFLPLTSINENNPFLINSIKRLLIGSIFAGFFISNNIYPTTVPEMTMPTYMKLTALAVTILGFTLALELSLMTHNLKLEHSTNVFKFSNLLGYYPTIMHRLPPLANLSMSQKSASLLLDSIWLENILPKSISQFQMKTSILISTQKGQIKLYFLSFLITLTLSMLLFNLHE'
p936
asS'gene'
p937
(lp938
S'ND5'
p939
asS'protein_id'
p940
(lp941
S'NP_007170.1'
p942
assbag1
(g96
g3
NtRp943
(dp944
g99
(lp945
sg101
S''
sg102
g103
sg44
g1
(g46
g3
NtRp946
(dp947
g49
Nsg50
g1
(g51
g52
I14114
tRp948
sg54
g1
(g51
g52
I13586
tRp949
sg56
I-1
sg57
Nsbsg108
S'gene'
p950
sg110
(dp951
S'db_xref'
p952
(lp953
S'GeneID:807848'
p954
asS'gene'
p955
(lp956
S'ND6'
p957
assbag1
(g96
g3
NtRp958
(dp959
g99
(lp960
sg101
S''
sg102
g103
sg44
g1
(g46
g3
NtRp961
(dp962
g49
Nsg50
g1
(g51
g52
I14114
tRp963
sg54
g1
(g51
g52
I13586
tRp964
sg56
I-1
sg57
Nsbsg108
S'CDS'
p965
sg110
(dp966
S'product'
p967
(lp968
S'NADH dehydrogenase subunit 6'
p969
asS'codon_start'
p970
(lp971
S'1'
asS'transl_table'
p972
(lp973
S'2'
asS'db_xref'
p974
(lp975
S'GI:5835119'
p976
aS'UniProtKB/Swiss-Prot:P48657'
p977
aS'GeneID:807848'
p978
asS'translation'
p979
(lp980
S'MMTYIVFILSVIFVVSFVGFSSKPSPIYGGLVLIVSGGVGCGIIMNFGGSFLGLMVFLIYLGGMLVVFGYTTAMATEQYPEVWVSNTTVMGVFLLGLLMEVMLVLYVLKSEEVGVVFKFSGVGAWAIYDTGDSGAFSEEIMGAAALYSYGAWVVIVTGWSLLVGVLVILEVTRGD'
p981
asS'gene'
p982
(lp983
S'ND6'
p984
asS'protein_id'
p985
(lp986
S'NP_007171.1'
p987
assbag1
(g96
g3
NtRp988
(dp989
g99
(lp990
sg101
S''
sg102
g103
sg44
g1
(g46
g3
NtRp991
(dp992
g49
Nsg50
g1
(g51
g52
I14183
tRp993
sg54
g1
(g51
g52
I14114
tRp994
sg56
I-1
sg57
Nsbsg108
S'tRNA'
p995
sg110
(dp996
S'product'
p997
(lp998
S'tRNA-Glu'
p999
assbag1
(g96
g3
NtRp1000
(dp1001
g99
(lp1002
sg101
S''
sg102
g103
sg44
g1
(g46
g3
NtRp1003
(dp1004
g49
Nsg50
g1
(g51
g52
I15327
tRp1005
sg54
g1
(g51
g52
I14187
tRp1006
sg56
I1
sg57
Nsbsg108
S'gene'
p1007
sg110
(dp1008
S'db_xref'
p1009
(lp1010
S'GeneID:807847'
p1011
asS'gene'
p1012
(lp1013
S'CYTB'
p1014
assbag1
(g96
g3
NtRp1015
(dp1016
g99
(lp1017
sg101
S''
sg102
g103
sg44
g1
(g46
g3
NtRp1018
(dp1019
g49
Nsg50
g1
(g51
g52
I15327
tRp1020
sg54
g1
(g51
g52
I14187
tRp1021
sg56
I1
sg57
Nsbsg108
S'CDS'
p1022
sg110
(dp1023
S'product'
p1024
(lp1025
S'cytochrome b'
p1026
asS'codon_start'
p1027
(lp1028
S'1'
asS'transl_table'
p1029
(lp1030
S'2'
asS'db_xref'
p1031
(lp1032
S'GI:5835120'
p1033
aS'UniProtKB/Swiss-Prot:P48665'
p1034
aS'GeneID:807847'
p1035
asS'translation'
p1036
(lp1037
S'MTNIRKSHPLIKIINHSFIDLPAPSNISSWWNFGSLLGICLILQILTGLFLAMHYTSDTTTAFSSVTHICRDVNYGWIIRYLHANGASMFFICLFIHVGRGLYYGSYTFLETWNIGIILLFTVMATAFMGYVLPWGQMSFWGATVITNLLSAIPYIGTTLVEWIWGGFSVDKATLTRFFAFHFILPFIITALVVVHLLFLHETGSNNPSGIPSDMDKIPFHPYYTIKDILGLLLLILLLLTLVLFSPDLLGDPDNYTPANPLSTPPHIKPEWYFLFAYAILRSIPNKLGGVLALILSILILALIPTLHMSKQRSMMFRPLSQCVFWLLVADLLTLTWIGGQPVEHPYVIIGQLASILYFSLILIFMPLASTIENNLLKW'
p1038
asS'gene'
p1039
(lp1040
S'CYTB'
p1041
asS'protein_id'
p1042
(lp1043
S'NP_007172.1'
p1044
assbag1
(g96
g3
NtRp1045
(dp1046
g99
(lp1047
sg101
S''
sg102
g103
sg44
g1
(g46
g3
NtRp1048
(dp1049
g49
Nsg50
g1
(g51
g52
I15401
tRp1050
sg54
g1
(g51
g52
I15327
tRp1051
sg56
I1
sg57
Nsbsg108
S'tRNA'
p1052
sg110
(dp1053
S'product'
p1054
(lp1055
S'tRNA-Thr'
p1056
assbag1
(g96
g3
NtRp1057
(dp1058
g99
(lp1059
sg101
S''
sg102
g103
sg44
g1
(g46
g3
NtRp1060
(dp1061
g49
Nsg50
g1
(g51
g52
I15468
tRp1062
sg54
g1
(g51
g52
I15402
tRp1063
sg56
I-1
sg57
Nsbsg108
S'tRNA'
p1064
sg110
(dp1065
S'product'
p1066
(lp1067
S'tRNA-Pro'
p1068
assbag1
(g96
g3
NtRp1069
(dp1070
g99
(lp1071
sg101
S''
sg102
g103
sg44
g1
(g46
g3
NtRp1072
(dp1073
g49
Nsg50
g1
(g51
g52
I16660
tRp1074
sg54
g1
(g51
g52
I15468
tRp1075
sg56
I1
sg57
Nsbsg108
S'misc_feature'
p1076
sg110
(dp1077
S'note'
p1078
(lp1079
S'control region'
p1080
assbasS'_seq'
p1081
g1
(cBio.Seq
Seq
p1082
g3
NtRp1083
(dp1084
S'alphabet'
p1085
g1
(cBio.Alphabet.IUPAC
IUPACAmbiguousDNA
p1086
g3
NtRp1087
sS'_data'
p1088
S'GTTAATGTAGCTTAATAATATAAAGCAAGGCACTGAAAATGCCTAGATGAGTATTCTTACTCCATAAACACATAGGCTTGGTCCTAGCCTTTTTATTAGTTATTAATAGAATTACACATGCAAGTATCCGCACCCCAGTGAGAATGCCCTCTAAATCACGTCTCTACGATTAAAAGGAGCAGGTATCAAGCACACTAGAAAGTAGCTCATAACACCTTGCTCAGCCACACCCCCACGGGACACAGCAGTGATAAAAATTAAGCTATGAACGAAAGTTCGACTAAGTCATATTAAATAAGGGTTGGTAAATTTCGTGCCAGCCACCGCGGTCATACGATTAACCCAAATTAATAAATCTCCGGCGTAAAGCGTGTCAAAGACTAATACCAAAATAAAGTTAAAACCCAGTTAAGCCGTAAAAAGCTACAACCAAAGTAAAATAGACTACGAAAGTGACTTTAATACCTCTGACTACACGATAGCTAAGACCCAAACTGGGATTAGATACCCCACTATGCTTAGCCCTAAACTAAAATAGCTTACCACAACAAAGCTATTCGCCAGAGTACTACTAGCAACAGCCTAAAACTCAAAGGACTTGGCGGTGCTTTACATCCCTCTAGAGGAGCCTGTTCCATAATCGATAAACCCCGATAAACCCCACCATCCCTTGCTAATTCAGCCTATATACCGCCATCTTCAGCAAACCCTAAACAAGGTACCGAAGTAAGCACAAATATCCAACATAAAAACGTTAGGTCAAGGTGTAGCCCATGGGATGGAGAGAAATGGGCTACATTTTCTACCCTAAGAACAAGAACTTTAACCCGGACGAAAGTCTCCATGAAACTGGAGACTAAAGGAGGATTTAGCAGTAAATTAAGAATAGAGAGCTTAATTGAATCAGGCCATGAAGCGCGCACACACCGCCCGTCACCCTCCTTAAATATCACAAATCATAACATAACATAAAACCGTGACCCAAACATATGAAAGGAGACAAGTCGTAACAAGGTAAGTATACCGGAAGGTGTACTTGGATAACCAAAGTGTAGCTTAAACAAAGCATCCAGCTTACACCTAGAAGATTTCACTCAAAATGAACACTTTGAACTAAAGCTAGCCCAAACAATACCTAATTCAATTACCCTTAGTCACTTAACTAAAACATTCACCAAACCATTAAAGTATAGGAGATAGAAATTTTAACTTGGCGCTATAGAGAAAGTACCGTAAGGGAACGATGAAAGATGCATTAAAAGTACTAAACAGCAAAGCTTACCCCTTTTACCTTTTGCATAATGATTTAACTAGAATAAACTTAGCAAAGAGAACTTAAGCTAAGCACCCCGAAACCAGACGAGCTACCTATGAACAGTTACAAATGAACCAACTCATCTATGTCGCAAAATAGTGAGAAGATTCGTAGGTAGAGGTGAAAAGCCCAACGAGCCTGGTGATAGCTGGTTGTCCAGAAACAGAATTTCAGTTCAAATTTAAATTTACCTAAAAACTACTCAATTCTAATGTAAATTTAAATTATAGTCTAAAAAGGTACAGCTTTTTAGATACAGGTTACAACCTTCATTAGAGAGTAAGAACAAGATAAACCCATAGTTGGCTTAAAAGCAGCCATCAATTAAGAAAGCGTTCAAGCTCAACGACACATCTATCTTAATCCCAACAATCAACCCAAACTAACTCCTAATCTCATACTGGACTATTCTATCAACACATAGAAGCAATAATGTTAATATGAGTAACAAGAATTATTTCTCCTTGCATAAGCTTATATCAGAACGAATACTCACTGATAGTTAACAACAAGATAGGGATAATCCAAAAACTAATCATCTATTTAAACCATTGTTAACCCAACACAGGCATGCATCTATAAGGAAAGATTAAAAGAAGTAAAAGGAACTCGGCAAACACAAACCCCGCCTGTTTACCAAAAACATCACCTCTAGCATTTCCAGTATTAGAGGCACTGCCTGCCCAGTGACATCTGTTTAAACGGCCGCGGTATCCTAACCGTGCAAAGGTAGCATAATCACTTGTTCCCTAAATAGGGACTTGTATGAATGGCCACACGAGGGTTTTACTGTCTCTTACTTCCAATCAGTGAAATTGACCTTCCCGTGAAGAGGCGGGAATGACTAAATAAGACGAGAAGACCCTATGGAGCTTTAATTAACTGATTCACAAAAAACAACACACAAACCTTAACCTTCAGGGACAACAAAACTTTTGATTGAATCAGCAATTTCGGTTGGGGTGACCTCGGAGAACAAAACAACCTCCGAGTGATTTAAATCCAGACTAACCAGTCAAAATATATAATCACTTATTGATCCAAACCATTGATCAACGGAACAAGTTACCCTAGGGATAACAGCGCAATCCTATTCCAGAGTCCATATCGACAATTAGGGTTTACGACCTCGATGTTGGATCAAGACATCCTAATGGTGCAACCGCTATTAAGGGTTCGTTTGTTCAACGATTAAAGTCTTACGTGATCTGAGTTCAGACCGGAGTAATCCAGGTCGGTTTCTATCTATTCTATACTTTTCCCAGTACGAAAGGACAAGAAAAGTAGGGCCCACTTTACAAGAAGCGCCCTCAAACTAATAGATGACATAATCTAAATCTAACTAATTTATAACTTCTACCGCCCTAGAACAGGGCTCGTTAGGGTGGCAGAGCCCGGAAATTGCATAAAACTTAAACCTTTACACTCAGAGGTTCAACTCCTCTCCCTAACAACATGTTCATAATTAACGTCCTCCTCCTAATTGTCCCAATCTTGCTCGCCGTAGCATTCCTCACACTAGTTGAACGAAAAGTCTTAGGCTATATGCAACTTCGCAAAGGACCCAACATCGTAGGCCCCTATGGCCTACTACAACCTATTGCCGATGCCCTCAAACTATTTATCAAAGAGCCACTACAACCACTAACATCATCGACATCCATATTCATCATCGCACCAATCCTAGCCCTAACCCTGGCCTTAACCATATGAATCCCTCTGCCCATACCATACCCACTAATCAACATAAACCTAGGAATTCTATTCATACTAGCCATGTCCAGCCTAGCTGTCTACTCAATCCTTTGATCAGGATGGGCCTCAAACTCAAAATACGCCCTAATTGGAGCTCTACGAGCAGTAGCACAAACCATCTCATACGAAGTAACTCTAGCAATCATCCTACTCTCAGTCCTCCTAATAAGCGGATCATTCACATTATCAACACTTATTATTACCCAAGAATACCTCTGATTAATCTTCCCATCATGACCCTTAGCCATAATGTGATTCATCTCAACATTAGCCGAAACCAACCGAGCTCCATTTGACCTAACAGAAGGAGAATCAGAACTCGTCTCTGGATTCAACGTTGAATACGCAGCCGGCCCATTTGCTCTATTCTTCCTAGCAGAATACGCAAACATCATCATGATAAACATCTTCACAACAACCCTATTTCTAGGAGCATTTCACAACCCCTACCTGCCAGAACTCTACTCAATTAATTTCACCATTAAAGCTCTCCTTCTAACATGTTCCTTCCTATGAATCCGAGCATCCTACCCACGATTCCGATATGACCAACTTATACACCTCCTATGAAAGAACTTCCTACCACTCACACTAGCCCTCTGCATATGACACGTCTCACTTCCAATCATACTATCCAGCATCCCACCACAAACATAGGAAATATGTCTGACAAAAGAGTTACTTTGATAGAGTAAAACATAGAGGCTCAAACCCTCTTATTTCTAGAACTACAGGAATTGAACCTGCTCCTGAGAATTCAAAATCCTCCGTGCTACCGAATTACACCATGTCCTACAAGTAAGGTCAGCTAAATAAGCTATCGGGCCCATACCCCGAAAATGTTGGATTACACCCTTCCCGTACTAATAAATCCCCTTATCTTCACAACTATTCTAATAACAGTTCTTCTAGGAACTATAATCGTTATAATAAGCTCACACTGACTAATAATCTGAATCGGATTTGAAATAAATCTACTAGCCATTATCCCTATCCTAATAAAAAAGTACAATCCCCGAACCATAGAAGCCTCCACCAAATATTTTCTAACCCAAGCCACCGCATCAATACTCCTCATAATAGCGATCATCATTAACCTCATACACTCAGGCCAATGAACAATCACAAAAGTCTTCAACCCCACAGCGTCCATCATTATAACTTCAGCTCTCGCCATAAAACTTGGACTCACACCATTCCACTTCTGAGTACCCGAAGTCACACAGGGCATCTCATTAACATCAGGTCTCATCCTACTTACATGACAAAAACTAGCCCCAATATCAATCCTATATCAAATCTCACCCTCAATTAACCTAAATATCTTATTAACTATAGCCGTACTGTCAATCCTAGTAGGAGGCTGAGGCGGTCTCAACCAAACCCAACTACGAAAAATCATAGCATACTCGTCAATCGCGCATATAGGATGAATAACAGCTGTCCTAGTATATAACCCAACACTAACAATACTAAACATATTAATTTACATTATAATAACACTCACAATATTCATACTATTTATCCACAGCTCCTCTACTACAACACTATCACTCTCCCACACATGAAACAAAATACCTCTAACCACTACACTAATCTTAATTACCTTACTATCCATAGGAGGCCTCCCCCCACTATCAGGATTCATACCCAAATGAATAATCATTCAAGAGCTCACCAAAAATAGCAGCATCATCCTCCCCACACTAATAGCCATTATAGCACTACTCAACCTCTACTTCTACATACGACTAACCTATTCCACCTCACTGACCATATTCCCATCCACAAACAACATAAAAATAAAATGACAATTCGAAACCAAACGAATTACTCTCTTACCCCCGTTAATTGTTATATCCTCCCTACTCCTCCCCCTAACCCCCATACTATCAATTTTGGACTAGGAATTTAGGTTAACATCCCAGACCAAGAGCCTTCAAAGCTCTAAGCAAGTGAATCCACTTAATTCCTGCATACTAAGGACTGCGAGACTCTATCTCACATCAATTGAACGCAAATCAAACTCTTTTATTAAGCTAAGCCCTTACTAGATTGGTGGGCTACCATCCCACGAAATTTTAGTTAACAGCTAAATACCCTAATCAACTGGCTTCAATCTACTTCTCCCGCCGCCTAGAAAAAAAGGCGGGAGAAGCCCCGGCAGAAATTGAAGCTGCTCCTTTGAATTTGCAATTCAATGTGAAAATTCACCACGGGACTTGATAAGAAGAGGATTCCAACCCCTGTCTTTAGATTTACAGTCTAATGCTTACTCAGCCATCTTACCTATGTTCATCAACCGCTGACTATTTTCAACTAACCACAAAGACATCGGCACTCTGTACCTCCTATTCGGCGCTTGAGCTGGAATAGTAGGAACTGCCCTAAGCCTCCTAATCCGTGCTGAATTAGGCCAACCTGGGACCCTACTAGGAGATGATCAGATCTACAATGTCATTGTAACCGCCCATGCATTCGTAATAATTTTCTTTATGGTCATACCCATTATAATCGGAGGATTCGGAAACTGATTAGTCCCCCTGATAATTGGAGCACCTGATATAGCTTTCCCCCGAATAAACAACATAAGCTTCTGATTACTTCCCCCATCATTCCTACTTCTTCTCGCTTCCTCAATAATTGAAGCAGGTGCCGGAACAGGCTGAACCGTATATCCTCCTCTAGCTGGAAATCTGGCGCATGCAGGAGCCTCTGTTGACTTAACCATTTTCTCTCTCCACCTAGCTGGGGTGTCCTCGATTTTAGGTGCCATCAACTTTATTACCACAATCATTAACATAAAACCACCAGCCCTATCCCAATATCAAACCCCCCTATTCGTTTGATCTGTCCTTATTACGGCAGTACTCCTTCTCCTAGCCCTCCCGGTCCTAGCAGCAGGCATTACCATGCTTCTCACAGACCGTAACCTGAACACTACTTTCTTCGACCCCGCAGGAGGAGGGGATCCAATCCTTTATCAACACCTATTCTGATTCTTCGGACACCCCGAAGTCTATATTCTTATCCTACCAGGCTTCGGTATAATCTCACACATCGTCACATACTACTCAGGTAAAAAGGAACCTTTTGGCTACATGGGTATAGTGTGAGCTATAATATCCATTGGCTTTCTAGGCTTCATCGTATGGGCTCACCACATGTTTACAGTAGGGATAGACGTTGACACACGAGCATACTTCACATCAGCTACCATAATCATCGCTATCCCTACTGGTGTAAAAGTATTCAGCTGACTAGCCACCCTGCACGGAGGAAATATCAAATGATCTCCAGCTATACTCTGAGCTCTAGGCTTCATCTTCTTATTCACAGTAGGAGGTCTAACAGGAATCGTCCTAGCTAACTCATCCCTAGATATTGTTCTCCACGATACTTATTATGTAGTAGCACATTTCCATTATGTCCTGTCTATAGGAGCAGTCTTCGCCATTATGGGGGGATTTGTACACTGATTCCCTCTATTCTCAGGATACACACTCAACCAAACCTGAGCAAAAATCCACTTTACAATTATATTCGTAGGGGTAAATATAACCTTCTTCCCACAACATTTCCTTGGCCTCTCAGGAATGCCACGACGCTATTCTGATTATCCAGACGCATATACAACATGAAATACCATCTCATCCATAGGATCTTTTATCTCACTTACAGCAGTGATACTAATAATTTTCATAATTTGAGAAGCGTTCGCATCCAAACGAGAAGTGTCTACAGTAGAATTAACCTCAACTAATCTGGAATGACTACACGGATGCCCCCCACCATACCACACATTTGAAGAACCCACCTACGTAAACCTAAAATAAGAAAGGAAGGAATCGAACCCCCTCTAACTGGTTTCAAGCCAATATCATAACCACTATGTCTTTCTCCATCAATTGAGGTATTAGTAAAAATTACATGACTTTGTCAAAGTTAAATTATAGGTTAAACCCCTATATACCTCTATGGCCTACCCCTTCCAACTAGGATTCCAAGACGCAACATCCCCTATTATAGAAGAACTCCTACACTTCCACGACCACACACTAATAATCGTATTCCTAATTAGCTCTCTAGTATTATATATTATCTCATCAATACTAACAACTAAATTAACCCATACCAGCACCATAGATGCTCAAGAAGTAGAGACAATTTGAACGATTTTACCAGCCATCATCCTTATTCTAATCGCCCTCCCATCCCTACGAATTCTATATATAATAGATGAAATCAATAATCCGTCCCTCACAGTCAAAACAATAGGCCACCAATGATACTGAAGCTACGAGTATACCGATTACGAAGACTTGACCTTTGACTCCTACATGATCCCCACATCAGACCTAAAACCAGGAGAATTACGTCTTCTAGAAGTCGACAATCGAGTGGTTCTCCCCATAGAAATAACCATCCGAATGCTAATTTCATCCGAAGACGTCCTACACTCATGAGCTGTGCCCTCCCTAGGCCTAAAAACAGACGCTATCCCTGGGCGCCTAAATCAGACAACTCTCGTGGCCTCTCGACCAGGACTTTACTACGGTCAATGCTCAGAGATCTGCGGATCAAACCACAGCTTTATACCAATTGTCCTTGAACTAGTTCCACTGAAACACTTCGAAGAATGATCTGCATCAATATTATAAAGTCACTAAGAAGCTATTATAGCATTAACCTTTTAAGTTAAAGATTGAGGGTTCAACCCCCTCCCTAGTGATATGCCACAGTTGGATACATCAACATGATTTATTAATATCGTCTCAATAATCCTAACTCTATTTATTGTATTTCAACTAAAAATCTCAAAGCACTCCTATCCGACACACCCAGAAGTAAAGACAACCAAAATAACAAAACACTCTGCCCCTTGAGAATCAAAATGAACGAAAATCTATTCGCCTCTTTCGCTACCCCAACAATAGTAGGCCTCCCTATTGTAATTCTGATCATCATATTTCCCAGCATCCTATTCCCCTCACCCAACCGACTAATCAACAATCGCCTAATCTCAATTCAACAATGGCTAGTCCAACTTACATCAAAACAAATAATAGCTATCCATAACAGCAAAGGACAAACCTGAACTCTTATACTCATATCACTGATCCTATTCATTGGCTCAACAAACTTATTAGGCCTACTACCTCACTCATTTACACCAACAACACAACTATCAATAAACCTAGGCATAGCTATTCCCCTATGGGCAGGGACAGTATTCATAGGCTTTCGTCACAAAACAAAAGCAGCCCTAGCCCACTTTCTACCTCAAGGGACGCCCATTTTCCTCATCCCCATACTAGTAATTATCGAGACTATCAGCCTATTTATTCAACCTGTAGCCCTAGCCGTGCGGCTAACCGCTAACATTACCGCCGGACACCTCCTAATACACCTCATCGGAGGGGCAACACTAGCCCTCATAAGCATCAGCCCCTCAACAGCCCTTATTACGTTTATCATCCTAATTCTACTAACTATCCTCGAATTCGCAGTAGCTATAATCCAAGCCTACGTATTCACTCTCCTGGTAAGCCTTTACTTACACGACAACACCTAATGACCCACCAAACCCACGCTTACCACATAGTAAACCCCAGCCCATGACCACTTACAGGAGCCCTATCAGCCCTCCTGATAACATCAGGACTAGCCATGTGATTTCACTTTAACTCAACCTTACTTCTAGCTATAGGGCTATTAACTAACATCCTTACCATATATCAATGATGACGAGACATCATCCGAGAAAGCACATTCCAAGGCCATCACACATCAATCGTTCAAAAGGGACTCCGATATGGCATAATCCTTTTTATTATCTCAGAAGTCTTCTTCTTCTCTGGCTTCTTCTGAGCCTTTTACCACTCAAGCCTAGCCCCCACACCCGAACTAGGCGGCTGCTGACCACCCACAGGTATCCACCCCTTAAACCCCCTAGAAGTCCCCTTACTCAACACCTCAGTGCTCCTAGCATCTGGAGTCTCTATCACCTGAGCCCACCATAGCCTAATAGAAGGAAACCGTAAAAATATGCTCCAAGGCCTATTCATCACAATTTCACTAGGCGTATACTTCACCCTTCTCCAAGCCTCAGAATACTATGAAGCCTCATTTACTATTTCAGATGGAGTATACGGATCAACATTTTTCGTAGCAACAGGGTTCCACGGACTACACGTAATTATCGGATCTACCTTCCTCATTGTATGTTTCCTACGCCAACTAAAATTCCACTTTACATCCAGCCACCACTTCGGATTCGAAGCAGCCGCTTGATACTGACACTTCGTCGACGTAGTCTGACTATTCTTGTACGTCTCTATTTATTGATGAGGATCCTATTCTTTTAGTATTGACCAGTACAATTGACTTCCAATCAATCAGCTTCGGTATAACCCGAAAAAGAATAATAAACCTCATACTGACACTCCTCACTAACACATTACTAGCCTCGCTACTCGTACTCATCGCATTCTGACTACCACAACTAAACATCTATGCAGAAAAAACCAGCCCATATGAATGCGGATTTGACCCTATAGGGTCAGCACGCCTCCCCTTCTCAATAAAATTTTTCTTAGTGGCCATTACATTTCTGCTATTCGACTTAGAAATTGCCCTCCTATTACCCCTTCCATGAGCATCCCAAACAACTAACCTAAACACTATACTTATCATAGCACTAGTCCTAATCTCTCTTCTAGCCATCAGCCTAGCCTACGAATGAACCCAAAAAGGACTAGAATGAACTGAGTATGGTAATTAGTTTAAACCAAAACAAATGATTTCGACTCATTAAACTATGATTAACTTCATAATTACCAACATGTCACTAGTCCATATTAATATCTTCCTAGCATTCACAGTATCCCTCGTAGGCCTACTAATGTACCGATCCCACCTAATATCCTCACTCCTATGCCTAGAAGGAATAATACTATCACTATTCGTCATAGCAACCATAATAGTCCTAAACACCCACTTCACACTAGCTAGTATAATACCTATCATCTTACTAGTATTTGCTGCCTGCGAACGAGCTCTAGGATTATCCCTACTAGTCATAGTCTCCAATACTTATGGAGTAGACCACGTACAAAACCTTAACCTCCTCCAATGCTAAAAATTATCATTCCCACAATCATACTTATGCCCCTTACATGACTATCAAAAAAGAATATAATCTGAATCAACACTACAACCTATAGTCTATTAATCAGCCTTATCAGCCTATCCCTCCTAAACCAACCTAGCAACAATAGCCTAAACTTCTCACTAATATTCTTCTCCGATCCCCTATCAGCCCCACTTCTGGTGTTGACAACATGACTACTGCCACTAATACTCATAGCCAGCCAACACCATCTATCTAAGGAACCACTAATCCGAAAAAAACTCTACATCACCATGCTAACCATACTTCAAACTTTCCTAATCATGACTTTTACCGCCACAGAACTAATCTCCTTCTACATCCTATTTGAAGCCACATTAGTTCCAACACTAATTATCATCACCCGCTGAGGCAACCAAACAGAACGCCTGAACGCAGGCCTCTACTTCCTATTCTACACACTAATAGGTTCCCTCCCACTCTTAGTTGCACTAATCTCTATCCAAAACCTAACAGGCTCACTAAACTTCCTATTAATTCAATACTGAAACCAAGCACTACCCGACTCTTGATCCAATATTTTCCTATGACTAGCATGTATAATAGCATTCATAGTCAAAATACCGGTATATGGTCTTCACCTCTGACTCCCAAAAGCCCATGTAGAAGCCCCAATTGCCGGATCCATAGTGCTAGCAGCCATTCTACTAAAACTAGGAGGCTACGGAATACTACGAATTACAACAATACTAAACCCCCAAACTAGCTTTATAGCCTACCCCTTCCTCATACTATCCCTGTGAGGAATAATCATAACTAGTTCCATCTGCTTGCGACAAACCGATCTAAAATCACTTATTGCATACTCCTCTGTCAGCCACATAGCCCTAGTAATCGTAGCCGTCCTCATCCAAACACCATGAAGTTATATAGGAGCTACAGCCCTAATAATCGCTCACGGCCTTACATCATCAATACTATTCTGCCTGGCAAACTCAAATTACGAACGTACCCATAGCCGAACTATAATCCTAGCCCGCGGGCTTCAAACACTTCTTCCCCTTATAGCAGCCTGATGACTATTAGCCAGCCTAACCAACCTGGCCCTCCCTCCCAGCATTAACCTAATTGGAGAGCTATTCGTAGTAATATCATCATTCTCATGATCAAATATTACCATTATCCTAATAGGAGCCAATATCACCATCACCGCCCTCTACTCCCTATACATACTAATCACAACACAACGAGGGAAATACACACACCATATCAACAGCATTAAACCTTCATTTACACGAGAAAACGCACTCATGGCCCTCCACATGACTCCCCTACTACTCCTATCACTTAACCCTAAAATTATCCTAGGCTTTACGTACTGTAAATATAGTTTAACAAAAACACTAGATTGTGGATCTAGAAACAGAAACTTAATATTTCTTATTTACCGAGAAAGTATGCAAGAACTGCTAATTCATGCCCCCATGTCCAACAAACATGGCTCTCTCAAACTTTTAAAGGATAGGAGCTATCCGTTGGTCTTAGGAACCAAAAAATTGGTGCAACTCCAAATAAAAGTAATCAACATGTTCTCCTCCCTCATACTAGTTTCACTATTAGTACTAACCCTCCCAATCATATTATCAATCTTCAATACCTACAAAAACAGCACGTTCCCGCATCATGTAAAAAACACTATCTCATATGCCTTCATTACTAGCCTAATTCCCACTATAATATTTATTCACTCTGGACAAGAAACAATTATCTCAAACTGACACTGAATAACCATACAAACCCTCAAACTATCCCTAAGCTTCAAACTAGATTACTTCTCAATAATTTTCGTACCAGTAGCCCTATTCGTAACATGATCTATTATGGAATTCTCCCTATGATACATGCACTCAGATCCTTACATTACTCGATTTTTTAAATACTTACTTACATTCCTCATCACTATAATAATTCTAGTCACAGCTAACAACCTTTTCCAACTGTTCATCGGATGGGAGGGAGTAGGCATCATGTCATTCTTACTAATCGGATGATGATACGGCCGAACAGATGCCAACACCGCGGCCCTTCAAGCAATCCTTTATAACCGCATCGGGGATATCGGCTTCATCATGGCCATAGCCTGATTCCTATTCAACACCAACACATGAGACCTCCAACAAATCTTCATACTCGACCCCAACCTTACCAACCTCCCGCTCCTAGGCCTCCTCCTAGCCGCAACTGGCAAATCCGCTCAATTTGGACTCCACCCATGACTTCCTTCAGCCATAGAGGGCCCTACACCAGTCTCAGCCCTACTCCACTCCAGCACAATAGTTGTAGCAGGCGTCTTCCTGCTAATCCGCTTCCATCCACTAATAGAAAACAACAAAACAATCCAGTCACTTACCCTATGCCTAGGAGCCATCACCACACTATTCACAGCAATCTGCGCACTCACTCAAAACGATATCAAAAAAATCATTGCTTTCTCCACCTCCAGCCAACTAGGCCTGATAATCGTAACCATCGGTATCAATCAACCCTACCTAGCATTCCTCCACATTTGCACTCACGCATTCTTCAAAGCTATACTATTTATATGTTCCGGATCCATTATCCACAGCCTAAATGACGAGCAAGATATCCGAAAAATAGGCGGACTATTTAATGCAATACCCTTCACCACCACATCTCTAATTATTGGCAGCCTTGCACTCACCGGAATTCCTTTCCTCACAGGCTTCTACTCCAAAGACCTCATCATCGAAACCGCCAACACATCGTACACCAACGCCTGAGCCCTACTAATAACTCTCATTGCCACATCCCTCACAGCTGTCTACAGTACCCGAATCATCTTCTTTGCACTCCTAGGGCAACCCCGCTTCCTCCCTCTGACCTCAATCAACGAAAATAACCCCTTTCTAATTAACTCCATCAAACGCCTCTTAATTGGCAGCATTTTTGCCGGATTCTTCATCTCCAACAATATCTACCCCACAACCGTCCCAGAAATAACCATACCTACTTACATAAAACTCACCGCCCTCGCAGTAACCATCCTAGGATTTACACTAGCCCTAGAACTAAGCTTGATAACCCATAACTTAAAACTAGAACACTCCACCAACGTATTCAAATTCTCCAACCTCCTAGGATACTACCCAACAATTATACACCGACTCCCACCGCTCGCTAACCTATCAATAAGCCAAAAATCAGCATCACTTCTACTAGACTCAATCTGACTAGAAAACATCCTGCCAAAATCTATCTCCCAGTTCCAAATAAAAACCTCGATCCTAATTTCCACCCAAAAAGGACAAATCAAATTATATTTCCTCTCATTCCTCATCACCCTTACCCTAAGCATACTACTTTTTAATCTCCACGAGTAACCTCTAAAATTACCAAGACCCCAACAAGCAACGATCAACCAGTCACAATCACAACCCAAGCCCCATAACTATACAATGCAGCAGCCCCTATAATTTCCTCACTAAACGCCCCAGAATCTCCAGTATCATAAATAGCTCAAGCCCCCACACCACTAAACTTAAACACTACCCCCACTTCCTCACTCTTCAGAACATATAAAACCAACATAACCTCCATCAACAACCCTAAAAGAAATACCCCCATAACAGTCGTATTAGACACCCATACCTCAGGATACTGCTCAGTAGCCATAGCCGTTGTATAACCAAAAACAACCAACATTCCTCCCAAATAAATCAAAAACACCATCAACCCCAAAAAGGACCCTCCAAAATTCATAATAATACCACAACCTACCCCTCCACTTACAATCAGCACTAAACCCCCATAAATAGGTGAAGGTTTTGAAGAAAACCCCACAAAACTAACAACAAAAATAACACTCAAAATAAACACAATATATGTCATCATTATTCCCACGTGGAATCTAACCACGACCAATGACATGAAAAATCATCGTTGTATTTCAACTATAAGAACACCAATGACAAACATCCGGAAATCTCACCCACTAATTAAAATCATCAATCACTCTTTTATTGACCTACCAGCCCCCTCAAACATTTCATCATGATGAAACTTCGGCTCCCTCCTAGGAATCTGCCTAATCCTCCAAATCTTAACAGGCCTATTCCTAGCCATACACTACACATCAGACACGACAACTGCCTTCTCATCCGTCACTCACATCTGCCGAGACGTTAACTACGGATGAATTATTCGCTACCTCCATGCCAACGGAGCATCAATATTTTTTATCTGCCTCTTCATTCACGTAGGACGCGGCCTCTACTACGGCTCTTACACATTCCTAGAGACATGAAACATTGGAATCATCCTACTTTTCACAGTTATAGCTACAGCATTCATGGGCTATGTCCTACCATGAGGCCAAATATCCTTTTGAGGAGCAACAGTCATCACGAACCTCCTATCAGCAATTCCCTACATCGGTACTACCCTCGTCGAGTGAATCTGAGGTGGATTCTCAGTAGACAAAGCCACCCTTACCCGATTTTTTGCTTTCCACTTCATCCTACCCTTCATCATCACAGCCCTGGTAGTCGTACATTTACTATTTCTTCACGAAACAGGATCTAATAACCCCTCAGGAATCCCATCCGATATGGACAAAATCCCATTCCACCCATATTATACAATTAAAGACATCCTAGGACTCCTCCTCCTGATCTTGCTCCTACTAACTCTAGTATTATTCTCCCCCGACCTCCTAGGAGACCCAGACAACTACACCCCAGCTAACCCTCTCAGCACTCCCCCTCATATTAAACCAGAATGGTACTTCCTGTTTGCCTACGCCATCCTACGCTCCATTCCCAACAAACTAGGCGGCGTATTAGCCCTAATCCTCTCCATCCTGATCCTAGCACTCATCCCCACCCTCCACATATCAAAACAACGAAGCATAATATTCCGGCCTCTCAGCCAATGCGTATTCTGACTCTTAGTGGCAGACTTACTGACACTAACATGAATCGGCGGACAGCCAGTGGAACACCCATACGTAATTATCGGCCAACTGGCCTCAATCCTCTACTTCTCCCTAATTCTCATTTTTATACCACTCGCAAGCACCATCGAAAACAATCTTCTAAAATGAAGAGTCCCTGTAGTATATCGCACATTACCCTGGTCTTGTAAACCAGAAAAGGGGGAAAACGTTTCCTCCCAAGGACTATCAAGGAAGAAGCTCTAGCTCCACCATCAACACCCAAAGCTGAAATTCTACTTAAACTATTCCTTGATTTCTTCCCCTAAACGACAACAATTTACCCTCATGTGCTATGTCAGTATCAGATTATACCCCCACATAACACCATACCCACCTGACATGCAATATCTTATGAATGGCCTATGTACGTCGTGCATTAAATTGTCTGCCCCATGAATAATAAGCATGTACATAATATCATTTATCTTACATAAGTACATTATATTATTGATCGTGCATACCCCATCCAAGTCAAATCATTTCCAGTCAACACGCATATCACAGCCCATGTTCCACGAGCTTAATCACCAAGCCGCGGGAAATCAGCAACCCTCCCAACTACGTGTCCCAATCCTCGCTCCGGGCCCATCCAAACGTGGGGGTTTCTACAATGAAACTATACCTGGCATCTGGTTCTTTCTTCAGGGCCATTCCCACCCAACCTCGCCCATTCTTTCCCCTTAAATAAGACATCTCGATGGACTAATGACTAATCAGCCCATGCTCACACATAACTGTGATTTCATGCATTTGGTATCTTTTTATATTTGGGGATGCTATGACTCAGCTATGGCCGTCAAAGGCCTCGACGCAGTCAATTAAATTGAAGCTGGACTTAAATTGAACGTTATTCCTCCGCATCAGCAACCATAAGGTGTTATTCAGTCCATGGTAGCGGGACATAGGAAACAAGTGCACCTGTGCACCTGTGCACCTGTGCACCTGTGCACCTGTGCACCTGTGCACCTGTGCACCTGTGCACCTGTGCACCTGTGCACCTGTGCACCTGTGCACCTGTGCACCTGTGCACCTGTGCACCTGTGCACCTGTGCACCTGTGCACCTGTGCACCTGTGCACCTGTGCACCTGTGCACCTGTGCACCTGTGCACCTGTGCACCTGTGCACCTGTGCACCTGTGCACCTACCCGCGCAGTAAGCAAGTAATATAGCTTTCTTAATCAAACCCCCCCTACCCCCCATTAAACTCCACATATGTACATTCAACACAATCTTGCCAAACCCCAAAAACAAGACTAAACAATGCACAATACTTCATGAAGCTTAACCCTCGCATGCCAACCATAATAACTCAACACACCTAACAATCTTAACAGAACTTTCCCCCCGCCATTAATACCAACATGCTACTTTAATCAATAAAATTTCCATAGACAGGCATCCCCCTAGATCTAATTTTCTAAATCTGTCAACCCTTCTTCCCCC'
p1089
sbsS'_per_letter_annotations'
p1090
g1
(cBio.SeqRecord
_RestrictedDict
p1091
c__builtin__
dict
p1092
(dtRp1093
(dp1094
S'_length'
p1095
I16660
sbsg102
S'NC_001640.1'
p1096
sS'name'
p1097
S'NC_001640'
p1098
sb.