ccopy_reg
_reconstructor
p1
(cBio.SeqRecord
SeqRecord
p2
c__builtin__
object
p3
NtRp4
(dp5
S'dbxrefs'
p6
(lp7
S'Project:36381 BioProject:PRJNA36381'
p8
asS'description'
p9
S'Chamaeleo calyptratus mitochondrion, complete genome.'
p10
sS'annotations'
p11
(dp12
S'comment'
p13
S'REVIEWED REFSEQ: This record has been curated by NCBI staff. The\nreference sequence was derived from EF222192.\nCOMPLETENESS: full length.'
p14
sS'sequence_version'
p15
I1
sS'source'
p16
S'mitochondrion Chamaeleo calyptratus (veiled chameleon)'
p17
sS'taxonomy'
p18
(lp19
S'Eukaryota'
p20
aS'Metazoa'
p21
aS'Chordata'
p22
aS'Craniata'
p23
aS'Vertebrata'
p24
aS'Euteleostomi'
p25
aS'Lepidosauria'
p26
aS'Squamata'
p27
aS'Iguania'
p28
aS'Acrodonta'
p29
aS'Chamaeleonidae'
p30
aS'Chamaeleo'
p31
asS'keywords'
p32
(lp33
S''
asS'references'
p34
(lp35
g1
(cBio.SeqFeature
Reference
p36
g3
NtRp37
(dp38
g13
S''
sS'title'
p39
S'Socotra Island the forgotten fragment of Gondwana: Unmasking chameleon lizard history with complete mitochondrial genomic data'
p40
sS'consrtm'
p41
S''
sS'journal'
p42
S'Mol. Phylogenet. Evol. 49 (3), 1015-1018 (2008)'
p43
sS'location'
p44
(lp45
g1
(cBio.SeqFeature
FeatureLocation
p46
g3
NtRp47
(dp48
S'ref'
p49
NsS'_end'
p50
g1
(cBio.SeqFeature
ExactPosition
p51
c__builtin__
int
p52
I17433
tRp53
sS'_start'
p54
g1
(g51
g52
I0
tRp55
sS'_strand'
p56
NsS'ref_db'
p57
NsbasS'pubmed_id'
p58
S'18832039'
p59
sS'authors'
p60
S'Macey,J.R., Kuehl,J.V., Larson,A., Robinson,M.D., Ugurtas,I.H., Ananjeva,N.B., Rahman,H., Javed,H.I., Osman,R.M., Doumma,A. and Papenfuss,T.J.'
p61
sS'medline_id'
p62
S''
sbag1
(g36
g3
NtRp63
(dp64
g13
S''
sg39
S'Direct Submission'
p65
sg41
S'NCBI Genome Project'
p66
sg42
S'Submitted (09-APR-2009) National Center for Biotechnology Information, NIH, Bethesda, MD 20894, USA'
p67
sg44
(lp68
g1
(g46
g3
NtRp69
(dp70
g49
Nsg50
g1
(g51
g52
I17433
tRp71
sg54
g1
(g51
g52
I0
tRp72
sg56
Nsg57
Nsbasg58
S''
sg60
S''
sg62
S''
sbag1
(g36
g3
NtRp73
(dp74
g13
S''
sg39
S'Direct Submission'
p75
sg41
S''
sg42
S'Submitted (11-JAN-2007) Department of Biology, Merritt College, 12500 Campus Drive, Oakland, CA 94619, USA'
p76
sg44
(lp77
g1
(g46
g3
NtRp78
(dp79
g49
Nsg50
g1
(g51
g52
I17433
tRp80
sg54
g1
(g51
g52
I0
tRp81
sg56
Nsg57
Nsbasg58
S''
sg60
S'Macey,J.R., Kuehl,J.V., Larson,A., Hassapakis,C.L., Robinson,M., Ugurtas,I.H., Ananjeva,N.B., Rahman,H., Javed,H.I., Osman,R.M., Doumma,A. and Papenfuss,T.J.'
p82
sg62
S''
sbasS'accessions'
p83
(lp84
S'NC_012420'
p85
asS'data_file_division'
p86
S'VRT'
p87
sS'date'
p88
S'13-APR-2009'
p89
sS'organism'
p90
S'Chamaeleo calyptratus'
p91
sS'gi'
p92
S'225659331'
p93
ssS'features'
p94
(lp95
g1
(cBio.SeqFeature
SeqFeature
p96
g3
NtRp97
(dp98
S'sub_features'
p99
(lp100
sS'location_operator'
p101
S''
sS'id'
p102
S'<unknown id>'
p103
sg44
g1
(g46
g3
NtRp104
(dp105
g49
Nsg50
g1
(g51
g52
I17433
tRp106
sg54
g1
(g51
g52
I0
tRp107
sg56
I1
sg57
NsbsS'type'
p108
S'source'
p109
sS'qualifiers'
p110
(dp111
S'isolation_source'
p112
(lp113
S'elevation 480 m'
p114
asS'mol_type'
p115
(lp116
S'genomic DNA'
p117
asS'specimen_voucher'
p118
(lp119
S'MVZ236475; Museum of Vertebrate Zoology, University of California at Berkeley'
p120
asS'organelle'
p121
(lp122
S'mitochondrion'
p123
asS'db_xref'
p124
(lp125
S'taxon:179908'
p126
asS'country'
p127
(lp128
S'Yemen: Gwol Madram, WadiTuban, Lahij Governorate'
p129
asS'organism'
p130
(lp131
S'Chamaeleo calyptratus'
p132
asS'lat_lon'
p133
(lp134
S'13.331833 N 44.694168 E'
p135
assbag1
(g96
g3
NtRp136
(dp137
g99
(lp138
sg101
S''
sg102
g103
sg44
g1
(g46
g3
NtRp139
(dp140
g49
Nsg50
g1
(g51
g52
I71
tRp141
sg54
g1
(g51
g52
I0
tRp142
sg56
I1
sg57
Nsbsg108
S'tRNA'
p143
sg110
(dp144
S'product'
p145
(lp146
S'tRNA-Phe'
p147
assbag1
(g96
g3
NtRp148
(dp149
g99
(lp150
sg101
S''
sg102
g103
sg44
g1
(g46
g3
NtRp151
(dp152
g49
Nsg50
g1
(g51
g52
I998
tRp153
sg54
g1
(g51
g52
I71
tRp154
sg56
I1
sg57
Nsbsg108
S'rRNA'
p155
sg110
(dp156
S'note'
p157
(lp158
S'12S ribosomal RNA'
p159
asS'product'
p160
(lp161
S's-rRNA'
p162
assbag1
(g96
g3
NtRp163
(dp164
g99
(lp165
sg101
S''
sg102
g103
sg44
g1
(g46
g3
NtRp166
(dp167
g49
Nsg50
g1
(g51
g52
I1066
tRp168
sg54
g1
(g51
g52
I998
tRp169
sg56
I1
sg57
Nsbsg108
S'tRNA'
p170
sg110
(dp171
S'product'
p172
(lp173
S'tRNA-Val'
p174
assbag1
(g96
g3
NtRp175
(dp176
g99
(lp177
sg101
S''
sg102
g103
sg44
g1
(g46
g3
NtRp178
(dp179
g49
Nsg50
g1
(g51
g52
I2581
tRp180
sg54
g1
(g51
g52
I1066
tRp181
sg56
I1
sg57
Nsbsg108
S'rRNA'
p182
sg110
(dp183
S'note'
p184
(lp185
S'16S ribosomal RNA'
p186
asS'product'
p187
(lp188
S'l-rRNA'
p189
assbag1
(g96
g3
NtRp190
(dp191
g99
(lp192
sg101
S''
sg102
g103
sg44
g1
(g46
g3
NtRp193
(dp194
g49
Nsg50
g1
(g51
g52
I2655
tRp195
sg54
g1
(g51
g52
I2581
tRp196
sg56
I1
sg57
Nsbsg108
S'tRNA'
p197
sg110
(dp198
S'codon_recognized'
p199
(lp200
S'UUR'
p201
asS'product'
p202
(lp203
S'tRNA-Leu'
p204
assbag1
(g96
g3
NtRp205
(dp206
g99
(lp207
sg101
S''
sg102
g103
sg44
g1
(g46
g3
NtRp208
(dp209
g49
Nsg50
g1
(g51
g52
I3619
tRp210
sg54
g1
(g51
g52
I2656
tRp211
sg56
I1
sg57
Nsbsg108
S'gene'
p212
sg110
(dp213
S'db_xref'
p214
(lp215
S'GeneID:7670114'
p216
asS'gene'
p217
(lp218
S'ND1'
p219
assbag1
(g96
g3
NtRp220
(dp221
g99
(lp222
sg101
S''
sg102
g103
sg44
g1
(g46
g3
NtRp223
(dp224
g49
Nsg50
g1
(g51
g52
I3619
tRp225
sg54
g1
(g51
g52
I2656
tRp226
sg56
I1
sg57
Nsbsg108
S'CDS'
p227
sg110
(dp228
S'product'
p229
(lp230
S'NADH dehydrogenase subunit 1'
p231
asS'codon_start'
p232
(lp233
S'1'
asS'transl_table'
p234
(lp235
S'2'
asS'db_xref'
p236
(lp237
S'GI:226453501'
p238
aS'GeneID:7670114'
p239
asS'translation'
p240
(lp241
S'MKMYPLIINITNLLTTFIPILIAVAFLTLLERKTLSYMQLRKGPNIVGPQGILQPITDGMKLLIKEPVRPKQSSPIMFTAAPTLALTLSMFMWTPIPLPNPILTLNLGLLLLMTISSMMVYTTLLSGWASNSKYALMGALRAVAQMISYEITLGLILMCLTIQAGNYNLELFTTTQEKSWLIMTTWPMMMMWYVSTLAETNRAPFDLTEGESELVSGFNVEYTGGMFALLFLSEYTNIILMNALTCILFLNSGNILSNTFTPILMMKTLLLTMGFIWTRAAYPRFRYDQLMQLLWKQFLPLTLSMCLLYTMIPLTLAALP'
p242
asS'gene'
p243
(lp244
S'ND1'
p245
asS'protein_id'
p246
(lp247
S'YP_002791146.1'
p248
assbag1
(g96
g3
NtRp249
(dp250
g99
(lp251
sg101
S''
sg102
g103
sg44
g1
(g46
g3
NtRp252
(dp253
g49
Nsg50
g1
(g51
g52
I3686
tRp254
sg54
g1
(g51
g52
I3615
tRp255
sg56
I-1
sg57
Nsbsg108
S'tRNA'
p256
sg110
(dp257
S'product'
p258
(lp259
S'tRNA-Gln'
p260
assbag1
(g96
g3
NtRp261
(dp262
g99
(lp263
sg101
S''
sg102
g103
sg44
g1
(g46
g3
NtRp264
(dp265
g49
Nsg50
g1
(g51
g52
I3762
tRp266
sg54
g1
(g51
g52
I3694
tRp267
sg56
I1
sg57
Nsbsg108
S'tRNA'
p268
sg110
(dp269
S'note'
p270
(lp271
S"tRNA may be completed by the addition of a 3' A residue"
p272
asS'product'
p273
(lp274
S'tRNA-Ile'
p275
assbag1
(g96
g3
NtRp276
(dp277
g99
(lp278
sg101
S''
sg102
g103
sg44
g1
(g46
g3
NtRp279
(dp280
g49
Nsg50
g1
(g51
g52
I3828
tRp281
sg54
g1
(g51
g52
I3762
tRp282
sg56
I1
sg57
Nsbsg108
S'tRNA'
p283
sg110
(dp284
S'product'
p285
(lp286
S'tRNA-Met'
p287
assbag1
(g96
g3
NtRp288
(dp289
g99
(lp290
sg101
S''
sg102
g103
sg44
g1
(g46
g3
NtRp291
(dp292
g49
Nsg50
g1
(g51
g52
I4867
tRp293
sg54
g1
(cBio.SeqFeature
BeforePosition
p294
g52
I3828
tRp295
sg56
I1
sg57
Nsbsg108
S'gene'
p296
sg110
(dp297
S'db_xref'
p298
(lp299
S'GeneID:7670115'
p300
asS'gene'
p301
(lp302
S'ND2'
p303
assbag1
(g96
g3
NtRp304
(dp305
g99
(lp306
sg101
S''
sg102
g103
sg44
g1
(g46
g3
NtRp307
(dp308
g49
Nsg50
g1
(g51
g52
I4867
tRp309
sg54
g1
(g294
g52
I3828
tRp310
sg56
I1
sg57
Nsbsg108
S'CDS'
p311
sg110
(dp312
S'product'
p313
(lp314
S'NADH dehydrogenase subunit 2'
p315
asS'transl_except'
p316
(lp317
S'(pos:4867,aa:TERM)'
p318
asS'codon_start'
p319
(lp320
S'1'
asS'transl_table'
p321
(lp322
S'2'
asS'note'
p323
(lp324
S"start codon not determined; TAA stop codon is completed by the addition of 3' A residues to the mRNA"
p325
asS'db_xref'
p326
(lp327
S'GI:226453502'
p328
aS'GeneID:7670115'
p329
asS'translation'
p330
(lp331
S'LNLFTQMMVLSGLTTGTIITASSNHWLLAWSGLELNMLSMLAIMMKPKHPRTAEATIKYFLTQAIASTMMLFSGTMNAIQTGQWNTTQMTDEYACTMLLLAMTMKIGAAPIYFWLPEVMQGTTTMTALIIASWQKIAPITILFMTYNHLPPKITILIAITSAIIGGWGSINQTQMRKLMAYSSISNLGWTMVIFTISPHIAIINITIYITMIIPTFTIMKKASMKTLQDSTTMWTSSTTANITLTLMLLSISGLPPLTGFTPKLLILNELVMQNLTPVATMMAMSSLISVFFYIRTTYITTMTTPPIMTSNMMKWRLTSMQQKLTSTLIPLSLISLPLAPTLMHMV'
p332
asS'gene'
p333
(lp334
S'ND2'
p335
asS'protein_id'
p336
(lp337
S'YP_002791147.1'
p338
assbag1
(g96
g3
NtRp339
(dp340
g99
(lp341
sg101
S''
sg102
g103
sg44
g1
(g46
g3
NtRp342
(dp343
g49
Nsg50
g1
(g51
g52
I4939
tRp344
sg54
g1
(g51
g52
I4867
tRp345
sg56
I1
sg57
Nsbsg108
S'tRNA'
p346
sg110
(dp347
S'product'
p348
(lp349
S'tRNA-Trp'
p350
assbag1
(g96
g3
NtRp351
(dp352
g99
(lp353
sg101
S''
sg102
g103
sg44
g1
(g46
g3
NtRp354
(dp355
g49
Nsg50
g1
(g51
g52
I5010
tRp356
sg54
g1
(g51
g52
I4942
tRp357
sg56
I-1
sg57
Nsbsg108
S'tRNA'
p358
sg110
(dp359
S'product'
p360
(lp361
S'tRNA-Ala'
p362
assbag1
(g96
g3
NtRp363
(dp364
g99
(lp365
sg101
S''
sg102
g103
sg44
g1
(g46
g3
NtRp366
(dp367
g49
Nsg50
g1
(g51
g52
I5089
tRp368
sg54
g1
(g51
g52
I5017
tRp369
sg56
I-1
sg57
Nsbsg108
S'tRNA'
p370
sg110
(dp371
S'product'
p372
(lp373
S'tRNA-Asn'
p374
assbag1
(g96
g3
NtRp375
(dp376
g99
(lp377
sg101
S''
sg102
g103
sg44
g1
(g46
g3
NtRp378
(dp379
g49
Nsg50
g1
(g51
g52
I5116
tRp380
sg54
g1
(g51
g52
I5088
tRp381
sg56
I1
sg57
Nsbsg108
S'stem_loop'
p382
sg110
(dp383
sbag1
(g96
g3
NtRp384
(dp385
g99
(lp386
sg101
S''
sg102
g103
sg44
g1
(g46
g3
NtRp387
(dp388
g49
Nsg50
g1
(g51
g52
I5172
tRp389
sg54
g1
(g51
g52
I5116
tRp390
sg56
I-1
sg57
Nsbsg108
S'tRNA'
p391
sg110
(dp392
S'product'
p393
(lp394
S'tRNA-Cys'
p395
assbag1
(g96
g3
NtRp396
(dp397
g99
(lp398
sg101
S''
sg102
g103
sg44
g1
(g46
g3
NtRp399
(dp400
g49
Nsg50
g1
(g51
g52
I5241
tRp401
sg54
g1
(g51
g52
I5175
tRp402
sg56
I1
sg57
Nsbsg108
S'tRNA'
p403
sg110
(dp404
S'product'
p405
(lp406
S'tRNA-Tyr'
p407
assbag1
(g96
g3
NtRp408
(dp409
g99
(lp410
sg101
S''
sg102
g103
sg44
g1
(g46
g3
NtRp411
(dp412
g49
Nsg50
g1
(g51
g52
I6789
tRp413
sg54
g1
(g51
g52
I5241
tRp414
sg56
I1
sg57
Nsbsg108
S'gene'
p415
sg110
(dp416
S'db_xref'
p417
(lp418
S'GeneID:7670116'
p419
asS'gene'
p420
(lp421
S'COX1'
p422
asS'gene_synonym'
p423
(lp424
S'COI'
p425
assbag1
(g96
g3
NtRp426
(dp427
g99
(lp428
sg101
S''
sg102
g103
sg44
g1
(g46
g3
NtRp429
(dp430
g49
Nsg50
g1
(g51
g52
I6789
tRp431
sg54
g1
(g51
g52
I5241
tRp432
sg56
I1
sg57
Nsbsg108
S'CDS'
p433
sg110
(dp434
S'product'
p435
(lp436
S'cytochrome c oxidase subunit I'
p437
asS'codon_start'
p438
(lp439
S'1'
asS'gene_synonym'
p440
(lp441
S'COI'
p442
asS'transl_table'
p443
(lp444
S'2'
asS'db_xref'
p445
(lp446
S'GI:226453503'
p447
aS'GeneID:7670116'
p448
asS'translation'
p449
(lp450
S'MWLLRWLLSTNHKDIGTMYFLFGLAAGLVGATSSLLMRTKLGQPGFSLGDDHAYNVLITLHGLTMIFFMVMPIMIGGFGNWLVPLMLGAPDMAFPRMNNMSFWLLPPSFMLLLASSKTGTGVGTGWTIYPPLSGNMAHSGPSMDLAIFSLHLAGISSILASINFITTSINMKPHHMVLYNLPLFVWSVMLTAILLILALPVLAAAITMLLTDRNLNTAFFDPVGGGDPVLFQHLFWFFGHPEVYILILPGFGIISHIITHYSCKKEPFGYMSMVWAMLAITILGFMVWAHHMFTVGLDIDTRAYFSAATMTIAVPTGIKVFSWTATIFGGKINWEPPMLWALGFMYLFTIGGLTGITLSNSTLDVLLHDTYYVVAHFHYVLSMGAVFAIMAGTVYWFPLISGYALNKKLAYSQFTIMFIGVNITFFPQHMLGLAGMPRRYSDFPDAYAIWNNISSTGALISMLGALMMVTILWEAMVKKRKILRTLSDTTMMEWTQKCPPLRHTFENPPAILLQG'
p451
asS'gene'
p452
(lp453
S'COX1'
p454
asS'protein_id'
p455
(lp456
S'YP_002791148.1'
p457
assbag1
(g96
g3
NtRp458
(dp459
g99
(lp460
sg101
S''
sg102
g103
sg44
g1
(g46
g3
NtRp461
(dp462
g49
Nsg50
g1
(g51
g52
I6851
tRp463
sg54
g1
(g51
g52
I6780
tRp464
sg56
I-1
sg57
Nsbsg108
S'tRNA'
p465
sg110
(dp466
S'codon_recognized'
p467
(lp468
S'UCN'
p469
asS'product'
p470
(lp471
S'tRNA-Ser'
p472
assbag1
(g96
g3
NtRp473
(dp474
g99
(lp475
sg101
S''
sg102
g103
sg44
g1
(g46
g3
NtRp476
(dp477
g49
Nsg50
g1
(g51
g52
I6929
tRp478
sg54
g1
(g51
g52
I6854
tRp479
sg56
I1
sg57
Nsbsg108
S'tRNA'
p480
sg110
(dp481
S'product'
p482
(lp483
S'tRNA-Asp'
p484
assbag1
(g96
g3
NtRp485
(dp486
g99
(lp487
sg101
S''
sg102
g103
sg44
g1
(g46
g3
NtRp488
(dp489
g49
Nsg50
g1
(g51
g52
I7613
tRp490
sg54
g1
(g51
g52
I6930
tRp491
sg56
I1
sg57
Nsbsg108
S'gene'
p492
sg110
(dp493
S'db_xref'
p494
(lp495
S'GeneID:7670117'
p496
asS'gene'
p497
(lp498
S'COX2'
p499
asS'gene_synonym'
p500
(lp501
S'COII'
p502
assbag1
(g96
g3
NtRp503
(dp504
g99
(lp505
sg101
S''
sg102
g103
sg44
g1
(g46
g3
NtRp506
(dp507
g49
Nsg50
g1
(g51
g52
I7613
tRp508
sg54
g1
(g51
g52
I6930
tRp509
sg56
I1
sg57
Nsbsg108
S'CDS'
p510
sg110
(dp511
S'product'
p512
(lp513
S'cytochrome c oxidase subunit II'
p514
asS'transl_except'
p515
(lp516
S'(pos:7612..7613,aa:TERM)'
p517
asS'codon_start'
p518
(lp519
S'1'
asS'gene_synonym'
p520
(lp521
S'COII'
p522
asS'transl_table'
p523
(lp524
S'2'
asS'note'
p525
(lp526
S"TAA stop codon is completed by the addition of 3' A residues to the mRNA"
p527
asS'db_xref'
p528
(lp529
S'GI:226453504'
p530
aS'GeneID:7670117'
p531
asS'translation'
p532
(lp533
S'MVEPIQLSLHDAASPVMEELLFFHDYSMLMMLLIGTTVIIALMIASTTKTYHTALTDANHLEFLWTLLPVMILLFLATPSMRTLFLLENQESPNTTIKAIGHQWYWSYEYSDYENILFDSYMIQDQDLEKGSPRLLETDNRMVFPMQTPVRLLISAEDVLHSWTLPALGVKIDAVPGRLNQLIISTMRPGIFYGQCSEICGANHSFMPISTESVPTKYFEKWLDKMA'
p534
asS'gene'
p535
(lp536
S'COX2'
p537
asS'protein_id'
p538
(lp539
S'YP_002791149.1'
p540
assbag1
(g96
g3
NtRp541
(dp542
g99
(lp543
sg101
S''
sg102
g103
sg44
g1
(g46
g3
NtRp544
(dp545
g49
Nsg50
g1
(g51
g52
I7678
tRp546
sg54
g1
(g51
g52
I7614
tRp547
sg56
I1
sg57
Nsbsg108
S'tRNA'
p548
sg110
(dp549
S'product'
p550
(lp551
S'tRNA-Lys'
p552
assbag1
(g96
g3
NtRp553
(dp554
g99
(lp555
sg101
S''
sg102
g103
sg44
g1
(g46
g3
NtRp556
(dp557
g49
Nsg50
g1
(g51
g52
I7840
tRp558
sg54
g1
(g294
g52
I7678
tRp559
sg56
I1
sg57
Nsbsg108
S'gene'
p560
sg110
(dp561
S'db_xref'
p562
(lp563
S'GeneID:7670118'
p564
asS'gene'
p565
(lp566
S'ATP8'
p567
assbag1
(g96
g3
NtRp568
(dp569
g99
(lp570
sg101
S''
sg102
g103
sg44
g1
(g46
g3
NtRp571
(dp572
g49
Nsg50
g1
(g51
g52
I7840
tRp573
sg54
g1
(g294
g52
I7678
tRp574
sg56
I1
sg57
Nsbsg108
S'CDS'
p575
sg110
(dp576
S'product'
p577
(lp578
S'ATP synthase F0 subunit 8'
p579
asS'codon_start'
p580
(lp581
S'1'
asS'transl_table'
p582
(lp583
S'2'
asS'note'
p584
(lp585
S'start codon not determined'
p586
asS'db_xref'
p587
(lp588
S'GI:226453505'
p589
aS'GeneID:7670118'
p590
asS'translation'
p591
(lp592
S'LPQLNPTPWLLMMLTTWLVINIMMTLIKNMNLIKTPLATKMNTKMKTSWTWPW'
p593
asS'gene'
p594
(lp595
S'ATP8'
p596
asS'protein_id'
p597
(lp598
S'YP_002791150.1'
p599
assbag1
(g96
g3
NtRp600
(dp601
g99
(lp602
sg101
S''
sg102
g103
sg44
g1
(g46
g3
NtRp603
(dp604
g49
Nsg50
g1
(g51
g52
I8507
tRp605
sg54
g1
(g51
g52
I7833
tRp606
sg56
I1
sg57
Nsbsg108
S'gene'
p607
sg110
(dp608
S'db_xref'
p609
(lp610
S'GeneID:7670119'
p611
asS'gene'
p612
(lp613
S'ATP6'
p614
assbag1
(g96
g3
NtRp615
(dp616
g99
(lp617
sg101
S''
sg102
g103
sg44
g1
(g46
g3
NtRp618
(dp619
g49
Nsg50
g1
(g51
g52
I8507
tRp620
sg54
g1
(g51
g52
I7833
tRp621
sg56
I1
sg57
Nsbsg108
S'CDS'
p622
sg110
(dp623
S'product'
p624
(lp625
S'ATP synthase F0 subunit 6'
p626
asS'transl_except'
p627
(lp628
S'(pos:8506..8507,aa:TERM)'
p629
asS'codon_start'
p630
(lp631
S'1'
asS'transl_table'
p632
(lp633
S'2'
asS'note'
p634
(lp635
S"TAA stop codon is completed by the addition of 3' A residues to the mRNA"
p636
asS'db_xref'
p637
(lp638
S'GI:226453506'
p639
aS'GeneID:7670119'
p640
asS'translation'
p641
(lp642
S'MMTELFDQFMIPELCGIKLLPIAMLMPTLLAHPPHQIRTNRLTSLIMLLIKKTTKHLFSTMSMSAYTWALILITTIMFISTTNTLGLLPYTFTPTTQLSMNMAMAMPLWLATVMIGLRNQPTKSLSHFLPEGTPTLLIPALIIIETISLFIRPLALGVRLTANLTAGHLLIQLISMAAMKTNLTLFPTIMGTLILLTTLEVAVALIQAYVFTLLLSLYLQENTH'
p643
asS'gene'
p644
(lp645
S'ATP6'
p646
asS'protein_id'
p647
(lp648
S'YP_002791151.1'
p649
assbag1
(g96
g3
NtRp650
(dp651
g99
(lp652
sg101
S''
sg102
g103
sg44
g1
(g46
g3
NtRp653
(dp654
g49
Nsg50
g1
(g51
g52
I9291
tRp655
sg54
g1
(g51
g52
I8507
tRp656
sg56
I1
sg57
Nsbsg108
S'gene'
p657
sg110
(dp658
S'db_xref'
p659
(lp660
S'GeneID:7670120'
p661
asS'gene'
p662
(lp663
S'COX3'
p664
asS'gene_synonym'
p665
(lp666
S'COIII'
p667
assbag1
(g96
g3
NtRp668
(dp669
g99
(lp670
sg101
S''
sg102
g103
sg44
g1
(g46
g3
NtRp671
(dp672
g49
Nsg50
g1
(g51
g52
I9291
tRp673
sg54
g1
(g51
g52
I8507
tRp674
sg56
I1
sg57
Nsbsg108
S'CDS'
p675
sg110
(dp676
S'product'
p677
(lp678
S'cytochrome c oxidase subunit III'
p679
asS'transl_except'
p680
(lp681
S'(pos:9291,aa:TERM)'
p682
asS'codon_start'
p683
(lp684
S'1'
asS'gene_synonym'
p685
(lp686
S'COIII'
p687
asS'transl_table'
p688
(lp689
S'2'
asS'note'
p690
(lp691
S"TAA stop codon is completed by the addition of 3' A residues to the mRNA"
p692
asS'db_xref'
p693
(lp694
S'GI:226453507'
p695
aS'GeneID:7670120'
p696
asS'translation'
p697
(lp698
S'MNNQMHPFHMVNESPWPILGSMALFTMACGLATWMHYKTLTLLNLGLTATLLTSYQWWRDIVRESTFQGHHTMKVQTGLRYGMILFITSEVLFFFGFFWTFYFASTNPDHALGLQWPPKGIKPLNPVDVPLLNTMILLASGMTVTWSHHSIMAGLKKNTSWSLLMTVMLGLYFTLLQASEYYDTMFSISDGTYGATFFVATGFHGLHVMIGTTFLIICLMRQMHLHFTTKHYFGFEAAAWYWHFVDVVWIFLYASIYWWGS'
p699
asS'gene'
p700
(lp701
S'COX3'
p702
asS'protein_id'
p703
(lp704
S'YP_002791152.1'
p705
assbag1
(g96
g3
NtRp706
(dp707
g99
(lp708
sg101
S''
sg102
g103
sg44
g1
(g46
g3
NtRp709
(dp710
g49
Nsg50
g1
(g51
g52
I9356
tRp711
sg54
g1
(g51
g52
I9291
tRp712
sg56
I1
sg57
Nsbsg108
S'tRNA'
p713
sg110
(dp714
S'product'
p715
(lp716
S'tRNA-Gly'
p717
assbag1
(g96
g3
NtRp718
(dp719
g99
(lp720
sg101
S''
sg102
g103
sg44
g1
(g46
g3
NtRp721
(dp722
g49
Nsg50
g1
(g51
g52
I9705
tRp723
sg54
g1
(g51
g52
I9356
tRp724
sg56
I1
sg57
Nsbsg108
S'gene'
p725
sg110
(dp726
S'db_xref'
p727
(lp728
S'GeneID:7670121'
p729
asS'gene'
p730
(lp731
S'ND3'
p732
assbag1
(g96
g3
NtRp733
(dp734
g99
(lp735
sg101
S''
sg102
g103
sg44
g1
(g46
g3
NtRp736
(dp737
g49
Nsg50
g1
(g51
g52
I9705
tRp738
sg54
g1
(g51
g52
I9356
tRp739
sg56
I1
sg57
Nsbsg108
S'CDS'
p740
sg110
(dp741
S'product'
p742
(lp743
S'NADH dehydrogenase subunit 3'
p744
asS'transl_except'
p745
(lp746
S'(pos:9705,aa:TERM)'
p747
asS'codon_start'
p748
(lp749
S'1'
asS'transl_table'
p750
(lp751
S'2'
asS'note'
p752
(lp753
S"TAA stop codon is completed by the addition of 3' A residues to the mRNA"
p754
asS'db_xref'
p755
(lp756
S'GI:226453508'
p757
aS'GeneID:7670121'
p758
asS'translation'
p759
(lp760
S'MNLVTTLITSLLIPTLLILISHWIPQMLPDTEKLSPYECGFDPLGSARLPFSLQFFLIAIFFLIFDLEIALLLPLPWAINSTTPMMTTIWTFTIITLLTLGLVYEWTQGALEWTKT'
p761
asS'gene'
p762
(lp763
S'ND3'
p764
asS'protein_id'
p765
(lp766
S'YP_002791153.1'
p767
assbag1
(g96
g3
NtRp768
(dp769
g99
(lp770
sg101
S''
sg102
g103
sg44
g1
(g46
g3
NtRp771
(dp772
g49
Nsg50
g1
(g51
g52
I9773
tRp773
sg54
g1
(g51
g52
I9705
tRp774
sg56
I1
sg57
Nsbsg108
S'tRNA'
p775
sg110
(dp776
S'product'
p777
(lp778
S'tRNA-Arg'
p779
assbag1
(g96
g3
NtRp780
(dp781
g99
(lp782
sg101
S''
sg102
g103
sg44
g1
(g46
g3
NtRp783
(dp784
g49
Nsg50
g1
(g51
g52
I10061
tRp785
sg54
g1
(g51
g52
I9773
tRp786
sg56
I1
sg57
Nsbsg108
S'gene'
p787
sg110
(dp788
S'db_xref'
p789
(lp790
S'GeneID:7670122'
p791
asS'gene'
p792
(lp793
S'ND4L'
p794
assbag1
(g96
g3
NtRp795
(dp796
g99
(lp797
sg101
S''
sg102
g103
sg44
g1
(g46
g3
NtRp798
(dp799
g49
Nsg50
g1
(g51
g52
I10061
tRp800
sg54
g1
(g51
g52
I9773
tRp801
sg56
I1
sg57
Nsbsg108
S'CDS'
p802
sg110
(dp803
S'product'
p804
(lp805
S'NADH dehydrogenase subunit 4L'
p806
asS'codon_start'
p807
(lp808
S'1'
asS'transl_table'
p809
(lp810
S'2'
asS'db_xref'
p811
(lp812
S'GI:226453509'
p813
aS'GeneID:7670122'
p814
asS'translation'
p815
(lp816
S'MNQLLYTTFSLTMLGTLINRTHFLTTLLCMEGMMVTLFTMMTITLSNTDMTSTTSMPIMLITLGACEASTGLALLVTTTNTHTNDHMKNFKLLKC'
p817
asS'gene'
p818
(lp819
S'ND4L'
p820
asS'protein_id'
p821
(lp822
S'YP_002791154.1'
p823
assbag1
(g96
g3
NtRp824
(dp825
g99
(lp826
sg101
S''
sg102
g103
sg44
g1
(g46
g3
NtRp827
(dp828
g49
Nsg50
g1
(g51
g52
I11404
tRp829
sg54
g1
(g51
g52
I10054
tRp830
sg56
I1
sg57
Nsbsg108
S'gene'
p831
sg110
(dp832
S'db_xref'
p833
(lp834
S'GeneID:7670123'
p835
asS'gene'
p836
(lp837
S'ND4'
p838
assbag1
(g96
g3
NtRp839
(dp840
g99
(lp841
sg101
S''
sg102
g103
sg44
g1
(g46
g3
NtRp842
(dp843
g49
Nsg50
g1
(g51
g52
I11404
tRp844
sg54
g1
(g51
g52
I10054
tRp845
sg56
I1
sg57
Nsbsg108
S'CDS'
p846
sg110
(dp847
S'product'
p848
(lp849
S'NADH dehydrogenase subunit 4'
p850
asS'codon_start'
p851
(lp852
S'1'
asS'transl_table'
p853
(lp854
S'2'
asS'db_xref'
p855
(lp856
S'GI:226453510'
p857
aS'GeneID:7670123'
p858
asS'translation'
p859
(lp860
S'MLKILIPTIMLIPSATLIKKNMLHLSLLIYSTILATLSLQWLKPPLTLIKHSNPYLSIDQISAPLLTLSYWLLPIAILASQNHLKHTTQMQTRMFLTCLASLQTLLTMALSSTNLILFFIMFEATLIPTMIIITRWGSQKERLTAGMYFMFYTLISSMPLLIALLMMNYQMNNLNIILMPTTNKPNTIMWLACTMAFMVKMPLYGLHLWLPKAHVEAPIAGSMILAAILLKLGGYGMMRISPMLCLTKTLYYPFIIMALWGMIMTSLICLRQPDLKSLIAYSSVSHMGLVVAATMIQTPSSLTGAMILMVAHGITSSMLFCLANMMYERTHTRTLTMMQGIQTTLPLMTAFWLTANLTNMAIPPTINLMGEIMITSTMFNWSPPTLILTGSAATITAIYSMYMFSAIQQGKTQKDMMIYPPQTREYLVLILHVMPMILLMINPQTITLT'
p861
asS'gene'
p862
(lp863
S'ND4'
p864
asS'protein_id'
p865
(lp866
S'YP_002791155.1'
p867
assbag1
(g96
g3
NtRp868
(dp869
g99
(lp870
sg101
S''
sg102
g103
sg44
g1
(g46
g3
NtRp871
(dp872
g49
Nsg50
g1
(g51
g52
I11472
tRp873
sg54
g1
(g51
g52
I11407
tRp874
sg56
I1
sg57
Nsbsg108
S'tRNA'
p875
sg110
(dp876
S'product'
p877
(lp878
S'tRNA-His'
p879
assbag1
(g96
g3
NtRp880
(dp881
g99
(lp882
sg101
S''
sg102
g103
sg44
g1
(g46
g3
NtRp883
(dp884
g49
Nsg50
g1
(g51
g52
I11531
tRp885
sg54
g1
(g51
g52
I11472
tRp886
sg56
I1
sg57
Nsbsg108
S'tRNA'
p887
sg110
(dp888
S'codon_recognized'
p889
(lp890
S'AGY'
p891
asS'product'
p892
(lp893
S'tRNA-Ser'
p894
assbag1
(g96
g3
NtRp895
(dp896
g99
(lp897
sg101
S''
sg102
g103
sg44
g1
(g46
g3
NtRp898
(dp899
g49
Nsg50
g1
(g51
g52
I11602
tRp900
sg54
g1
(g51
g52
I11531
tRp901
sg56
I1
sg57
Nsbsg108
S'tRNA'
p902
sg110
(dp903
S'codon_recognized'
p904
(lp905
S'CUN'
p906
asS'product'
p907
(lp908
S'tRNA-Leu'
p909
assbag1
(g96
g3
NtRp910
(dp911
g99
(lp912
sg101
S''
sg102
g103
sg44
g1
(g46
g3
NtRp913
(dp914
g49
Nsg50
g1
(g51
g52
I13420
tRp915
sg54
g1
(g51
g52
I11602
tRp916
sg56
I1
sg57
Nsbsg108
S'gene'
p917
sg110
(dp918
S'db_xref'
p919
(lp920
S'GeneID:7670124'
p921
asS'gene'
p922
(lp923
S'ND5'
p924
assbag1
(g96
g3
NtRp925
(dp926
g99
(lp927
sg101
S''
sg102
g103
sg44
g1
(g46
g3
NtRp928
(dp929
g49
Nsg50
g1
(g51
g52
I13420
tRp930
sg54
g1
(g51
g52
I11602
tRp931
sg56
I1
sg57
Nsbsg108
S'CDS'
p932
sg110
(dp933
S'product'
p934
(lp935
S'NADH dehydrogenase subunit 5'
p936
asS'codon_start'
p937
(lp938
S'1'
asS'transl_table'
p939
(lp940
S'2'
asS'db_xref'
p941
(lp942
S'GI:226453511'
p943
aS'GeneID:7670124'
p944
asS'translation'
p945
(lp946
S'MNPTLNLDTTMISTLTILSTLVLFTSFLQKNTKFNLSPETTVMTSFMISTIPTMLSLKLTPHSTSINLTMMQTSTLNIHSTISTNLNSNLFLSIALFVTWAIMQFSSWYMKDAPKIKLFKKYLMAFLIAMIILMLAGSMIQLFIGWEGVGIMSFLLINWWYARTYANSSAMQAMTYNRIGDIGIILILAWLAINQTSWDMQSMDPDMNTTMLTSGLILAAAGKSAQFFMHMWLPSAMEGPTPVSALLHSSTMVVAGIYLLTQMHHLIKNSNISMNICLWLGATTSLYASMTAMCQNDLKKIIAMSTLSQLGLMMAAIGLNQPNLSFMHISTHASTKAALFLCAGSFIHNLQNEQDIRKMGNMKAMLPITSTCLVIASLALMGMPFLSCFYSKDPIIETTFTSKMNTWILITIMTATAMTSTYSMRMIYYTLTKYNRNKPTMMIKETTNQINPIIRLTILSILAGTMLSIITAQTTSDPTLPTTMKLTPMLAMLAGIYLTIETLDKPTTHTPKHSPLLILMNQLAFFKITHRWTPKNTLKMGTMIATQLVDLLWLEKAGPKTITLMNKNSSKLTNPLTGLMKLYLSSITITTALALFMTHLWLATN'
p947
asS'gene'
p948
(lp949
S'ND5'
p950
asS'protein_id'
p951
(lp952
S'YP_002791156.1'
p953
assbag1
(g96
g3
NtRp954
(dp955
g99
(lp956
sg101
S''
sg102
g103
sg44
g1
(g46
g3
NtRp957
(dp958
g49
Nsg50
g1
(g51
g52
I13915
tRp959
sg54
g1
(g51
g52
I13405
tRp960
sg56
I-1
sg57
Nsbsg108
S'gene'
p961
sg110
(dp962
S'db_xref'
p963
(lp964
S'GeneID:7670125'
p965
asS'gene'
p966
(lp967
S'ND6'
p968
assbag1
(g96
g3
NtRp969
(dp970
g99
(lp971
sg101
S''
sg102
g103
sg44
g1
(g46
g3
NtRp972
(dp973
g49
Nsg50
g1
(g51
g52
I13915
tRp974
sg54
g1
(g51
g52
I13405
tRp975
sg56
I-1
sg57
Nsbsg108
S'CDS'
p976
sg110
(dp977
S'product'
p978
(lp979
S'NADH dehydrogenase subunit 6'
p980
asS'codon_start'
p981
(lp982
S'1'
asS'transl_table'
p983
(lp984
S'2'
asS'db_xref'
p985
(lp986
S'GI:226453512'
p987
aS'GeneID:7670125'
p988
asS'translation'
p989
(lp990
S'MYFLMLCFFLFFMVGVASNPSPYFGGVSLALASVFGAGVMAGLSSTFISLVLMLVYLGGMLVVFVYSVAMSSDMYPEAWGNRSVFLYVVGFLGYLFCLWWYTGGEWFFDEGVVSSVVLLNGVVVDLGGVVLLYSFGGGCFLILGVVLLLTLFVVLDLVCGWRLGALVSC'
p991
asS'gene'
p992
(lp993
S'ND6'
p994
asS'protein_id'
p995
(lp996
S'YP_002791157.1'
p997
assbag1
(g96
g3
NtRp998
(dp999
g99
(lp1000
sg101
S''
sg102
g103
sg44
g1
(g46
g3
NtRp1001
(dp1002
g49
Nsg50
g1
(g51
g52
I13984
tRp1003
sg54
g1
(g51
g52
I13915
tRp1004
sg56
I-1
sg57
Nsbsg108
S'tRNA'
p1005
sg110
(dp1006
S'product'
p1007
(lp1008
S'tRNA-Glu'
p1009
assbag1
(g96
g3
NtRp1010
(dp1011
g99
(lp1012
sg101
S''
sg102
g103
sg44
g1
(g46
g3
NtRp1013
(dp1014
g49
Nsg50
g1
(g51
g52
I15119
tRp1015
sg54
g1
(g51
g52
I13985
tRp1016
sg56
I1
sg57
Nsbsg108
S'gene'
p1017
sg110
(dp1018
S'db_xref'
p1019
(lp1020
S'GeneID:7670126'
p1021
asS'gene'
p1022
(lp1023
S'CYTB'
p1024
assbag1
(g96
g3
NtRp1025
(dp1026
g99
(lp1027
sg101
S''
sg102
g103
sg44
g1
(g46
g3
NtRp1028
(dp1029
g49
Nsg50
g1
(g51
g52
I15119
tRp1030
sg54
g1
(g51
g52
I13985
tRp1031
sg56
I1
sg57
Nsbsg108
S'CDS'
p1032
sg110
(dp1033
S'product'
p1034
(lp1035
S'cytochrome b'
p1036
asS'codon_start'
p1037
(lp1038
S'1'
asS'transl_table'
p1039
(lp1040
S'2'
asS'db_xref'
p1041
(lp1042
S'GI:226453513'
p1043
aS'GeneID:7670126'
p1044
asS'translation'
p1045
(lp1046
S'MTIARKSNPALKIINHSLIDLPTPTNISTAWNFGSLLGLMLVTQITTGLFLAMHYTADINLAFSSIAHISREVNFGWLMRNLHANGASMFFICIYLHIGRGLYYSSYLYKETWNIGIMLLFLTMATAFLGYILPWGQMSFWGATVITNMLSAIPYIGNNLVNWIWGGFSVNNPTLVRFFTLHFLTPFLIAGTTMLHLLFLHETGSNNPTGLSSNSDKVSFHPYFPLKDLTTATTTITLLTLIALFLPTLLTDPQNFSPANPLSTPPHIMPEWYFLFAYTILRSIPNKLGGVMALFMSILILILMPLLHTSKQRTMKFRPFSQLMFWTMTANILILTWIGSQPVEQPLTTIGQISTTLYFLIIIMFTPTLALMENKTL'
p1047
asS'gene'
p1048
(lp1049
S'CYTB'
p1050
asS'protein_id'
p1051
(lp1052
S'YP_002791158.1'
p1053
assbag1
(g96
g3
NtRp1054
(dp1055
g99
(lp1056
sg101
S''
sg102
g103
sg44
g1
(g46
g3
NtRp1057
(dp1058
g49
Nsg50
g1
(g51
g52
I15188
tRp1059
sg54
g1
(g51
g52
I15122
tRp1060
sg56
I1
sg57
Nsbsg108
S'tRNA'
p1061
sg110
(dp1062
S'product'
p1063
(lp1064
S'tRNA-Thr'
p1065
assbag1
(g96
g3
NtRp1066
(dp1067
g99
(lp1068
sg101
S''
sg102
g103
sg44
g1
(g46
g3
NtRp1069
(dp1070
g49
Nsg50
g1
(g51
g52
I17116
tRp1071
sg54
g1
(g51
g52
I15188
tRp1072
sg56
I1
sg57
Nsbsg108
S'rep_origin'
p1073
sg110
(dp1074
S'note'
p1075
(lp1076
S'putative control region'
p1077
assbag1
(g96
g3
NtRp1078
(dp1079
g99
(lp1080
sg101
S''
sg102
g103
sg44
g1
(g46
g3
NtRp1081
(dp1082
g49
Nsg50
g1
(g51
g52
I17183
tRp1083
sg54
g1
(g51
g52
I17116
tRp1084
sg56
I-1
sg57
Nsbsg108
S'tRNA'
p1085
sg110
(dp1086
S'product'
p1087
(lp1088
S'tRNA-Pro'
p1089
assbasS'_seq'
p1090
g1
(cBio.Seq
Seq
p1091
g3
NtRp1092
(dp1093
S'alphabet'
p1094
g1
(cBio.Alphabet.IUPAC
IUPACAmbiguousDNA
p1095
g3
NtRp1096
sS'_data'
p1097
S'GTTATTGTAGCTTAAAAAAATAAAGCACAGTATTGAAAATACTGAAATGGGCCGACAACGCCCCAAAAACATGAGAGTTTTGGTCCTGGACTTTCCGTTATTTATGATTAAGATTACACATGCAAGTATCCACACTCCAGTGAGTCCGCCCAATCACTATAGGAGCAGGCATCAGGCACAACCCATCTTATCAGCCCATAACGCCAAGATATCCACACCCACACGGGTATTCAGCAGTGACCAATATTAGGCTATGAGCTAACGCTCGACCTAGCTATACTCCAAGGAGTCGGCAAACTTCGTGCCAGCCGCCGCGGTTATACGAAGTGACTCCAAATAACGAACAGCGGCAAAAAGCGTGAACACACACATTCAACACACTAAGCATCAACTGGAACTAATACGTAAAACCAAAGCCCAATTTGAACACCAACACAGAGCTTAAACACTAGGAATTCAAAACTCACGAAAACTGAGAAACAAACTAGGATTAGATACCCTACTATGCTCAATAGTAAACATCGATTTTTACTTTTAACCCGCCAGAGAACAACGAGCAAAGCTTAAAACCCAAAGGACTTGGCGGCGCTTCATATCACCCTAGAGGGGCCTGTCATATAATCGATAACCCACGATATACCTTACCACCTTTAGCCAGTACAGCCTATATACCGCCGTCGCCAGCCCATCTTGATAGAGGAATAAAATGGACCAAAAAGTATTTATACTCATACGACAGGTCAAGGTGTAGCTTATAAGATGGTAAATGATGGACCACATTGCTTAACAAAGCTATACCAAAACTGCACTGAAACACACACTTTAAGGTGAATTTAACAGTAAGACGAACAAGAAAATCTGTCTAAAGTATGCTCTGGAGCGTGCACACACCGCCCGTCACCCTACTTTACTCACAACCCACAAACATATTACAACAACCAAAACAAGAGTAGGAAAGTCGTAACAAGGTAAGCGCACCGGAAGGTACGCTTGGAAGACAAAAAGTAGCTTAATCTAAAGCATTCGCCCTACAATTGAAAAATGTTGACGAGCCCAACCTTTTTGAGCTCGTGATTAAGCCCAAATACCTCCCCAAATTCTATCTAACCACCACCCAAAACATTTGACCTGGACAGTAGATGCGATCGAAATCCGCCTAATCGACGCTATACAAACAGTACTGTGAAGGAAAAATGAAAAAGAGTGAAACCGTTAGCATAACTAAGCAGGGACCAAAACTCGTACCTTTTGCATCATGATTTAGCAAGTAAGCTAGACAAAGCGACCTACAGCCTTCCACCCCGAACACAAGTGATCTACTTCATGGCAGTTGAACCGAACTAACCCATCTCTGTAGCAATAGAGTGGGAAGACCAAGAAGTAGTCGGCCAAAAACCAAACGAACTTGTCGATAGCTGGTTATCCGACAAATGAATTGAAGTTCAAACCCGGCAACAAACCTTAACACACATGAAAAACTATTCTGCCTGGAAATAGCCAATGGGGGCACAGCTCCATAGGCACTGGATACAGCCAAAAATAGCGAGGAAAACCCACACCAACCAACCTGTAGGCCTTTAAACAGCCATCAATAAGTATCGCGTCACAGTAACTAAACCAAAAATACCACCAAAAATCTAATTCTCCTACTAAACCAACCGGATAATTCTACAATAATGTAGAAGAACTAATGCTAAAATGAGTAATTAGAACTATTTCTTTAGACAGAACTTTAAGTAACACACCACACCCAACAGACCCAAAAAAGAAATATGATACACAATTAACAACACATTAAATACACTGTTAACCCAACACAGGACTGTCTATCCATAGGCTTAAAACCTTAAAAGGAACTCGGCAAACCCGTTCTCCAACTGTTTACCAAAAACATAGCTTCTAGCCAAACCAGTATTAGAAGTAACGCCTGCCCTGTGGAACCCTAAACGGCCGCGGCACAAAACCGTGCAAAGGTAGCACAATCACTTGTCCCTTAAATGAGGACCCGTATGAAAGGCAACATGAGAGAAATCCTGTCTCCTAAGGTCGGCCAATGAAATTGATCCATCAGTACAAAAGCTGATATATTTAAGCAAGACAAAAAGACCCTATGGAACTTTAACGAGTTGTTTACACACAATAAACAATAATTTCAGTTGGGATAACTTTAGAAAAAATAAACCTCTAACATCATCAAGACCAACCAGTCTTATCACACCACATACGACCCAGTAACACTGACTAACGAAACAAGCTACCCTAGGGATAACAGCGCCACCTTCTCAAAGAGTCCATATCAACAAGAAGATCTACGACCTCGATGTTGGATCAGGGTACCCAGACGGTGCAGCAGCTGTCAACGGTTCGTTTGTTCAACGACTAACACCCTACGCGATCTGAGTTCAGACCGGAGCAATCCAGGTCGGCCTTTATCTGCTATTAAGCCTTTGCTAGTACGAAAGGACCGCTAAGACAAGATTAATGCTACTAGCACATCTTTCAAAAATACTGCATAAAACTTAATTACCAAAAACATACCCAACCCAAAAAAAGGACCCAAAAAACCAGAATCTGGTGCCACATTAGGGTGGCATAGCTTGGTTATTGCAGAGGGCCTAAAACCCCCTGTCAGAAGTTCAACTCTTCTCCCTAACACATAAAAATATACCCACTAATTATTAACATCACCAACCTTCTAACTACCTTTATCCCAATCCTAATCGCTGTAGCCTTCCTAACCCTCCTCGAACGAAAAACCCTTAGCTACATACAACTACGAAAAGGACCAAACATTGTTGGCCCACAAGGCATCCTCCAACCTATTACAGACGGCATAAAACTCCTTATTAAAGAACCAGTCCGACCTAAACAATCATCCCCAATCATATTTACCGCAGCCCCAACTTTAGCCCTAACCCTATCAATATTTATATGAACTCCAATTCCCCTGCCTAACCCTATCTTAACCCTCAACCTTGGCCTCCTACTATTAATAACCATCTCAAGCATAATAGTATATACTACCCTACTATCAGGATGAGCATCAAATTCAAAATACGCACTCATAGGAGCACTACGAGCAGTTGCTCAAATAATCTCATACGAAATCACTTTGGGCCTAATCCTAATATGCCTAACCATCCAAGCAGGAAATTACAACCTAGAACTATTTACTACTACACAGGAAAAGTCTTGATTGATTATAACAACCTGACCAATAATAATGATATGATACGTATCAACACTAGCAGAAACCAACCGAGCCCCATTTGACCTCACAGAAGGAGAATCAGAACTAGTATCCGGCTTTAATGTAGAATACACTGGTGGCATATTTGCACTACTATTTTTATCAGAGTACACCAACATTATTCTAATAAATGCCCTTACATGCATCCTATTCCTAAACTCAGGAAACATCCTATCTAACACATTCACACCAATCTTGATAATAAAAACACTACTATTAACTATAGGATTCATTTGAACCCGAGCAGCATACCCACGATTCCGATATGATCAACTAATACAACTCCTATGAAAACAATTCTTACCCCTTACCCTATCTATATGCCTACTATACACAATAATTCCACTAACACTAGCAGCTCTACCATAGAGGAGAAGGAGTCGAACCAACATCAAAAAACTCAAAATTTTATATATTTCAATTATACTACCCTCTATAACACAAGGAAGCGTGCCCGAGAATCAGGGACTACTTTGATAGAGTAAATACAGAGCAACCAACCTCTCTCTTCCACTAGGATCTGCTAACATAAGCAATTGGGCCCATGCCCCAAAAATGATAATTTATATCTCCTAGTATTGAACCTATTTACCCAAATAATAGTATTATCTGGCCTAACAACCGGAACTATTATCACCGCCTCCAGCAACCACTGACTACTAGCCTGATCAGGCCTTGAACTAAACATGCTATCCATACTAGCTATTATAATAAAACCTAAACACCCCCGAACCGCCGAAGCCACAATCAAATACTTCCTTACACAAGCAATCGCCTCCACCATAATACTATTTTCAGGCACAATAAATGCTATTCAAACCGGACAATGAAACACTACACAAATAACAGACGAATATGCCTGCACAATACTCCTTTTAGCAATAACAATAAAAATTGGAGCAGCCCCAATTTATTTCTGACTACCAGAAGTCATACAAGGTACCACAACAATAACTGCCCTAATCATTGCCTCATGACAAAAAATTGCCCCAATCACCATCTTATTTATAACCTATAATCACCTACCACCAAAAATTACCATTCTAATCGCAATCACATCAGCAATCATCGGAGGATGAGGAAGCATCAACCAAACCCAAATACGAAAGCTAATAGCATACTCATCAATCTCAAACCTAGGATGAACAATAGTAATCTTTACAATCTCCCCACACATTGCAATTATTAATATTACCATTTACATCACCATAATTATCCCCACATTCACAATTATAAAAAAAGCATCCATAAAAACACTTCAAGACTCAACAACCATGTGAACCTCATCAACCACAGCCAACATTACACTAACATTAATATTACTGTCCATTAGCGGATTGCCCCCCCTAACAGGTTTCACCCCAAAACTCCTAATTCTAAACGAACTAGTCATACAAAATTTAACACCAGTTGCAACAATAATAGCCATATCCTCACTAATCAGCGTGTTCTTTTATATCCGAACAACCTACATCACTACAATAACCACCCCCCCAATCATAACATCAAACATAATAAAATGACGCCTTACTTCAATACAACAAAAATTAACATCAACACTAATCCCATTATCACTAATTTCTCTACCACTTGCACCAACCCTAATACACATGGTCTAGAAACTTAGGATAATAATTAAACCAGAGGCCTTCAAAGCCCCCAAAAAGAGTGTCAACCTCTTAGTTTCTGATAGAAAGTCTGTTGAAACAACACAACACCTTATGAATGCAACTCAAACGCTCTAATTAAGCTAAGACTTCATACCTACAGGACTAGCAGGCCTTGATCCTACAAAAACTAGTTAACAGCTAGCCGCCCAAACCAGCGGGCATTAATCCAGTCTCCTTTTAGAAAAAAAAGGAGACTAAATCCAGGGTCTACTAAACCATATCCGGATTTGCACTCCGGACTTTTACTGAATTTCCTGGGGAGGGGGGAGTCTAACCCCATAAATAGATTTACAGTCTACCGCCTTTATCGGCCACCTAACCATGTGACTACTTCGCTGACTTCTTTCAACTAACCACAAAGACATCGGTACCATGTATTTTTTATTTGGACTGGCCGCAGGACTTGTTGGAGCCACCTCAAGCCTACTAATACGTACAAAACTTGGTCAGCCAGGATTCTCCCTCGGAGACGACCACGCCTATAACGTCTTAATTACCCTCCACGGGCTAACCATAATTTTCTTCATGGTTATACCAATCATGATCGGGGGATTTGGAAATTGACTTGTACCCCTAATGCTTGGAGCACCTGACATGGCCTTTCCACGCATAAACAACATAAGCTTCTGGCTTCTTCCACCATCATTTATGCTTCTATTAGCATCATCAAAAACTGGTACCGGGGTTGGAACAGGATGAACTATTTACCCACCACTATCTGGAAACATAGCACATTCAGGCCCATCCATAGATCTAGCAATCTTCTCACTACACCTAGCAGGAATCTCTTCCATTCTTGCCTCAATCAATTTCATTACAACTAGCATTAACATGAAACCACACCACATAGTCCTCTATAATTTACCCCTATTTGTATGATCAGTCATATTAACTGCAATCCTACTAATCCTAGCCCTACCAGTATTGGCTGCAGCCATCACAATACTCCTAACAGATCGAAACTTAAACACAGCATTCTTCGATCCTGTGGGGGGCGGGGATCCCGTACTATTCCAACACCTATTCTGATTCTTTGGACACCCAGAAGTATATATTCTCATCCTACCAGGATTTGGAATTATCTCGCATATTATCACACACTACTCATGTAAAAAGGAACCATTTGGATACATAAGCATGGTATGAGCCATACTTGCAATCACCATTCTAGGATTTATAGTATGAGCCCACCATATGTTCACGGTAGGACTTGACATTGACACCCGAGCCTACTTCTCTGCAGCAACTATAACCATCGCTGTACCAACTGGAATTAAAGTATTTAGCTGAACAGCAACAATCTTTGGGGGTAAAATTAATTGAGAACCCCCAATACTCTGAGCCCTCGGATTCATGTATTTATTTACCATTGGAGGCCTGACAGGAATTACACTGTCTAACTCTACCTTAGATGTTCTACTTCACGACACATACTACGTCGTAGCCCACTTCCACTACGTACTATCAATAGGTGCCGTATTCGCAATCATAGCAGGCACAGTCTATTGATTTCCACTAATTTCAGGGTATGCACTAAACAAAAAATTAGCATATTCACAATTTACCATCATATTTATTGGAGTTAATATTACCTTTTTTCCACAACATATACTAGGATTAGCAGGAATACCACGACGATATTCAGACTTCCCAGACGCCTATGCAATCTGAAATAACATCTCATCAACTGGAGCACTAATCTCTATACTAGGAGCACTAATAATAGTTACAATCCTATGAGAAGCAATAGTAAAAAAACGAAAAATCTTACGAACACTATCCGATACAACCATGATAGAATGAACACAAAAATGCCCACCCTTACGACACACCTTTGAAAATCCCCCAGCAATTTTACTTCAAGGAAGGGAGGAATTGAACCCCCACCTTATGGTTTCAAGCCATACGCAGAACCTATCTCCTGCTACCTCCTTAAAGCCTTAGTAAAACATTACATAGCCCTGTCAGCACTAAATTATGGGTACCTACCTACAAACCCATAGGCTTTACATGGTAGAACCAATTCAATTATCACTACATGACGCTGCCTCCCCTGTAATAGAAGAACTCCTATTCTTTCACGACTACTCAATATTAATGATACTACTAATTGGAACCACCGTAATTATTGCACTAATAATTGCTTCAACCACAAAAACATACCACACCGCATTAACAGACGCAAATCACCTAGAATTCTTATGAACCTTATTACCAGTTATAATCTTACTATTTTTAGCAACTCCCTCAATACGAACCCTTTTTTTATTAGAAAACCAGGAAAGCCCAAACACTACAATTAAAGCAATCGGACACCAATGATACTGAAGCTATGAATACTCAGACTACGAAAATATCCTCTTTGATTCCTATATAATCCAAGACCAAGACCTAGAAAAAGGTTCCCCACGACTTCTAGAAACTGATAATCGAATAGTATTTCCAATACAAACTCCAGTTCGACTACTAATCTCAGCAGAAGATGTTCTCCATTCATGAACACTTCCGGCTTTAGGGGTAAAAATTGATGCTGTCCCAGGACGATTAAACCAACTAATTATTTCTACTATACGGCCAGGAATCTTTTACGGCCAATGCTCAGAAATCTGTGGAGCAAACCACAGCTTTATGCCAATTTCAACAGAATCCGTACCAACAAAATACTTCGAAAAATGATTAGACAAAATAGCCTAACATTAAGAAGCTTGCATTAGCAACAGCCCTTTAATCTGTAGAAGGGGACCTCCCCCCTTAATGATTGCCACAACTAAACCCAACCCCATGACTGCTAATAATACTGACAACATGACTAGTCATCAACATCATAATAACCCTAATCAAGAACATAAACTTAATTAAAACTCCACTAGCAACAAAAATAAACACTAAAATAAAAACCTCTTGAACCTGACCATGATAACAGAACTATTCGATCAATTTATAATCCCAGAACTGTGTGGCATCAAACTACTTCCAATTGCCATACTAATGCCAACACTACTAGCCCACCCTCCACACCAAATTCGAACAAACCGACTAACATCATTAATTATACTATTAATTAAAAAAACTACAAAACATCTTTTCTCAACAATAAGCATATCCGCTTATACATGAGCCCTCATCTTAATTACTACAATTATATTTATCTCTACAACAAACACTTTAGGACTTCTACCCTACACATTCACACCAACAACCCAACTATCCATAAATATGGCAATAGCAATACCCCTATGACTAGCCACAGTCATAATTGGACTGCGAAACCAACCAACAAAATCACTAAGCCATTTTTTACCAGAAGGAACACCAACCCTGCTCATCCCAGCCCTCATCATTATCGAAACAATTAGCCTATTCATTCGCCCTCTAGCCCTGGGTGTACGACTCACAGCCAACCTAACTGCCGGACACCTCCTAATTCAACTCATCTCAATAGCAGCTATAAAAACTAACTTAACTTTATTTCCAACTATTATAGGAACCCTAATTCTACTGACAACTCTGGAAGTGGCCGTAGCTCTAATTCAAGCCTACGTATTTACACTGCTCCTAAGCCTATATCTACAAGAAAACACACACTAATGAATAATCAAATACACCCATTTCATATAGTAAACGAAAGTCCTTGACCAATTCTAGGATCAATAGCCTTATTCACCATAGCCTGTGGCCTAGCAACCTGAATACATTACAAAACCTTAACACTTCTCAACCTAGGCCTTACTGCAACATTATTGACATCTTACCAATGATGACGAGATATTGTACGAGAGAGTACATTTCAAGGACATCACACAATAAAAGTCCAAACAGGCCTACGATATGGAATAATCCTATTTATCACATCAGAAGTCCTCTTCTTCTTTGGATTTTTCTGAACATTTTATTTTGCCAGCACCAACCCAGACCACGCACTGGGACTACAATGACCACCAAAAGGCATTAAACCTCTTAACCCAGTTGATGTCCCCCTTCTTAACACTATAATTCTACTAGCCTCAGGCATAACCGTTACATGATCACACCACTCAATCATAGCTGGACTTAAAAAAAATACTTCCTGGTCTCTATTAATAACCGTAATGCTAGGACTCTACTTTACACTACTACAAGCCTCAGAATACTATGATACAATATTCTCAATCTCAGATGGAACCTATGGAGCAACATTCTTTGTAGCCACAGGATTCCACGGACTTCACGTTATAATCGGAACTACCTTCCTAATTATTTGCCTAATACGACAAATGCACCTCCACTTCACAACAAAACACTACTTTGGGTTTGAAGCAGCCGCCTGATATTGACACTTTGTTGATGTAGTTTGAATTTTTTTATACGCATCAATCTATTGATGAGGCTCATATTCTTCTAGTATAACATATTACAATTGACTTCCACTCAATTAATCTTGACTTCAAGGAAGAATAATTAACCTAGTAACTACCCTAATCACCTCACTACTAATTCCAACACTACTAATCCTTATCAGCCACTGAATCCCACAAATACTCCCGGACACAGAAAAACTATCACCGTACGAATGTGGATTCGATCCACTAGGAAGTGCACGCCTTCCATTCTCACTACAATTTTTCCTCATCGCAATTTTTTTCCTCATCTTCGATCTAGAAATCGCCCTACTCCTTCCACTACCATGAGCGATCAACTCTACAACCCCAATAATAACCACTATTTGAACATTTACAATCATTACACTACTTACACTAGGATTAGTATATGAATGAACTCAAGGAGCCCTAGAATGAACAAAAACCTAAGGAATGAGTTTTTAAAAATAACTGATTTCGAACCAGTCGTTTTAGGTTTCAACCCTAAATTCCTAAGTGAATCAACTCCTATACACAACATTCTCACTAACAATACTAGGCACACTAATTAACCGAACACACTTTTTAACGACTCTGCTCTGCATGGAAGGAATAATAGTAACATTATTTACTATAATAACAATCACTCTCTCTAACACAGATATAACTTCAACTACAAGCATGCCAATTATATTAATCACTCTAGGTGCTTGCGAAGCAAGTACAGGACTAGCACTTCTAGTTACTACAACCAACACACACACCAATGACCATATAAAAAATTTTAAACTACTAAAATGCTAAAAATCCTAATCCCAACCATTATACTAATTCCATCAGCCACCCTCATCAAAAAAAACATACTTCACCTATCACTGTTAATCTATTCAACTATTCTAGCAACCCTAAGCTTACAATGACTAAAACCCCCTTTAACTCTAATTAAACACTCTAATCCATACCTTTCAATCGACCAAATTTCAGCCCCACTGTTAACACTATCCTACTGACTTCTACCTATTGCAATTCTAGCTAGCCAAAACCACCTAAAACATACAACACAAATACAAACGCGGATATTCCTCACATGTTTAGCCTCACTTCAAACACTATTAACCATAGCCCTCTCTTCAACAAACCTTATCCTCTTTTTTATTATATTTGAAGCCACCCTAATCCCAACAATAATTATTATTACACGCTGAGGAAGTCAAAAGGAACGACTAACCGCAGGAATATATTTTATATTTTACACCCTAATCAGCTCGATACCCCTCTTAATCGCACTTTTAATAATAAATTATCAAATAAACAATCTTAATATCATTTTAATACCAACAACTAACAAACCCAACACAATCATATGACTAGCATGCACAATAGCCTTCATAGTAAAAATACCACTATATGGACTTCACCTATGACTACCAAAAGCCCATGTAGAAGCCCCCATCGCAGGCTCCATGATTTTAGCAGCAATCCTGCTAAAACTTGGAGGCTACGGAATAATACGAATTTCACCCATGCTATGCCTAACCAAAACACTATATTACCCCTTCATCATTATGGCCCTATGGGGAATAATCATAACTAGCCTAATCTGTCTACGACAGCCGGACCTAAAATCACTCATCGCATACTCATCAGTCAGCCACATGGGCCTGGTAGTTGCAGCCACAATAATCCAAACACCATCTAGCCTCACCGGAGCCATAATTCTAATAGTAGCCCACGGCATCACCTCATCTATACTCTTCTGCCTTGCTAACATAATATATGAACGAACTCATACACGGACACTAACTATAATACAAGGAATTCAAACTACCCTCCCCCTAATAACAGCCTTCTGACTTACAGCCAACCTAACAAACATAGCCATCCCACCAACAATTAATCTAATAGGGGAAATCATAATTACCTCAACAATATTCAACTGATCCCCCCCAACCCTAATTTTAACAGGATCAGCAGCAACCATCACAGCTATCTACTCTATGTACATATTCTCAGCAATTCAACAGGGAAAAACACAAAAAGATATAATAATTTACCCCCCACAAACCCGAGAATACTTAGTTCTAATTCTACATGTAATACCAATAATTCTACTAATAATTAACCCACAAACCATTACATTAACCTAATACGCCGCGTTAGTTTAAAAAACATTAGCCTGTGGAGCTAAAAATGGGCTAACATACCCCACGCAGCTGAAAGGTTTACAAGAACTGCTAACTCCTACCCACTAGTGCTAACCCACTAGACCTTTCAACTTTTAAAGGAAAGCAGCTATCCGATGACCTTAGGAGTCAAGACTCTTGGTGCAAATCCAAGTAAAAGTAGTGAACCCAACACTTAACCTTGACACAACAATAATCTCAACACTAACCATCCTATCTACACTAGTGCTATTTACTTCCTTTCTACAAAAAAACACCAAATTTAACCTTTCTCCAGAAACAACAGTTATAACATCCTTCATAATCTCAACTATCCCAACAATGCTCTCACTAAAACTCACCCCCCACAGTACATCAATCAATCTAACCATAATACAAACTTCAACCCTCAATATCCACTCAACAATCTCTACCAACCTGAATTCCAACCTATTCCTGTCCATCGCCCTATTTGTAACATGAGCAATTATACAATTCTCCTCCTGATACATAAAAGATGCCCCAAAAATTAAACTTTTTAAAAAATACTTAATAGCGTTTCTAATCGCCATAATTATCCTAATACTTGCAGGCAGTATGATCCAACTATTCATTGGCTGAGAGGGCGTCGGTATTATATCTTTTTTACTCATTAACTGATGATACGCCCGCACATACGCCAATTCATCAGCCATACAAGCAATAACATACAACCGAATCGGGGATATCGGAATTATTTTAATCCTAGCATGACTTGCCATCAACCAAACCTCATGAGATATACAATCCATAGATCCTGACATAAACACAACAATACTAACAAGTGGACTAATCCTAGCCGCCGCAGGAAAATCCGCACAATTCTTCATACACATATGATTACCAAGTGCAATAGAAGGCCCAACTCCAGTCTCAGCCCTACTCCACTCTAGCACCATAGTTGTAGCTGGCATCTATCTACTAACCCAAATACACCACCTAATTAAAAACTCCAATATCTCTATAAATATCTGCCTATGATTAGGGGCAACCACCAGCCTATACGCCTCAATAACTGCTATATGTCAAAATGACCTTAAAAAAATCATTGCCATATCAACACTAAGCCAACTCGGCCTAATAATAGCCGCCATCGGACTCAACCAACCAAACCTTTCATTCATACACATTTCAACACACGCCTCAACCAAAGCAGCACTATTCTTATGCGCCGGTTCATTCATCCACAACCTACAAAACGAACAAGATATTCGAAAAATAGGGAATATAAAAGCCATACTACCAATCACATCAACATGCCTCGTTATCGCCAGCCTAGCCCTAATAGGCATGCCATTCTTATCCTGCTTCTACTCTAAAGACCCAATTATCGAAACCACCTTCACATCAAAAATAAACACATGAATCCTGATTACAATCATAACAGCAACTGCTATAACTTCCACCTACTCTATACGAATAATTTATTACACCCTAACTAAATATAATCGAAATAAACCAACCATAATAATCAAAGAAACCACCAACCAAATCAACCCAATCATTCGACTAACAATCCTATCAATCCTAGCCGGCACCATACTTTCTATTATCACAGCTCAAACAACCTCAGATCCAACCCTCCCAACAACAATAAAACTAACCCCAATACTAGCAATACTAGCAGGAATTTACTTAACCATTGAAACACTAGATAAACCAACCACCCACACCCCAAAACATAGCCCATTACTTATTCTAATAAACCAACTTGCCTTCTTCAAAATCACCCACCGATGAACACCAAAAAACACCCTAAAAATAGGAACTATAATCGCAACCCAACTGGTTGATCTTTTATGACTAGAAAAAGCAGGCCCAAAGACCATCACACTAATAAACAAAAATTCTTCTAAACTAACCAACCCATTAACCGGGCTGATAAAGTTGTACCTATCATCTATCACAATCACCACAGCATTAGCCTTATTTATAACACACCTCTGACTAGCAACTAACTAAAGCCCCCAAACGCCACCCACACACCAAATCTAAAACTACAAATAATGTTAATAACAGCACTACCCCTAGAATCAAAAAACAACCTCCCCCAAAAGAATACAACAATACTACTCCCCCTAAATCAACAACAACACCATTCAACAAAACAACACTACTAACCACACCCTCATCAAAAAACCACTCCCCACCCGTATATCACCACAAACAAAACAGATACCCTAAAAATCCAACCACATACAAAAAAACAGACCGATTACCCCAAGCCTCCGGATACATATCAGATGATATAGCAACCGAATAAACAAACACCACTAACATCCCACCCAAATAAACCAATATCAACACCAATGAAATAAAAGTACTACTCAAACCAGCCATAACACCAGCACCAAAAACAGACGCTAAAGCCAGTGACACTCCCCCAAAATACGGAGAGGGGTTACTAGCCACACCTACCATAAAAAATAGAAAAAAGCACAACATTAAAAAATACATCGTTCTCACCTGGACTAAAACCAGAACCTTCAACACGAAAAACTGATGTTGTTATTCAACTATAAAAACCATGACCATTGCACGAAAATCCAACCCAGCCCTAAAAATTATTAACCACTCACTTATTGACCTGCCTACCCCAACAAACATCTCAACAGCCTGAAACTTTGGATCGTTACTAGGCCTAATACTAGTAACACAAATTACAACCGGACTATTCCTAGCAATACACTACACAGCCGATATTAACCTAGCATTCTCCTCCATCGCACACATCTCCCGAGAAGTAAATTTTGGCTGACTAATACGAAACTTACATGCCAACGGAGCATCAATATTCTTTATTTGCATTTACCTGCACATCGGACGAGGCCTATATTACTCTTCCTACCTGTACAAAGAAACATGAAACATCGGCATTATACTTCTATTCCTAACAATGGCCACCGCATTCCTAGGCTACATTCTACCCTGAGGACAAATATCATTCTGAGGGGCAACCGTAATCACTAACATACTATCTGCAATCCCATACATTGGCAACAACCTTGTAAACTGAATTTGAGGTGGATTTTCAGTAAACAATCCAACTCTAGTTCGATTCTTCACACTACACTTCTTAACACCATTTTTAATCGCCGGAACCACTATACTACATCTACTGTTTCTACACGAAACTGGTTCCAACAACCCAACAGGACTCTCTTCTAATTCTGATAAAGTATCATTCCACCCATACTTCCCACTAAAAGACCTAACTACTGCAACAACAACCATTACCCTACTAACACTAATTGCCCTATTTCTACCGACACTACTAACAGACCCACAAAATTTTTCACCTGCCAACCCACTTTCAACTCCACCACATATCATACCAGAATGATACTTTCTCTTCGCCTACACCATCTTACGATCTATTCCAAACAAACTAGGAGGAGTCATAGCCCTATTCATGTCAATCCTAATCCTTATTCTCATACCCCTTCTTCACACATCCAAACAACGAACAATAAAATTTCGACCCTTCTCACAACTAATATTTTGAACCATAACAGCAAACATTCTAATTTTAACATGAATTGGCAGCCAACCAGTCGAACAACCACTTACAACAATCGGCCAAATTTCAACTACACTATACTTTCTGATTATCATTATATTCACACCTACACTAGCCCTAATAGAAAACAAAACTTTATAAACAGTCCCAGTAGCTAACACTTCAAAGCATTGGCCTTGTAAACCAAAGACGGGTTCAACCCCTGGGTCAAGCTTAGCCTTATACAACTCCAAGCTTAGCCTTATACAACTCCAAGCTTAGCCTTATACAACTCCAAGCTTAGCCTTATACAACTCCAAGCTTAGCCTTATACAATTCCAAGCTTAGCCTTATACAATTCCAAGCTTAGCCTTATACAATTCCAAGCTTAGCCTTATACAATTCCAAGCTTAGCCTTATACAATTCCAAGCTTAGCCTTATACAATTCCAAGCTTAGCCTTATACAATTCCAAGCTTAGCCTTATACAATTCCAAGCTTAGCCTTATACAATTCCAAGCTTAGCCTTATATACCCCCACAACTAGATTTTTCAGATATCTCTCGAAGCGCCGCCACACCCGAGAAATATAGTCAAACCCAATCGCCAAATAAACCTTACTGTCCCAACTAAGACCCTAAAATACATCGACATATACCATAATTTTTACACTATCTACACAAAACAACAAAACAACTACCAACATAAATTTGAACCACTCCTACCCACAACACACTTTATACTCACCCGAAACTTTACCCACCCAATTTAAACAAAAACAAAACACCACAAAACCCGACCACCACTCTATATTTTAGCCATTTTTTACTAAAATAAAAGCAGATAAAGATCGAGATAAAATTACCAGGTTAGGCCACACAATTTTCTTCGCAACACACTAGACCCATTTTCAATAAAAAACCCCCCGGGCGCCGCCACGTCCGACTATTGCCACTCAACTCTGATTGACAGTTATTTGACGACAAAAATAAAATATTAGTAATTTTTTAGTCATCGTAATTTGACGAAAACAGCCTATGTATTAATATAATACATATGTATATAGTACATCTAGTTATTTTCCTCATACATATCATATTATACATATATATTATTAATATTACTAGCTACATATTATGTTAATTTCACATATACCTCTCGACCTCATGGATATCATCTTCCAATCGTGGCCTCTCTTATCACTGAAGCATCTTGATCGTCCAATAGATGGATTTATTTATCTGGCAACTCACGAGAGATCAGCAACCCGCCATTTTAAGATACGCCGTTACCAGTCTCGTGGCTCATACCACACGTTACCACTAGTCTTGCCCTTTCCAAGACCTCGGGTTCCTATCTCAGGCACATTCTTGTATTAACACGCATACGGTGGTTTTTCCGAGACCTCTGATTAATGTGTGTGCTACATCTCACCCGTGACGTCGGCATTCCTTGGCACTCCCGGCATCTGGTATTTTTATTTTTTTTCTCTTCGACTTTCACAACCGCATATCGAGCTCTCCACCGATCCCGGTTTAGCGGGACCTATTAATGAGATGTATAGTCCACTTTTATATATGTTATCACATTCGTTTAATGCTTGGTAGACATAAAATTTCAAAAAAATCGCCATTTTTAACAGGCTTGTAAGGACCGCAGCACATTTTTTTCAAAAATATTTACTAAATTTGGCTGCAAAGCTAAAAATCCTGCTAAAATTTTAGTGCCCTTTTTGCGCGGAAAAGACCCGTTTCTGCTTTTTTTTAAAACACCGTTTCACTTGAGAATTCGACCGTGAAAAATTCAAAACACCCAAAAATATACAAGAGGATTTTCGTTTTTTTCCGATTTTTCCGCCCAAAAAAAAATCCGATCTCCTAACTTTTCGTCAACGCATTTTTCAAAAATTGAAAAAAAAATTACATTTTTTTTTAAAAAAATGGCCATTTTTTTTAAAAAAATGGTCATTTTTTTTAAAAATTTTAACTTTTTTTAAAAAAAAATTTTTTTTCCAAAAATTCTTTCATTTAGCAAGGATCTTCTACCGAGTGACACATCACAAAAAATGAAAATTTTCCATTTTTCCAAAAATTATTAACCAATAACTTCTAGATTAGCCAGTAAGTCTACTACTCTCAGTACCTTACCAGATTTTACACATTAAAAGAGGAATTGGACATCCATCACCGACTCCCAAAGCCGGAATTTTAGTTAAAACTATCTTTTAAAATTTTTAAATTTCAAAAAAACAAAAATTTACACGGCAAGTCTTGGACCGAAAATTTTTATCCTTTTTTCAAAACACAATATCCCCCTTGAACGCACCAAATTCTTTTTCGTATATATATATATATATACAAAAAGATAATATGCAAGATGTTGCATATTATCTTTCATATATATATATATATATGAATAAATAAATACATATACATTAATTACACACCAAGTCCTGGACCGAAAACACTTTTTAATAT'
p1098
sbsS'_per_letter_annotations'
p1099
g1
(cBio.SeqRecord
_RestrictedDict
p1100
c__builtin__
dict
p1101
(dtRp1102
(dp1103
S'_length'
p1104
I17433
sbsg102
S'NC_012420.1'
p1105
sS'name'
p1106
S'NC_012420'
p1107
sb.