ccopy_reg
_reconstructor
p1
(cBio.SeqRecord
SeqRecord
p2
c__builtin__
object
p3
NtRp4
(dp5
S'dbxrefs'
p6
(lp7
S'Project:10627 BioProject:PRJNA10627'
p8
asS'description'
p9
S'Pan troglodytes mitochondrion, complete genome.'
p10
sS'annotations'
p11
(dp12
S'comment'
p13
S'REVIEWED REFSEQ: This record has been curated by NCBI staff. The\nreference sequence was derived from D38113.\nCOMPLETENESS: full length.'
p14
sS'sequence_version'
p15
I1
sS'source'
p16
S'mitochondrion Pan troglodytes (chimpanzee)'
p17
sS'taxonomy'
p18
(lp19
S'Eukaryota'
p20
aS'Metazoa'
p21
aS'Chordata'
p22
aS'Craniata'
p23
aS'Vertebrata'
p24
aS'Euteleostomi'
p25
aS'Mammalia'
p26
aS'Eutheria'
p27
aS'Euarchontoglires'
p28
aS'Primates'
p29
aS'Haplorrhini'
p30
aS'Catarrhini'
p31
aS'Hominidae'
p32
aS'Pan'
p33
asS'keywords'
p34
(lp35
S''
asS'references'
p36
(lp37
g1
(cBio.SeqFeature
Reference
p38
g3
NtRp39
(dp40
g13
S''
sS'title'
p41
S'Recent African origin of modern humans revealed by complete sequences of hominoid mitochondrial DNAs'
p42
sS'consrtm'
p43
S''
sS'journal'
p44
S'Proc. Natl. Acad. Sci. U.S.A. 92 (2), 532-536 (1995)'
p45
sS'location'
p46
(lp47
sS'pubmed_id'
p48
S'7530363'
p49
sS'authors'
p50
S'Horai,S., Hayasaka,K., Kondo,R., Tsugane,K. and Takahata,N.'
p51
sS'medline_id'
p52
S''
sbag1
(g38
g3
NtRp53
(dp54
g13
S''
sg41
S"Man's place in Hominoidea revealed by mitochondrial DNA genealogy"
p55
sg43
S''
sg44
S'J. Mol. Evol. 35 (1), 32-43 (1992)'
p56
sg46
(lp57
sg48
S'1518083'
p58
sg50
S'Horai,S., Satta,Y., Hayasaka,K., Kondo,R., Inoue,T., Ishida,T., Hayashi,S. and Takahata,N.'
p59
sg52
S''
sbag1
(g38
g3
NtRp60
(dp61
g13
S''
sg41
S'Comparisons of ape and human sequences that regulate mitochondrial DNA transcription and D-loop DNA synthesis'
p62
sg43
S''
sg44
S'Nucleic Acids Res. 16 (13), 5841-5861 (1988)'
p63
sg46
(lp64
sg48
S'3399380'
p65
sg50
S'Foran,D.R., Hixson,J.E. and Brown,W.M.'
p66
sg52
S''
sbag1
(g38
g3
NtRp67
(dp68
g13
S''
sg41
S'A comparison of the small ribosomal RNA genes from the mitochondrial DNA of the great apes and humans: sequence, structure, evolution, and phylogenetic implications'
p69
sg43
S''
sg44
S'Mol. Biol. Evol. 3 (1), 1-18 (1986)'
p70
sg46
(lp71
sg48
S'3444394'
p72
sg50
S'Hixson,J.E. and Brown,W.M.'
p73
sg52
S''
sbag1
(g38
g3
NtRp74
(dp75
g13
S''
sg41
S'Direct Submission'
p76
sg43
S'NCBI Genome Project'
p77
sg44
S'Submitted (08-SEP-1999) National Center for Biotechnology Information, NIH, Bethesda, MD 20894, USA'
p78
sg46
(lp79
g1
(cBio.SeqFeature
FeatureLocation
p80
g3
NtRp81
(dp82
S'ref'
p83
NsS'_end'
p84
g1
(cBio.SeqFeature
ExactPosition
p85
c__builtin__
int
p86
I16554
tRp87
sS'_start'
p88
g1
(g85
g86
I0
tRp89
sS'_strand'
p90
NsS'ref_db'
p91
Nsbasg48
S''
sg50
S''
sg52
S''
sbag1
(g38
g3
NtRp92
(dp93
g13
S''
sg41
S'Direct Submission'
p94
sg43
S''
sg44
S'Submitted (02-SEP-1994) Human Genetics, National Institute of Genetics, 1,111 Yata, Mishima, Shizuoka 411, Japan'
p95
sg46
(lp96
g1
(g80
g3
NtRp97
(dp98
g83
Nsg84
g1
(g85
g86
I16554
tRp99
sg88
g1
(g85
g86
I0
tRp100
sg90
Nsg91
Nsbasg48
S''
sg50
S'Hayasaka,K.'
p101
sg52
S''
sbasS'accessions'
p102
(lp103
S'NC_001643'
p104
asS'data_file_division'
p105
S'PRI'
p106
sS'date'
p107
S'01-FEB-2010'
p108
sS'organism'
p109
S'Pan troglodytes'
p110
sS'gi'
p111
S'5835121'
p112
ssS'features'
p113
(lp114
g1
(cBio.SeqFeature
SeqFeature
p115
g3
NtRp116
(dp117
S'sub_features'
p118
(lp119
sS'location_operator'
p120
S''
sS'id'
p121
S'<unknown id>'
p122
sg46
g1
(g80
g3
NtRp123
(dp124
g83
Nsg84
g1
(g85
g86
I16554
tRp125
sg88
g1
(g85
g86
I0
tRp126
sg90
I1
sg91
NsbsS'type'
p127
S'source'
p128
sS'qualifiers'
p129
(dp130
S'organelle'
p131
(lp132
S'mitochondrion'
p133
asS'db_xref'
p134
(lp135
S'taxon:9598'
p136
asS'mol_type'
p137
(lp138
S'genomic DNA'
p139
asS'organism'
p140
(lp141
S'Pan troglodytes'
p142
assbag1
(g115
g3
NtRp143
(dp144
g118
(lp145
sg120
S''
sg121
g122
sg46
g1
(g80
g3
NtRp146
(dp147
g83
Nsg84
g1
(g85
g86
I71
tRp148
sg88
g1
(g85
g86
I0
tRp149
sg90
I1
sg91
Nsbsg127
S'tRNA'
p150
sg129
(dp151
S'product'
p152
(lp153
S'tRNA-Phe'
p154
assbag1
(g115
g3
NtRp155
(dp156
g118
(lp157
sg120
S''
sg121
g122
sg46
g1
(g80
g3
NtRp158
(dp159
g83
Nsg84
g1
(g85
g86
I1020
tRp160
sg88
g1
(g85
g86
I71
tRp161
sg90
I1
sg91
Nsbsg127
S'rRNA'
p162
sg129
(dp163
S'product'
p164
(lp165
S'12S ribosomal RNA'
p166
assbag1
(g115
g3
NtRp167
(dp168
g118
(lp169
sg120
S''
sg121
g122
sg46
g1
(g80
g3
NtRp170
(dp171
g83
Nsg84
g1
(g85
g86
I1089
tRp172
sg88
g1
(g85
g86
I1020
tRp173
sg90
I1
sg91
Nsbsg127
S'tRNA'
p174
sg129
(dp175
S'product'
p176
(lp177
S'tRNA-Val'
p178
assbag1
(g115
g3
NtRp179
(dp180
g118
(lp181
sg120
S''
sg121
g122
sg46
g1
(g80
g3
NtRp182
(dp183
g83
Nsg84
g1
(g85
g86
I2647
tRp184
sg88
g1
(g85
g86
I1089
tRp185
sg90
I1
sg91
Nsbsg127
S'rRNA'
p186
sg129
(dp187
S'product'
p188
(lp189
S'16S ribosomal RNA'
p190
assbag1
(g115
g3
NtRp191
(dp192
g118
(lp193
sg120
S''
sg121
g122
sg46
g1
(g80
g3
NtRp194
(dp195
g83
Nsg84
g1
(g85
g86
I1622
tRp196
sg88
g1
(g85
g86
I1480
tRp197
sg90
I1
sg91
Nsbsg127
S'STS'
p198
sg129
(dp199
S'db_xref'
p200
(lp201
S'UniSTS:150884'
p202
asS'standard_name'
p203
(lp204
S'D3S2893E'
p205
assbag1
(g115
g3
NtRp206
(dp207
g118
(lp208
sg120
S''
sg121
g122
sg46
g1
(g80
g3
NtRp209
(dp210
g83
Nsg84
g1
(g85
g86
I2722
tRp211
sg88
g1
(g85
g86
I2647
tRp212
sg90
I1
sg91
Nsbsg127
S'tRNA'
p213
sg129
(dp214
S'codon_recognized'
p215
(lp216
S'UUR'
p217
asS'product'
p218
(lp219
S'tRNA-Leu'
p220
assbag1
(g115
g3
NtRp221
(dp222
g118
(lp223
sg120
S''
sg121
g122
sg46
g1
(g80
g3
NtRp224
(dp225
g83
Nsg84
g1
(g85
g86
I3681
tRp226
sg88
g1
(cBio.SeqFeature
BeforePosition
p227
g86
I2724
tRp228
sg90
I1
sg91
Nsbsg127
S'gene'
p229
sg129
(dp230
S'db_xref'
p231
(lp232
S'GeneID:807867'
p233
asS'gene'
p234
(lp235
S'ND1'
p236
assbag1
(g115
g3
NtRp237
(dp238
g118
(lp239
sg120
S''
sg121
g122
sg46
g1
(g80
g3
NtRp240
(dp241
g83
Nsg84
g1
(g85
g86
I3681
tRp242
sg88
g1
(g227
g86
I2724
tRp243
sg90
I1
sg91
Nsbsg127
S'CDS'
p244
sg129
(dp245
S'product'
p246
(lp247
S'NADH dehydrogenase subunit 1'
p248
asS'codon_start'
p249
(lp250
S'1'
asS'transl_table'
p251
(lp252
S'2'
asS'db_xref'
p253
(lp254
S'GI:5835127'
p255
aS'GeneID:807867'
p256
asS'translation'
p257
(lp258
S'TPMTNLLLLIVPILIAMAFLMLTERKILGYMQLRKGPNIVGPYGLLQPFADAMKLFTKEPLKPSTSTITLYITAPTLALTIALLLWTPLPMPNPLVNLNLGLLFILATSSLAVYSILWSGWASNSNYALIGALRAVAQTISYEVTLAIILLSTLLMSGSFNLSTLVTTQEHLWLILPTWPLAMMWFISTLAETNRTPFDLTEGESELVSGFNIEYAAGPFALFFMAEYMNIIMMNTLTATIFLGATYNTHSPELYTTYFVTKALLLTSLFLWIRTAYPRFRYDQLMHLLWKNFLPLTLASLMWYISMPTTISSIPPQT'
p259
asS'gene'
p260
(lp261
S'ND1'
p262
asS'protein_id'
p263
(lp264
S'NP_008186.1'
p265
assbag1
(g115
g3
NtRp266
(dp267
g118
(lp268
sg120
S''
sg121
g122
sg46
g1
(g80
g3
NtRp269
(dp270
g83
Nsg84
g1
(g85
g86
I3749
tRp271
sg88
g1
(g85
g86
I3680
tRp272
sg90
I1
sg91
Nsbsg127
S'tRNA'
p273
sg129
(dp274
S'product'
p275
(lp276
S'tRNA-Ile'
p277
assbag1
(g115
g3
NtRp278
(dp279
g118
(lp280
sg120
S''
sg121
g122
sg46
g1
(g80
g3
NtRp281
(dp282
g83
Nsg84
g1
(g85
g86
I3818
tRp283
sg88
g1
(g85
g86
I3746
tRp284
sg90
I-1
sg91
Nsbsg127
S'tRNA'
p285
sg129
(dp286
S'product'
p287
(lp288
S'tRNA-Gln'
p289
assbag1
(g115
g3
NtRp290
(dp291
g118
(lp292
sg120
S''
sg121
g122
sg46
g1
(g80
g3
NtRp293
(dp294
g83
Nsg84
g1
(g85
g86
I3887
tRp295
sg88
g1
(g85
g86
I3819
tRp296
sg90
I1
sg91
Nsbsg127
S'tRNA'
p297
sg129
(dp298
S'product'
p299
(lp300
S'tRNA-Met'
p301
assbag1
(g115
g3
NtRp302
(dp303
g118
(lp304
sg120
S''
sg121
g122
sg46
g1
(g80
g3
NtRp305
(dp306
g83
Nsg84
g1
(g85
g86
I4931
tRp307
sg88
g1
(g85
g86
I3887
tRp308
sg90
I1
sg91
Nsbsg127
S'gene'
p309
sg129
(dp310
S'db_xref'
p311
(lp312
S'GeneID:807865'
p313
asS'gene'
p314
(lp315
S'ND2'
p316
assbag1
(g115
g3
NtRp317
(dp318
g118
(lp319
sg120
S''
sg121
g122
sg46
g1
(g80
g3
NtRp320
(dp321
g83
Nsg84
g1
(g85
g86
I4931
tRp322
sg88
g1
(g85
g86
I3887
tRp323
sg90
I1
sg91
Nsbsg127
S'CDS'
p324
sg129
(dp325
S'product'
p326
(lp327
S'NADH dehydrogenase subunit 2'
p328
asS'codon_start'
p329
(lp330
S'1'
asS'transl_table'
p331
(lp332
S'2'
asS'db_xref'
p333
(lp334
S'GI:5835126'
p335
aS'GeneID:807865'
p336
asS'translation'
p337
(lp338
S'MNPLAQPIIYSTILTGTLITALSSHWFFTWVGLEMNMLAFIPILTKKMSPRSTEAAIKYFLTQATASMILLMAILSNSMLSGQWTMTNTTNQYSSLMIMMAMAMKLGMAPFHFWVPEVTQGTPLMSGLLLLTWQKLAPISIMYQISSSLNVNLLLTLSILSIMAGSWGGLNQTQLRKILAYSSITHMGWMMAVLPYNPNMTILNLTIYIILTTTAFLLLNLNSSTTTLLLSRTWNKLTWLTPLIPSTLLSLGGLPPLTGFLPKWVIIEEFTKNNSLIIPTIMAIITLLNLYFYLRLIYSTSITLLPMSNNVKMKWQFEHTKPTPFLPTLITLTTLLLPISPFMLMIL'
p339
asS'gene'
p340
(lp341
S'ND2'
p342
asS'protein_id'
p343
(lp344
S'NP_008187.1'
p345
assbag1
(g115
g3
NtRp346
(dp347
g118
(lp348
sg120
S''
sg121
g122
sg46
g1
(g80
g3
NtRp349
(dp350
g83
Nsg84
g1
(g85
g86
I4997
tRp351
sg88
g1
(g85
g86
I4929
tRp352
sg90
I1
sg91
Nsbsg127
S'tRNA'
p353
sg129
(dp354
S'product'
p355
(lp356
S'tRNA-Trp'
p357
assbag1
(g115
g3
NtRp358
(dp359
g118
(lp360
sg120
S''
sg121
g122
sg46
g1
(g80
g3
NtRp361
(dp362
g83
Nsg84
g1
(g85
g86
I5073
tRp363
sg88
g1
(g85
g86
I5004
tRp364
sg90
I-1
sg91
Nsbsg127
S'tRNA'
p365
sg129
(dp366
S'product'
p367
(lp368
S'tRNA-Ala'
p369
assbag1
(g115
g3
NtRp370
(dp371
g118
(lp372
sg120
S''
sg121
g122
sg46
g1
(g80
g3
NtRp373
(dp374
g83
Nsg84
g1
(g85
g86
I5147
tRp375
sg88
g1
(g85
g86
I5074
tRp376
sg90
I-1
sg91
Nsbsg127
S'tRNA'
p377
sg129
(dp378
S'product'
p379
(lp380
S'tRNA-Asn'
p381
assbag1
(g115
g3
NtRp382
(dp383
g118
(lp384
sg120
S''
sg121
g122
sg46
g1
(g80
g3
NtRp385
(dp386
g83
Nsg84
g1
(g85
g86
I5244
tRp387
sg88
g1
(g85
g86
I5178
tRp388
sg90
I-1
sg91
Nsbsg127
S'tRNA'
p389
sg129
(dp390
S'product'
p391
(lp392
S'tRNA-Cys'
p393
assbag1
(g115
g3
NtRp394
(dp395
g118
(lp396
sg120
S''
sg121
g122
sg46
g1
(g80
g3
NtRp397
(dp398
g83
Nsg84
g1
(g85
g86
I5309
tRp399
sg88
g1
(g85
g86
I5243
tRp400
sg90
I-1
sg91
Nsbsg127
S'tRNA'
p401
sg129
(dp402
S'product'
p403
(lp404
S'tRNA-Tyr'
p405
assbag1
(g115
g3
NtRp406
(dp407
g118
(lp408
sg120
S''
sg121
g122
sg46
g1
(g80
g3
NtRp409
(dp410
g83
Nsg84
g1
(g85
g86
I6862
tRp411
sg88
g1
(g85
g86
I5320
tRp412
sg90
I1
sg91
Nsbsg127
S'gene'
p413
sg129
(dp414
S'db_xref'
p415
(lp416
S'GeneID:807866'
p417
asS'gene'
p418
(lp419
S'COX1'
p420
assbag1
(g115
g3
NtRp421
(dp422
g118
(lp423
sg120
S''
sg121
g122
sg46
g1
(g80
g3
NtRp424
(dp425
g83
Nsg84
g1
(g85
g86
I6862
tRp426
sg88
g1
(g85
g86
I5320
tRp427
sg90
I1
sg91
Nsbsg127
S'CDS'
p428
sg129
(dp429
S'product'
p430
(lp431
S'cytochrome c oxidase subunit I'
p432
asS'codon_start'
p433
(lp434
S'1'
asS'transl_table'
p435
(lp436
S'2'
asS'db_xref'
p437
(lp438
S'GI:5835128'
p439
aS'GeneID:807866'
p440
asS'translation'
p441
(lp442
S'MFTDRWLFSTNHKDIGTLYLLFGAWAGVLGTALSLLIRAELGQPGNLLGNDHIYNVIVTAHAFVMIFFMVMPIMIGGFGNWLVPLMIGAPDMAFPRMNNMSFWLLPPSLLLLLASAMVEAGAGTGWTVYPPLAGNYSHPGASVDLTIFSLHLAGISSILGAINFITTIINMKPPAMTQYQTPLFVWSVLITAVLLLLSLPVLAAGITMLLTDRNLNTTFFDPAGGGDPILYQHLFWFFGHPEVYILILPGFGMISHIVTYYSGKKEPFGYMGMVWAMMSIGFLGFIVWAHHMFTVGMDVDTRAYFTSATMIIAIPTGVKVFSWLATLHGSNMKWSAAVLWALGFIFLFTVGGLTGIVLANSSLDIVLHDTYYVVAHFHYVLSMGAVFAIMGGFIHWFPLFSGYTLDQTYAKIQFAIMFIGVNLTFFPQHFLGLSGMPRRYSDYPDAYTTWNVLSSVGSFISLTAVMLMIFMIWEAFASKRKVLMVEEPSANLEWLYGCPPPYHTFEEPVYMKS'
p443
asS'gene'
p444
(lp445
S'COX1'
p446
asS'protein_id'
p447
(lp448
S'NP_008188.1'
p449
assbag1
(g115
g3
NtRp450
(dp451
g118
(lp452
sg120
S''
sg121
g122
sg46
g1
(g80
g3
NtRp453
(dp454
g83
Nsg84
g1
(g85
g86
I6933
tRp455
sg88
g1
(g85
g86
I6861
tRp456
sg90
I-1
sg91
Nsbsg127
S'tRNA'
p457
sg129
(dp458
S'codon_recognized'
p459
(lp460
S'UCN'
p461
asS'product'
p462
(lp463
S'tRNA-Ser'
p464
assbag1
(g115
g3
NtRp465
(dp466
g118
(lp467
sg120
S''
sg121
g122
sg46
g1
(g80
g3
NtRp468
(dp469
g83
Nsg84
g1
(g85
g86
I7801
tRp470
sg88
g1
(g85
g86
I6899
tRp471
sg90
I1
sg91
Nsbsg127
S'STS'
p472
sg129
(dp473
S'db_xref'
p474
(lp475
S'UniSTS:271962'
p476
asS'standard_name'
p477
(lp478
S'PMC20756P2'
p479
assbag1
(g115
g3
NtRp480
(dp481
g118
(lp482
sg120
S''
sg121
g122
sg46
g1
(g80
g3
NtRp483
(dp484
g83
Nsg84
g1
(g85
g86
I7782
tRp485
sg88
g1
(g85
g86
I6899
tRp486
sg90
I1
sg91
Nsbsg127
S'STS'
p487
sg129
(dp488
S'db_xref'
p489
(lp490
S'UniSTS:270154'
p491
asS'standard_name'
p492
(lp493
S'PMC109173P1'
p494
assbag1
(g115
g3
NtRp495
(dp496
g118
(lp497
sg120
S''
sg121
g122
sg46
g1
(g80
g3
NtRp498
(dp499
g83
Nsg84
g1
(g85
g86
I7002
tRp500
sg88
g1
(g85
g86
I6934
tRp501
sg90
I1
sg91
Nsbsg127
S'tRNA'
p502
sg129
(dp503
S'product'
p504
(lp505
S'tRNA-Asp'
p506
assbag1
(g115
g3
NtRp507
(dp508
g118
(lp509
sg120
S''
sg121
g122
sg46
g1
(g80
g3
NtRp510
(dp511
g83
Nsg84
g1
(g85
g86
I7686
tRp512
sg88
g1
(g85
g86
I7002
tRp513
sg90
I1
sg91
Nsbsg127
S'gene'
p514
sg129
(dp515
S'db_xref'
p516
(lp517
S'GeneID:807864'
p518
asS'gene'
p519
(lp520
S'COX2'
p521
assbag1
(g115
g3
NtRp522
(dp523
g118
(lp524
sg120
S''
sg121
g122
sg46
g1
(g80
g3
NtRp525
(dp526
g83
Nsg84
g1
(g85
g86
I7686
tRp527
sg88
g1
(g85
g86
I7002
tRp528
sg90
I1
sg91
Nsbsg127
S'CDS'
p529
sg129
(dp530
S'product'
p531
(lp532
S'cytochrome c oxidase subunit II'
p533
asS'codon_start'
p534
(lp535
S'1'
asS'transl_table'
p536
(lp537
S'2'
asS'db_xref'
p538
(lp539
S'GI:5835122'
p540
aS'GeneID:807864'
p541
asS'translation'
p542
(lp543
S'MAHAAQVGLQDATSPIMEELIIFHDHALMIIFLICFLVLYALFLTLTTKLTNTSISDAQEMETVWTILPAIILVLIALPSLRILYMTDEVNDPSFTIKSIGHQWYWTYEYTDYGGLIFNSYMLPPLFLEPGDLRLLDVDNRVVLPVEAPVRMMITSQDVLHSWAVPTLGLKTDAIPGRLNQTTFTATRPGVYYGQCSEICGANHSFMPIVLELIPLKIFEMGPVFTL'
p544
asS'gene'
p545
(lp546
S'COX2'
p547
asS'protein_id'
p548
(lp549
S'NP_008189.1'
p550
assbag1
(g115
g3
NtRp551
(dp552
g118
(lp553
sg120
S''
sg121
g122
sg46
g1
(g80
g3
NtRp554
(dp555
g83
Nsg84
g1
(g85
g86
I7782
tRp556
sg88
g1
(g85
g86
I7712
tRp557
sg90
I1
sg91
Nsbsg127
S'tRNA'
p558
sg129
(dp559
S'product'
p560
(lp561
S'tRNA-Lys'
p562
assbag1
(g115
g3
NtRp563
(dp564
g118
(lp565
sg120
S''
sg121
g122
sg46
g1
(g80
g3
NtRp566
(dp567
g83
Nsg84
g1
(g85
g86
I7990
tRp568
sg88
g1
(g85
g86
I7783
tRp569
sg90
I1
sg91
Nsbsg127
S'gene'
p570
sg129
(dp571
S'db_xref'
p572
(lp573
S'GeneID:807862'
p574
asS'gene'
p575
(lp576
S'ATP8'
p577
assbag1
(g115
g3
NtRp578
(dp579
g118
(lp580
sg120
S''
sg121
g122
sg46
g1
(g80
g3
NtRp581
(dp582
g83
Nsg84
g1
(g85
g86
I7990
tRp583
sg88
g1
(g85
g86
I7783
tRp584
sg90
I1
sg91
Nsbsg127
S'CDS'
p585
sg129
(dp586
S'product'
p587
(lp588
S'ATP synthase F0 subunit 8'
p589
asS'codon_start'
p590
(lp591
S'1'
asS'transl_table'
p592
(lp593
S'2'
asS'db_xref'
p594
(lp595
S'GI:5835123'
p596
aS'GeneID:807862'
p597
asS'translation'
p598
(lp599
S'MPQLNTAVWPTMITPMLLTLFLVTQLKMLNSNYHLPPSPKPMKMKNYNKPWEPKWTKIYSLHSLPPQS'
p600
asS'gene'
p601
(lp602
S'ATP8'
p603
asS'protein_id'
p604
(lp605
S'NP_008190.1'
p606
assbag1
(g115
g3
NtRp607
(dp608
g118
(lp609
sg120
S''
sg121
g122
sg46
g1
(g80
g3
NtRp610
(dp611
g83
Nsg84
g1
(g85
g86
I8625
tRp612
sg88
g1
(g85
g86
I7944
tRp613
sg90
I1
sg91
Nsbsg127
S'gene'
p614
sg129
(dp615
S'db_xref'
p616
(lp617
S'GeneID:807859'
p618
asS'gene'
p619
(lp620
S'ATP6'
p621
assbag1
(g115
g3
NtRp622
(dp623
g118
(lp624
sg120
S''
sg121
g122
sg46
g1
(g80
g3
NtRp625
(dp626
g83
Nsg84
g1
(g85
g86
I8625
tRp627
sg88
g1
(g85
g86
I7944
tRp628
sg90
I1
sg91
Nsbsg127
S'CDS'
p629
sg129
(dp630
S'product'
p631
(lp632
S'ATP synthase F0 subunit 6'
p633
asS'codon_start'
p634
(lp635
S'1'
asS'transl_table'
p636
(lp637
S'2'
asS'db_xref'
p638
(lp639
S'GI:5835129'
p640
aS'GeneID:807859'
p641
asS'translation'
p642
(lp643
S'MNENLFASFAAPTILGLPAAVLIILFPPLLVPTSKHLINNRLITTQQWLIQLTSKQMMTMHSTKGRTWSLMLVSLIIFITTTNLLGLLPHSFTPTTQLSMNLAMAIPLWAGAVVMGFRFKTKNALAHFLPQGTPTPLIPMLVIIETISLLIQPMALAVRLTANITAGHLLMHLIGSATLALSTINLPYALIIFTILILLTILEIAVALIQAYVFTLLVSLYLHDNT'
p644
asS'gene'
p645
(lp646
S'ATP6'
p647
asS'protein_id'
p648
(lp649
S'NP_008191.1'
p650
assbag1
(g115
g3
NtRp651
(dp652
g118
(lp653
sg120
S''
sg121
g122
sg46
g1
(g80
g3
NtRp654
(dp655
g83
Nsg84
g1
(g85
g86
I9408
tRp656
sg88
g1
(g85
g86
I8624
tRp657
sg90
I1
sg91
Nsbsg127
S'gene'
p658
sg129
(dp659
S'db_xref'
p660
(lp661
S'GeneID:807869'
p662
asS'gene'
p663
(lp664
S'COX3'
p665
assbag1
(g115
g3
NtRp666
(dp667
g118
(lp668
sg120
S''
sg121
g122
sg46
g1
(g80
g3
NtRp669
(dp670
g83
Nsg84
g1
(g85
g86
I9408
tRp671
sg88
g1
(g85
g86
I8624
tRp672
sg90
I1
sg91
Nsbsg127
S'CDS'
p673
sg129
(dp674
S'product'
p675
(lp676
S'cytochrome c oxidase subunit III'
p677
asS'transl_except'
p678
(lp679
S'(pos:9408,aa:TERM)'
p680
asS'codon_start'
p681
(lp682
S'1'
asS'transl_table'
p683
(lp684
S'2'
asS'note'
p685
(lp686
S"TAA stop codon is completed by the addition of 3' A residues to the mRNA"
p687
asS'db_xref'
p688
(lp689
S'GI:5835130'
p690
aS'GeneID:807869'
p691
asS'translation'
p692
(lp693
S'MTHQSHAYHMVKPSPWPLTGALSALLMTSGLAMWFHFYSTTLLTLGLLTNTLTMYQWWRDVMREGTYQGHHTPPVQKGLRYGMILFITSEVFFFAGFFWAFYHSSLAPTPQLGGHWPPTGITPLNPLEVPLLNTSVLLASGVSITWAHHSLMENNRNQMIQALLITILLGLYFTLLQASEYFESPFTISDGIYGSTFFVATGFHGLHVIIGSTFLTICLIRQLMFHFTSKHHFGFQAAAWYWHFVDVVWLFLYVSIYWWGS'
p694
asS'gene'
p695
(lp696
S'COX3'
p697
asS'protein_id'
p698
(lp699
S'NP_008192.1'
p700
assbag1
(g115
g3
NtRp701
(dp702
g118
(lp703
sg120
S''
sg121
g122
sg46
g1
(g80
g3
NtRp704
(dp705
g83
Nsg84
g1
(g85
g86
I9476
tRp706
sg88
g1
(g85
g86
I9408
tRp707
sg90
I1
sg91
Nsbsg127
S'tRNA'
p708
sg129
(dp709
S'product'
p710
(lp711
S'tRNA-Gly'
p712
assbag1
(g115
g3
NtRp713
(dp714
g118
(lp715
sg120
S''
sg121
g122
sg46
g1
(g80
g3
NtRp716
(dp717
g83
Nsg84
g1
(g85
g86
I9822
tRp718
sg88
g1
(g85
g86
I9476
tRp719
sg90
I1
sg91
Nsbsg127
S'gene'
p720
sg129
(dp721
S'db_xref'
p722
(lp723
S'GeneID:807870'
p724
asS'gene'
p725
(lp726
S'ND3'
p727
assbag1
(g115
g3
NtRp728
(dp729
g118
(lp730
sg120
S''
sg121
g122
sg46
g1
(g80
g3
NtRp731
(dp732
g83
Nsg84
g1
(g85
g86
I9822
tRp733
sg88
g1
(g85
g86
I9476
tRp734
sg90
I1
sg91
Nsbsg127
S'CDS'
p735
sg129
(dp736
S'product'
p737
(lp738
S'NADH dehydrogenase subunit 3'
p739
asS'transl_except'
p740
(lp741
S'(pos:9822,aa:TERM)'
p742
asS'codon_start'
p743
(lp744
S'1'
asS'transl_table'
p745
(lp746
S'2'
asS'note'
p747
(lp748
S"TAA stop codon is completed by the addition of 3' A residues to the mRNA'"
p749
asS'db_xref'
p750
(lp751
S'GI:5835131'
p752
aS'GeneID:807870'
p753
asS'translation'
p754
(lp755
S'MNFVLILMTNTLLALLLMIITFWLPQLNSYMEKSTPYECGFDPMSPARVPFSMKFFLVAITFLLFDLEIALLLPLPWALQTANLPLMVTSSLLLITILALSLAYEWLQKGLDWTE'
p756
asS'gene'
p757
(lp758
S'ND3'
p759
asS'protein_id'
p760
(lp761
S'NP_008193.1'
p762
assbag1
(g115
g3
NtRp763
(dp764
g118
(lp765
sg120
S''
sg121
g122
sg46
g1
(g80
g3
NtRp766
(dp767
g83
Nsg84
g1
(g85
g86
I9887
tRp768
sg88
g1
(g85
g86
I9822
tRp769
sg90
I1
sg91
Nsbsg127
S'tRNA'
p770
sg129
(dp771
S'product'
p772
(lp773
S'tRNA-Arg'
p774
assbag1
(g115
g3
NtRp775
(dp776
g118
(lp777
sg120
S''
sg121
g122
sg46
g1
(g80
g3
NtRp778
(dp779
g83
Nsg84
g1
(g85
g86
I10184
tRp780
sg88
g1
(g85
g86
I9887
tRp781
sg90
I1
sg91
Nsbsg127
S'gene'
p782
sg129
(dp783
S'db_xref'
p784
(lp785
S'GeneID:807868'
p786
asS'gene'
p787
(lp788
S'ND4L'
p789
assbag1
(g115
g3
NtRp790
(dp791
g118
(lp792
sg120
S''
sg121
g122
sg46
g1
(g80
g3
NtRp793
(dp794
g83
Nsg84
g1
(g85
g86
I10184
tRp795
sg88
g1
(g85
g86
I9887
tRp796
sg90
I1
sg91
Nsbsg127
S'CDS'
p797
sg129
(dp798
S'product'
p799
(lp800
S'NADH dehydrogenase subunit 4L'
p801
asS'codon_start'
p802
(lp803
S'1'
asS'transl_table'
p804
(lp805
S'2'
asS'db_xref'
p806
(lp807
S'GI:5835124'
p808
aS'GeneID:807868'
p809
asS'translation'
p810
(lp811
S'MPLIYMNIMLAFTISLLGMLVYRSHLMSSLLCLEGMMLSLFIMATLMTLNTHSLLANIVPITMLVFAACEAAVGLALLVSISNTYGLDYVHNLNLLQC'
p812
asS'gene'
p813
(lp814
S'ND4L'
p815
asS'protein_id'
p816
(lp817
S'NP_008194.1'
p818
assbag1
(g115
g3
NtRp819
(dp820
g118
(lp821
sg120
S''
sg121
g122
sg46
g1
(g80
g3
NtRp822
(dp823
g83
Nsg84
g1
(g85
g86
I11555
tRp824
sg88
g1
(g85
g86
I10177
tRp825
sg90
I1
sg91
Nsbsg127
S'gene'
p826
sg129
(dp827
S'db_xref'
p828
(lp829
S'GeneID:807863'
p830
asS'gene'
p831
(lp832
S'ND4'
p833
assbag1
(g115
g3
NtRp834
(dp835
g118
(lp836
sg120
S''
sg121
g122
sg46
g1
(g80
g3
NtRp837
(dp838
g83
Nsg84
g1
(g85
g86
I11555
tRp839
sg88
g1
(g85
g86
I10177
tRp840
sg90
I1
sg91
Nsbsg127
S'CDS'
p841
sg129
(dp842
S'product'
p843
(lp844
S'NADH dehydrogenase subunit 4'
p845
asS'transl_except'
p846
(lp847
S'(pos:11555,aa:TERM)'
p848
asS'codon_start'
p849
(lp850
S'1'
asS'transl_table'
p851
(lp852
S'2'
asS'note'
p853
(lp854
S"TAA stop codon is completed by the addition of 3' A residues to the mRNA"
p855
asS'db_xref'
p856
(lp857
S'GI:5835132'
p858
aS'GeneID:807863'
p859
asS'translation'
p860
(lp861
S'MLKLIIPTIMLLPLTWFSKKRMIWINTTTHSLIISTIPLLFFNQINNNLFSCSLPFSSDPLTTPLLMLTAWLLPLTIMASQRHLSNEPLSRKKLYLSMLISLQISLIMTFSATELIMFYIFFETTLIPTLAIITRWGNQPERLNAGTYFLFYTLVGSLPLLIALIYTHNTLGSLNILLLTLTTQELSNTWANNLMWLAYTMAFMVKMPLYGLHLWLPKAHVEAPIAGSMVLAAVLLKLGGYGMMRLTLILNPLTKHMAYPFLMLSLWGMIMTSSICLRQTDLKSLIAYPSVSHMALVVTAILIQTPWSFTGAIILMIAHGLTSSLLSCLANSNYERTHSRIMILSQGLQTLLPLMAFWWLLASLANLALPPTINLLGELSVLVTSFSWSNTTLLLTGFNMLITALYSLYMFTTTQWGSLTHHINSMKPSFTRENTLMFLHLSPILLLSLNPDIITGFTS'
p862
asS'gene'
p863
(lp864
S'ND4'
p865
asS'protein_id'
p866
(lp867
S'NP_008195.1'
p868
assbag1
(g115
g3
NtRp869
(dp870
g118
(lp871
sg120
S''
sg121
g122
sg46
g1
(g80
g3
NtRp872
(dp873
g83
Nsg84
g1
(g85
g86
I11624
tRp874
sg88
g1
(g85
g86
I11555
tRp875
sg90
I1
sg91
Nsbsg127
S'tRNA'
p876
sg129
(dp877
S'product'
p878
(lp879
S'tRNA-His'
p880
assbag1
(g115
g3
NtRp881
(dp882
g118
(lp883
sg120
S''
sg121
g122
sg46
g1
(g80
g3
NtRp884
(dp885
g83
Nsg84
g1
(g85
g86
I11683
tRp886
sg88
g1
(g85
g86
I11624
tRp887
sg90
I1
sg91
Nsbsg127
S'tRNA'
p888
sg129
(dp889
S'codon_recognized'
p890
(lp891
S'AGY'
p892
asS'product'
p893
(lp894
S'tRNA-Ser'
p895
assbag1
(g115
g3
NtRp896
(dp897
g118
(lp898
sg120
S''
sg121
g122
sg46
g1
(g80
g3
NtRp899
(dp900
g83
Nsg84
g1
(g85
g86
I11754
tRp901
sg88
g1
(g85
g86
I11683
tRp902
sg90
I1
sg91
Nsbsg127
S'tRNA'
p903
sg129
(dp904
S'codon_recognized'
p905
(lp906
S'CUN'
p907
asS'product'
p908
(lp909
S'tRNA-Leu'
p910
assbag1
(g115
g3
NtRp911
(dp912
g118
(lp913
sg120
S''
sg121
g122
sg46
g1
(g80
g3
NtRp914
(dp915
g83
Nsg84
g1
(g85
g86
I13566
tRp916
sg88
g1
(g85
g86
I11754
tRp917
sg90
I1
sg91
Nsbsg127
S'gene'
p918
sg129
(dp919
S'db_xref'
p920
(lp921
S'GeneID:807860'
p922
asS'gene'
p923
(lp924
S'ND5'
p925
assbag1
(g115
g3
NtRp926
(dp927
g118
(lp928
sg120
S''
sg121
g122
sg46
g1
(g80
g3
NtRp929
(dp930
g83
Nsg84
g1
(g85
g86
I13566
tRp931
sg88
g1
(g85
g86
I11754
tRp932
sg90
I1
sg91
Nsbsg127
S'CDS'
p933
sg129
(dp934
S'product'
p935
(lp936
S'NADH dehydrogenase subunit 5'
p937
asS'codon_start'
p938
(lp939
S'1'
asS'transl_table'
p940
(lp941
S'2'
asS'db_xref'
p942
(lp943
S'GI:5835125'
p944
aS'GeneID:807860'
p945
asS'translation'
p946
(lp947
S'MTMYATMTTLALTSLIPPILGALINPNKKNSYPHYVKSIIASTFIISLFPTTMFMCLDQETIISNWHWATTQTTQLSLSFKLDYFSMTFIPVALFVTWSIMEFSLWYMDSDPNINQFFKYLLIFLITMLILVTANNLFQLFIGWEGVGIMSFLLISWWYARTDANTAAIQAILYNRIGDIGFVLALAWFLLHSNSWDPQQMILLSTNTDLTPLLGFLLAAAGKSAQLGLHPWLPSAMEGPTPVSALLHSSTMVVAGIFLLIRFYPLAENNPLIQTLTLCLGAITTLFAAVCALTQNDIKKIVAFSTSSQLGLMMVTIGINQPHLAFLHICTHAFFKAMLFMCSGSIIHNLNNEQDIRKMGGLLKTMPLTSTSLTIGSLALAGMPFLTGFYSKDLIIETANMSYTNAWALSITLIATSLTSAYSTRMILLTLTGQPRFPTLTNINENNPTLLNPIKRLTIGSLFAGFLITNNILPMSTPQVTIPLYLKLTALGVTSLGLLTALDLNYLTSKLKMKSPLYTFHFSNMLGFYPNIMHRSIPYLGLLTSQNLPLLLLDLTWLEKLLPKTISQYQISASITTSTQKGMIKLYFLSFFFPLILTLLLIT'
p948
asS'gene'
p949
(lp950
S'ND5'
p951
asS'protein_id'
p952
(lp953
S'NP_008196.1'
p954
assbag1
(g115
g3
NtRp955
(dp956
g118
(lp957
sg120
S''
sg121
g122
sg46
g1
(g80
g3
NtRp958
(dp959
g83
Nsg84
g1
(g85
g86
I14091
tRp960
sg88
g1
(g85
g86
I13566
tRp961
sg90
I-1
sg91
Nsbsg127
S'gene'
p962
sg129
(dp963
S'db_xref'
p964
(lp965
S'GeneID:807861'
p966
asS'gene'
p967
(lp968
S'ND6'
p969
assbag1
(g115
g3
NtRp970
(dp971
g118
(lp972
sg120
S''
sg121
g122
sg46
g1
(g80
g3
NtRp973
(dp974
g83
Nsg84
g1
(g85
g86
I14091
tRp975
sg88
g1
(g85
g86
I13566
tRp976
sg90
I-1
sg91
Nsbsg127
S'CDS'
p977
sg129
(dp978
S'product'
p979
(lp980
S'NADH dehydrogenase subunit 6'
p981
asS'codon_start'
p982
(lp983
S'1'
asS'transl_table'
p984
(lp985
S'2'
asS'db_xref'
p986
(lp987
S'GI:5835133'
p988
aS'GeneID:807861'
p989
asS'translation'
p990
(lp991
S'MTYALFLLSVSLVMGFVGFSSKPSPIYGGLVLIVSGVVGCAIILNYGGGYMGLMVFLIYLGGMMVVFGYTTAMAIEEYPEAWGSGVEVLVSVLVGLAMEVGLVLWVKGYDGMVVVVNFNSVGSWMIYEGEGPGLIREDPIGAGALYDYGRWLVVVTGWTLFVGVYIVIEIARGN'
p992
asS'gene'
p993
(lp994
S'ND6'
p995
asS'protein_id'
p996
(lp997
S'NP_008197.1'
p998
assbag1
(g115
g3
NtRp999
(dp1000
g118
(lp1001
sg120
S''
sg121
g122
sg46
g1
(g80
g3
NtRp1002
(dp1003
g83
Nsg84
g1
(g85
g86
I14160
tRp1004
sg88
g1
(g85
g86
I14091
tRp1005
sg90
I-1
sg91
Nsbsg127
S'tRNA'
p1006
sg129
(dp1007
S'product'
p1008
(lp1009
S'tRNA-Glu'
p1010
assbag1
(g115
g3
NtRp1011
(dp1012
g118
(lp1013
sg120
S''
sg121
g122
sg46
g1
(g80
g3
NtRp1014
(dp1015
g83
Nsg84
g1
(g85
g86
I15305
tRp1016
sg88
g1
(g85
g86
I14164
tRp1017
sg90
I1
sg91
Nsbsg127
S'gene'
p1018
sg129
(dp1019
S'db_xref'
p1020
(lp1021
S'GeneID:807858'
p1022
asS'gene'
p1023
(lp1024
S'CYTB'
p1025
assbag1
(g115
g3
NtRp1026
(dp1027
g118
(lp1028
sg120
S''
sg121
g122
sg46
g1
(g80
g3
NtRp1029
(dp1030
g83
Nsg84
g1
(g85
g86
I15305
tRp1031
sg88
g1
(g85
g86
I14164
tRp1032
sg90
I1
sg91
Nsbsg127
S'CDS'
p1033
sg129
(dp1034
S'product'
p1035
(lp1036
S'cytochrome b'
p1037
asS'transl_except'
p1038
(lp1039
S'(pos:15305,aa:TERM)'
p1040
asS'codon_start'
p1041
(lp1042
S'1'
asS'transl_table'
p1043
(lp1044
S'2'
asS'note'
p1045
(lp1046
S"TAA stop codon is completed by the addition of 3' A residues to the mRNA"
p1047
asS'db_xref'
p1048
(lp1049
S'GI:5835134'
p1050
aS'GeneID:807858'
p1051
asS'translation'
p1052
(lp1053
S'MTPTRKINPLMKLINHSFIDLPTPSNISAWWNFGSLLGACLILQITTGLFLAMHYSPDASTAFSSIAHITRDVNYGWIIRYLHANGASMFFICLFLHIGRGLYYGSFLYLETWNIGIILLLTTMATAFMGYVLPWGQMSFWGATVITNLLSAIPYIGTDLVQWVWGGYSVDSPTLTRFFTFHFILPFIITALTTLHLLFLHETGSNNPLGITSHSDKITFHPYYTIKDILGLFLFLLILMTLTLFSPGLLGDPDNYTLANPLNTPPHIKPEWYFLFAYTILRSIPNKLGGVLALLLSILILTAIPVLHTSKQQSMMFRPLSQLLYWLLATDLLILTWIGGQPVSYPFITIGQMASVLYFTTILILMPIASLIENKMLEWT'
p1054
asS'gene'
p1055
(lp1056
S'CYTB'
p1057
asS'protein_id'
p1058
(lp1059
S'NP_008198.1'
p1060
assbag1
(g115
g3
NtRp1061
(dp1062
g118
(lp1063
sg120
S''
sg121
g122
sg46
g1
(g80
g3
NtRp1064
(dp1065
g83
Nsg84
g1
(g85
g86
I14339
tRp1066
sg88
g1
(g85
g86
I14229
tRp1067
sg90
I1
sg91
Nsbsg127
S'STS'
p1068
sg129
(dp1069
S'db_xref'
p1070
(lp1071
S'UniSTS:151029'
p1072
asS'standard_name'
p1073
(lp1074
S'D5S1608E'
p1075
asS'gene'
p1076
(lp1077
S'CYTB'
p1078
assbag1
(g115
g3
NtRp1079
(dp1080
g118
(lp1081
sg120
S''
sg121
g122
sg46
g1
(g80
g3
NtRp1082
(dp1083
g83
Nsg84
g1
(g85
g86
I15371
tRp1084
sg88
g1
(g85
g86
I15305
tRp1085
sg90
I1
sg91
Nsbsg127
S'tRNA'
p1086
sg129
(dp1087
S'product'
p1088
(lp1089
S'tRNA-Thr'
p1090
assbag1
(g115
g3
NtRp1091
(dp1092
g118
(lp1093
sg120
S''
sg121
g122
sg46
g1
(g80
g3
NtRp1094
(dp1095
g83
Nsg84
g1
(g85
g86
I15441
tRp1096
sg88
g1
(g85
g86
I15373
tRp1097
sg90
I-1
sg91
Nsbsg127
S'tRNA'
p1098
sg129
(dp1099
S'product'
p1100
(lp1101
S'tRNA-Pro'
p1102
assbag1
(g115
g3
NtRp1103
(dp1104
g118
(lp1105
sg120
S''
sg121
g122
sg46
g1
(g80
g3
NtRp1106
(dp1107
g83
Nsg84
g1
(g85
g86
I15837
tRp1108
sg88
g1
(g85
g86
I15395
tRp1109
sg90
I1
sg91
Nsbsg127
S'STS'
p1110
sg129
(dp1111
S'db_xref'
p1112
(lp1113
S'UniSTS:271472'
p1114
asS'standard_name'
p1115
(lp1116
S'PMC16238P1'
p1117
assbag1
(g115
g3
NtRp1118
(dp1119
g118
(lp1120
sg120
S''
sg121
g122
sg46
g1
(g80
g3
NtRp1121
(dp1122
g83
Nsg84
g1
(g85
g86
I16554
tRp1123
sg88
g1
(g85
g86
I15441
tRp1124
sg90
I1
sg91
Nsbsg127
S'D-loop'
p1125
sg129
(dp1126
sbasS'_seq'
p1127
g1
(cBio.Seq
Seq
p1128
g3
NtRp1129
(dp1130
S'alphabet'
p1131
g1
(cBio.Alphabet.IUPAC
IUPACAmbiguousDNA
p1132
g3
NtRp1133
sS'_data'
p1134
S'GTTTATGTAGCTTACCCCCTCAAAGCAATACACTGAAAATGTTTCGACGGGTTTACATCACCCCATAAACAAACAGGTTTGGTCCTAGCCTTTCTATTAGCTCTTAGTAAGATTACACATGCAAGCATCCCCGCCCCGTGAGTCACCCTCTAAATCGCCATGATCAAAAGGAACAAGTATCAAGCACGCAGCAATGCAGCTCAAAACGCTTAGCCTAGCCACACCCCCACGGGAGACAGCAGTGATAAACCTTTAGCAATAAACGAAAGTTTAACTAAGCCATACTAACCTCAGGGTTGGTCAATTTCGTGCTAGCCACCGCGGTCATACGATTAACCCAAGTCAATAGAAACCGGCGTAAAGAGTGTTTTAGATCACCCCCCCATAAAGCTAAAATTCACCTGAGTTGTAAAAAACTCCAGCTGATACAAAATAAACTACGAAAGTGGCTTTAACACATCTGAATACACAATAGCTAAGACCCAAACTGGGATTAGATACCCCACTATGCTTAGCCCTAAACTTCAACAGTTAAATTAACAAAACTGCTCGCCAGAACACTACGAGCCACAGCTTAAAACTCAAAGGACCTGGCGGTGCTTCATATCCCTCTAGAGGAGCCTGTTCTGTAATCGATAAACCCCGATCAACCTCACCGCCTCTTGCTCAGCCTATATACCGCCATCTTCAGCAAACCCTGATGAAGGTTACAAAGTAAGCACAAGTACCCACGTAAAGACGTTAGGTCAAGGTGTAGCCTATGAGGTGGCAAGAAATGGGCTACATTTTCTACCCCAGAAAATTACGATAACCCTTATGAAACCTAAGGGTCAAAGGTGGATTTAGCAGTAAACTAAGAGTAGAGTGCTTAGTTGAACAGGGCCCTGAAGCGCGTACACACCGCCCGTCACCCTCCTCAAGTATACTTCAAAGGATACTTAACTTAAACCCCCTACGTATTTATATAGAGGAGATAAGTCGTAACATGGTAAGTGTACTGGAAAGTGCACTTGGACGAACCAGAGTGTAGCTTAACATAAAGCACCCAACTTACACTTAGGAGATTTCAACTCAACTTGACCACTCTGAGCCAAACCTAGCCCCAAACCCCCTCCACCCTACTACCAAACAACCTTAACCAAACCATTTACCCAAATAAAGTATAGGCGATAGAAATTGTAAACCGGCGCAATAGACATAGTACCGCAAGGGAAAGATGAAAAATTATACCCAAGCATAATACAGCAAGGACTAACCCCTGTACCTTTTGCATAATGAATTAACTAGAAATAACTTTGCAAAGAGAACCAAAGCTAAGACCCCCGAAACCAGACGAGCTACCTAAGAACAGCTAAAAGAGCACACCCGTCTATGTAGCAAAATAGTGGGAAGATTTATAGGTAGAGGCGACAAACCTACCGAGCCTGGTGATAGCTGGTTGTCCAAGATAGAATCTTAGTTCAACTTTAAATTTACCTACAGAACCCTCTAAATCCCCTTGTAAACTTAACTGTTAGTCCAAAGAGGAACAGCTCTTTAGACACTAGGAAAAAACCTTGTAAAGAGAGTAAAAAATTTAACACCCATAGTAGGCCTAAAAGCAGCCACCAATTAAGAAAGCGTTCAAGCTCAACACCCACAACCTTAAAGATCCCAAACATACAACCGAACTCCTTACACCCAATTGGACCAATCTATTACCCCATAGAAGAACTAATGTTAGTATAAGTAACATGAAAACATTCTCCTCCGCATAAGCCTACATCAGACCAAAATATTAAACTGACAATTAACAGCCTAATATCTACAATCAACCAACAAGCCATTATTACCCCCGCTGTTAACCCAACACAGGCATGCCCACAAGGAAAGGTTAAAAAAAGTAAAAGGAACTCGGCAAATCTTACCCCGCCTGTTTACCAAAAACATCACCTCTAGCATTACCAGTATTAGAGGCACCGCCTGCCCGGTGACATATGTTTAACGGCCGCGGTACCCTAACCGTGCAAAGGTAGCATAATCACTTGTTCCTTAAATAGGGACTTGTATGAATGGCTCCACGAGGGTTTAGCTGTCTCTTACTTTCAACCAGTGAAATTGACCTACCCGTGAAGAGGCGGGCATAACATAACAAGACGAGAAGACCCTATGGAGCTTTAATTCATTAATGCAAACAATACTTAACAAACCTACAGGTCCTAAACTATTAAACCTGCATTAAAAATTTCGGTTGGGGCGACCTCGGAGCACAACCCAACCTCCGAGCAATACATGCTAAGACCTCACCAGTCAAAGCGAATTACTACATCCAATTGATCCAATGACTTGACCAACGGAACAAGTTACCCTAGGGATAACAGCGCAATCCTATTCCAGAGTCCATATCAACAATAGGGTTTACGACCTCGATGTTGGATCAGGACATCCCGATGGTGCAGCCGCTATTAAAGGTTCGTTTGTTCAACGATTAAAGTCCTACGTGATCTGAGTTCAGACCGGAGTAATCCAGGTCGGTTTCTATCTGTTCTAAATTTCTCCCTGTACGAAAGGACAAGAGAAATGAGGCCTACTTCACAAAGCGCCTTCCCCAATAAATGATATTATCTCAATTTAGCGCCATGCCAACACCCACTCAAGAACAGAGTTTGTTAAGATGGCAGAGCCCGGTAATTGCATAAAACTTAAAACTTTACAATCAGAGGTTCAATTCCTCTTCTTGACAACACACCCATGACCAACCTCCTACTCCTCATTGTACCCATCCTAATCGCAATAGCATTCCTAATGCTAACCGAACGAAAAATTCTAGGCTACATACAACTACGCAAAGGTCCCAACATTGTAGGTCCTTACGGGCTATTACAGCCCTTCGCTGACGCCATAAAACTCTTCACTAAAGAACCCTTAAAACCCTCCACTTCAACCATTACCCTCTACATCACCGCCCCAACCCTAGCCCTCACCATTGCCCTCTTACTATGAACCCCCCTCCCCATACCCAACCCCCTAGTCAATCTTAACTTAGGCCTCCTATTTATTCTAGCCACCTCCAGCCTAGCCGTTTACTCAATCCTCTGATCAGGGTGAGCATCAAACTCGAACTACGCCTTAATCGGTGCACTACGAGCAGTAGCCCAAACAATCTCATACGAAGTCACTCTAGCCATTATCCTACTGTCAACGCTACTAATAAGTGGCTCCTTCAATCTCTCTACCCTTGTCACAACACAAGAGCACCTCTGACTAATCCTGCCAACATGACCCCTGGCCATAATATGATTTATCTCTACACTAGCAGAGACCAACCGAACTCCCTTCGACCTTACTGAAGGAGAATCTGAACTAGTCTCAGGCTTTAATATCGAGTATGCCGCAGGCCCCTTTGCCCTATTTTTCATAGCCGAATACATAAACATTATTATAATAAACACCCTCACTGCTACAATCTTCCTAGGAGCAACATACAATACTCACTCCCCTGAACTCTACACGACATATTTTGTCACCAAAGCTCTACTTCTAACCTCCCTGTTCCTATGAATTCGAACAGCATATCCCCGATTTCGCTACGACCAGCTCATACACCTCCTATGAAAAAACTTCCTACCACTCACCCTAGCATCACTCATGTGATATATCTCCATACCCACTACAATCTCCAGCATCCCCCCTCAAACCTAAGAAATATGTCTGATAAAAGAATTACTTTGATAGAGTAAATAATAGGAGTTCAAATCCCCTTATTTCTAGGACTATAAGAATCGAACTCATCCCTGAGAATCCAAAATTCTCCGTGCCACCTATCACACCCCATCCTAAAGTAAGGTCAGCTAAATAAGCTATCGGGCCCATACCCCGAAAATGTTGGTTACACCCTTCCCGTACTAATTAATCCCCTAGCCCAACCCATCATCTACTCTACCATCCTTACAGGCACGCTCATTACAGCGCTAAGCTCACACTGATTTTTCACCTGAGTAGGCCTAGAAATAAATATACTAGCTTTTATCCCAATCCTAACCAAAAAAATAAGCCCCCGCTCCACAGAAGCCGCCATCAAATACTTTCTCACACAAGCAACTGCGTCCATAATTCTCCTGATAGCTATCCTCTCCAACAGCATACTCTCCGGACAATGAACCATAACCAATACTACCAATCAATACTCATCATTAATAATTATAATAGCAATGGCAATAAAACTAGGAATAGCCCCCTTTCACTTTTGAGTTCCAGAAGTTACCCAAGGCACCCCCCTAATATCCGGCCTACTCCTCCTCACATGACAAAAATTAGCCCCTATTTCAATTATATACCAAATCTCCTCATCACTGAACGTAAACCTTCTCCTCACCCTTTCAATCTTGTCCATTATAGCAGGCAGCTGAGGCGGACTAAACCAAACCCAACTACGCAAAATCCTAGCATACTCCTCAATCACCCACATAGGCTGAATAATAGCAGTCCTACCATATAACCCTAACATAACCATTCTTAATTTAACCATTTACATCATCCTAACTACTACCGCATTTCTGCTACTCAACTTAAACTCCAGCACCACAACCCTACTACTATCTCGCACCTGAAACAAGCTAACATGATTAACTCCCCTAATTCCATCCACCCTCCTCTCCCTAGGAGGCCTACCCCCACTAACTGGCTTCTTACCCAAATGAGTTATCATCGAAGAATTCACAAAAAATAATAGCCTCATCATCCCCACCATCATAGCCATCATCACTCTCCTTAACCTCTATTTCTACCTACGCCTAATCTACTCCACCTCAATTACACTACTTCCCATATCTAATAACGTAAAAATAAAATGACAATTCGAACATACAAAACCCACCCCCTTCCTCCCTACACTCATCACCCTTACCACACTGCTTCTACCCATCTCCCCCTTCATACTAATAATCTTATAGAAATTTAGGTTAAGCACAGACCAAGAGCCTTCAAAGCCCTCAGCAAGTTACAATACTTAATTTCTGCAACAACTAAGGACTGCAAAACCCCACTCTGCATCAACTGAACGCAAATCAGCCACTTTAATTAAGCTAAGCCCTTACTAGATTAATGGGACTTAAACCCACAAACATTTAGTTAACAGCTAAACACCCTAATCAACTGGCTTCAATCTACTTCTCCCGCCGCAAGAAAAAAAGGCGGGAGAAGCCCCGGCAGGTTTGAAGCTGCTTCTTCGAATTTGCAATTCAATATGAAAATCACCTCAGAGCTGGTAAAAAGAGGCTTAACCCCTGTCTTTAGATTTACAGTCCAATGCTTCACTCAGCCATTTTACCCCACCCTACTGATGTTCACCGACCGCTGACTATTCTCTACAAACCACAAAGATATTGGAACACTATACCTACTATTCGGTGCATGAGCTGGAGTCCTGGGCACAGCCCTAAGTCTCCTTATTCGGGCTGAACTAGGCCAACCAGGCAACCTCCTAGGTAATGACCACATCTACAATGTCATCGTCACAGCCCATGCATTCGTAATAATCTTCTTCATAGTAATGCCTATTATAATCGGAGGCTTTGGCAACTGGCTAGTTCCCTTGATAATTGGTGCCCCCGACATGGCATTCCCCCGCATAAACAACATAAGCTTCTGGCTCCTGCCCCCTTCTCTCCTACTTCTACTTGCATCTGCCATAGTAGAAGCCGGCGCGGGAACAGGTTGAACAGTCTACCCTCCCTTAGCGGGAAACTACTCGCATCCTGGAGCCTCCGTAGACCTAACCATCTTCTCCTTACATCTGGCAGGCATCTCCTCTATCCTAGGAGCCATTAACTTCATCACAACAATTATTAATATAAAACCTCCTGCCATGACCCAATACCAAACACCCCTCTTCGTCTGATCCGTCCTAATCACAGCAGTCTTACTTCTCCTATCCCTCCCAGTCCTAGCTGCTGGCATCACCATACTATTGACAGATCGTAACCTCAACACTACCTTCTTCGACCCAGCCGGGGGAGGAGACCCTATTCTATATCAACACTTATTCTGATTTTTTGGCCACCCCGAAGTTTATATTCTTATCCTACCAGGCTTCGGAATAATTTCCCACATTGTAACTTATTACTCCGGAAAAAAAGAACCATTTGGATATATAGGCATGGTTTGAGCTATAATATCAATTGGCTTCCTAGGGTTTATCGTGTGAGCACACCATATATTTACAGTAGGGATAGACGTAGACACCCGAGCCTATTTCACCTCCGCTACCATAATCATTGCTATTCCTACCGGCGTCAAAGTATTCAGCTGACTCGCTACACTTCACGGAAGCAATATGAAATGATCTGCCGCAGTACTCTGAGCCCTAGGGTTTATCTTTCTCTTCACCGTAGGTGGCCTAACCGGCATTGTACTAGCAAACTCATCATTAGACATCGTGCTACACGACACATACTACGTCGTAGCCCACTTCCACTACGTTCTATCAATAGGAGCTGTATTCGCCATCATAGGAGGCTTCATTCACTGATTCCCCCTATTCTCAGGCTATACCCTAGACCAAACCTATGCCAAAATCCAATTTGCCATCATGTTCATTGGCGTAAACCTAACCTTCTTCCCACAGCACTTCCTTGGCCTATCTGGGATGCCCCGACGTTACTCGGACTACCCCGATGCATACACCACATGAAATGTCCTATCATCCGTAGGCTCATTTATCTCCCTGACAGCAGTAATATTAATAATTTTCATGATTTGAGAAGCCTTTGCTTCAAAACGAAAAGTCCTAATAGTAGAAGAGCCCTCCGCAAACCTGGAATGACTATATGGATGCCCCCCACCCTACCACACATTCGAAGAACCCGTATACATAAAATCTAGACAAAAAAGGAAGGAATCGAACCCCCTAAAGCTGGTTTCAAGCCAACCCCATGACCTCCATGACTTTTTCAAAAAGATATTAGAAAAACTATTTCATAACTTTGTCAAAGTTAAATTACAGGTTAACCCCCGTATATCTTAATGGCACATGCAGCGCAAGTAGGTCTACAAGATGCTACTTCCCCTATCATAGAAGAACTTATTATCTTTCACGACCATGCCCTCATAATTATCTTTCTCATCTGCTTTCTAGTCCTATACGCCCTTTTCCTAACACTCACAACAAAACTAACTAATACTAGTATTTCAGACGCCCAGGAAATAGAAACCGTCTGAACTATCCTGCCCGCCATCATCCTAGTCCTTATTGCCCTACCATCCCTGCGTATCCTTTACATAACAGACGAGGTCAACGACCCCTCCTTTACTATTAAATCAATCGGCCATCAATGATATTGAACCTACGAATACACCGACTACGGCGGGCTAATCTTCAACTCCTACATACTCCCCCCATTATTTCTAGAACCAGGTGATCTACGACTCCTTGACGTTGATAACCGAGTGGTCCTCCCAGTTGAAGCCCCCGTTCGTATAATAATTACATCACAAGATGTTCTACACTCATGAGCTGTTCCCACATTAGGCCTAAAAACAGACGCAATTCCCGGACGCCTAAACCAAACCACTTTCACCGCCACACGACCAGGAGTATACTACGGCCAATGCTCAGAAATCTGTGGAGCAAACCACAGTTTTATACCCATCGTCCTAGAATTAATCCCTCTAAAAATCTTTGAAATAGGACCCGTATTCACTCTATAGCACCTTCTCTACCCCTCTCCAGAGCTCACTGTAAAGCTAACCTAGCATTAACCTTTTAAGTTAAAGATTAAGAGGACCGACACCTCTTTACAGTGAAATGCCCCAACTAAATACCGCCGTATGACCCACCATAATTACCCCCATACTCCTGACACTATTTCTCGTCACCCAACTAAAAATATTAAATTCAAATTACCATCTACCCCCCTCACCAAAACCCATAAAAATAAAAAACTACAATAAACCCTGAGAACCAAAATGAACGAAAATCTATTCGCTTCATTCGCTGCCCCCACAATCCTAGGCTTACCCGCCGCAGTACTAATCATTCTATTCCCCCCTCTACTGGTCCCCACTTCTAAACATCTCATCAACAACCGACTAATTACCACCCAACAATGACTAATTCAACTGACCTCAAAACAAATAATAACTATACACAGCACTAAAGGACGAACCTGATCTCTCATACTAGTATCCTTAATCATTTTTATTACCACAACCAATCTTCTTGGGCTTCTACCCCACTCATTCACACCAACCACCCAACTATCTATAAACCTAGCCATGGCTATCCCCCTATGAGCAGGCGCAGTAGTCATAGGCTTTCGCTTTAAGACTAAAAATGCCCTAGCCCACTTCTTACCGCAAGGCACACCTACACCCCTTATCCCCATACTAGTTATCATCGAAACTATTAGCCTACTCATTCAACCAATAGCCTTAGCCGTACGTCTAACCGCTAACATTACTGCAGGCCACCTACTCATGCACCTAATTGGAAGCGCCACACTAGCATTATCAACTATCAATCTACCCTATGCACTCATTATCTTCACAATTCTAATCCTACTGACTATTCTAGAGATCGCCGTCGCCTTAATCCAAGCCTACGTTTTTACACTTCTAGTGAGCCTCTACCTGCACGACAACACATAATGACCCACCAATCACATGCCTACCACATAGTAAAACCCAGCCCATGACCCCTAACAGGGGCCCTCTCGGCCCTCCTAATAACCTCCGGCCTGGCCATATGATTCCACTTCTACTCCACAACACTACTCACACTAGGCTTACTAACTAACACATTGACCATATATCAATGATGACGCGATGTTATACGAGAAGGCACATACCAAGGCCACCACACACCACCCGTCCAAAAAGGTCTCCGATATGGGATAATTCTTTTTATTACCTCAGAAGTTTTTTTCTTTGCAGGATTTTTTTGAGCTTTCTACCACTCCAGCCTAGCCCCTACCCCCCAGCTAGGAGGACACTGGCCCCCAACAGGTATTACCCCACTAAATCCCCTAGAAGTCCCACTCCTAAACACATCTGTATTACTCGCATCAGGAGTATCAATTACTTGAGCCCATCACAGCTTAATAGAAAATAACCGAAACCAAATAATTCAAGCACTGCTTATTACGATTCTACTAGGTCTTTATTTTACCCTCCTACAAGCCTCAGAATATTTCGAATCCCCTTTTACCATTTCCGATGGCATCTACGGCTCAACATTCTTTGTAGCCACAGGCTTCCACGGACTCCACGTCATTATTGGATCAACTTTCCTCACTATCTGCCTCATCCGCCAACTAATATTTCACTTCACATCCAAACATCACTTCGGCTTTCAAGCCGCCGCCTGATACTGACACTTCGTAGATGTAGTCTGACTATTTCTATATGTCTCTATTTACTGATGAGGATCTTACTCTTTTAGTATAAGTAGTACCGTTAACTTCCAATTAACTAGTTTTGACAACATTCAAAAAAGAGTAATAAACTTCGTCCTAATTTTAATAACCAATACCCTTCTAGCCCTACTACTGATAATTATCACATTCTGACTACCACAACTCAACAGCTACATAGAAAAATCTACCCCTTACGAATGTGGCTTCGACCCTATATCCCCCGCCCGCGTCCCCTTCTCCATAAAATTTTTCCTAGTAGCCATCACCTTCCTATTATTTGACCTAGAAATTGCCCTCCTATTGCCCTTACCTTGAGCCCTACAAACGGCCAACCTACCACTAATAGTCACATCATCCCTCTTATTAATTACTATCCTAGCCCTAAGCCTCGCCTACGAATGATTACAAAAAGGGTTAGACTGAACCGAATTGGTATATAGTTTAAATAAAACGAATGATTTCGACTCATTAAATTATGATAATCATATTTACCAAATGCCCCTTATTTATATAAATATTATACTAGCATTTACCATCTCACTTCTAGGAATACTAGTATATCGCTCACACCTAATATCTTCCCTACTATGCCTAGAAGGAATAATACTATCACTGTTCATCATAGCCACCCTCATAACCCTCAATACTCACTCCCTCTTAGCCAATATTGTACCCATCACCATACTAGTCTTTGCTGCCTGCGAAGCAGCAGTAGGTCTAGCACTACTAGTTTCAATCTCTAACACATATGGCTTAGACTACGTACATAACCTAAACCTACTCCAATGCTAAAACTAATCATCCCGACAATTATATTACTACCACTAACATGATTCTCTAAAAAACGTATAATTTGAATCAACACAACCACTCACAGCCTAATTATCAGCACCATTCCCTTACTATTTTTTAACCAAATTAACAACAACCTATTCAGCTGTTCCCTGCCCTTCTCCTCCGACCCCTTAACAACTCCCCTCCTAATATTAACTGCTTGACTTCTACCCCTCACAATCATAGCAAGCCAGCGCCACCTATCCAACGAACCACTATCACGAAAAAAACTCTACCTCTCCATGCTAATTTCCCTCCAAATCTCCTTAATTATAACATTCTCGGCCACAGAGCTAATTATATTTTATATCTTCTTCGAAACCACACTTATCCCCACCCTGGCTATCATCACCCGATGGGGTAACCAACCAGAACGCCTGAACGCAGGTACATACTTCCTATTCTATACCCTAGTAGGCTCCCTCCCCCTACTCATCGCACTAATCTATACCCACAACACCCTAGGCTCACTAAATATCCTATTACTCACTCTTACAACCCAAGAACTATCAAACACCTGAGCCAACAACTTAATATGACTAGCGTACACGATGGCTTTCATGGTAAAAATACCCCTTTACGGACTCCACCTATGACTCCCTAAAGCCCATGTCGAAGCCCCTATTGCCGGGTCAATGGTACTTGCTGCAGTACTCTTAAAATTAGGTGGCTATGGCATAATACGCCTCACACTCATCCTCAACCCCCTAACAAAACATATAGCCTATCCCTTCCTCATGTTGTCCTTATGAGGTATAATCATAACAAGCTCCATCTGCCTGCGACAAACAGACCTAAAATCGCTCATTGCATACCCTTCAGTCAGCCACATAGCCCTCGTAGTAACAGCCATTCTCATCCAAACCCCCTGAAGCTTCACCGGCGCAATTATCCTCATAATCGCCCACGGACTTACATCCTCATTATTATCCTGCCTAGCAAACTCAAATTATGAACGCACCCACAGTCGCATCATAATTCTCTCCCAAGGACTTCAAACTCTACTCCCACTAATAGCCTTTTGATGACTCCTGGCAAGCCTCGCTAACCTCGCCCTACCCCCTACCATTAATCTCCTAGGGGAACTCTCCGTGCTAGTAACCTCATTCTCCTGATCAAATACCACTCTCCTACTCACAGGATTCAACATACTAATCACAGCCCTGTACTCCCTCTACATGTTTACCACAACACAATGAGGCTCACTCACCCACCACATTAATAGCATAAAGCCCTCATTCACACGAGAAAACACTCTCATATTTTTACACCTATCCCCCATCCTCCTTCTATCCCTCAATCCTGATATCATCACTGGATTCACCTCCTGTAAATATAGTTTAACCAAAACATCAGATTGTGAATCTGACAACAGAGGCTCACGACCCCTTATTTACCGAGAAAGCTTATAAGAACTGCTAACTCGTATTCCCATGCCTAACAACATGGCTTTCTCAACTTTTAAAGGATAACAGTTATCCATTGGTCTTAGGCCCCAAAAATTTTGGTGCAACTCCAAATAAAAGTAATAACCATGTATGCTACCATAACCACCTTAGCCCTAACTTCCTTAATTCCCCCCATCCTCGGCGCCCTCATTAACCCTAACAAAAAAAACTCATACCCCCATTACGTGAAATCCATTATCGCATCCACCTTTATCATTAGCCTTTTCCCCACAACAATATTCATATGCCTAGACCAAGAAACTATTATCTCGAACTGACACTGAGCAACAACCCAAACAACCCAACTCTCCCTGAGCTTTAAACTAGACTATTTCTCCATAACATTTATCCCCGTAGCACTGTTCGTTACATGATCCATCATAGAATTCTCACTATGATATATAGACTCAGACCCCAACATCAACCAATTCTTCAAATACTTACTTATCTTCCTAATTACTATACTAATCCTAGTCACCGCTAACAACCTATTCCAACTCTTCATCGGCTGAGAAGGCGTAGGAATTATATCCTTTCTACTCATTAGCTGATGGTACGCCCGAACAGATGCCAACACAGCAGCCATCCAAGCAATCCTATATAACCGTATCGGTGATATTGGTTTTGTCCTAGCCCTAGCATGATTTCTCCTACACTCCAACTCATGAGATCCACAACAAATAATCCTCCTAAGTACTAATACAGACCTTACTCCACTACTAGGCTTCCTCCTAGCAGCAGCAGGCAAATCAGCTCAACTAGGCCTTCACCCCTGACTCCCCTCAGCCATAGAAGGCCCTACCCCTGTTTCAGCCCTACTCCACTCAAGCACCATAGTCGTAGCAGGAATCTTCCTACTCATCCGCTTCTACCCCCTAGCAGAGAATAACCCACTAATCCAAACTCTCACGCTATGCCTAGGCGCTATCACCACCCTATTCGCAGCAGTCTGCGCCCTCACACAAAATGACATCAAAAAAATCGTGGCCTTCTCCACTTCAAGCCAACTAGGACTCATAATAGTTACAATCGGTATCAACCAACCACACCTAGCATTCCTTCACATCTGCACCCACGCTTTCTTCAAAGCCATACTATTCATATGCTCCGGATCCATTATTCACAACCTCAATAATGAGCAAGACATTCGAAAAATAGGAGGATTACTCAAAACCATACCCCTCACTTCAACCTCCCTCACCATTGGGAGCCTAGCATTAGCAGGAATACCCTTCCTCACAGGTTTCTACTCCAAAGACCTCATCATCGAAACCGCTAACATATCATACACAAACGCCTGAGCCCTATCTATTACTCTCATCGCCACCTCTCTGACAAGCGCCTACAGCACCCGAATAATCCTCCTCACCCTAACAGGTCAACCTCGCTTCCCAACCCTCACCAACATTAACGAAAACAACCCCACTCTGTTAAATCCCATTAAACGCCTAACCATTGGAAGCTTATTTGCAGGATTTCTCATTACCAACAACATTCTCCCCATATCTACTCCCCAAGTGACAATTCCCCTTTACTTAAAACTTACAGCCCTAGGCGTTACTTCCCTAGGACTTCTAACAGCCCTAGACCTCAATTACCTAACCAGCAAGCTCAAAATAAAATCCCCACTATATACATTTCACTTCTCTAATATACTCGGATTCTACCCTAACATTATACACCGCTCGATCCCCTATCTAGGCCTTCTTACAAGCCAAAACCTACCCCTACTTCTTCTAGACCTGACCTGACTAGAGAAACTATTACCTAAAACAATTTCACAGTACCAAATCTCCGCTTCCATTACCACCTCAACCCAAAAAGGCATGATCAAACTTTATTTCCTCTCTTTTTTCTTCCCTCTCATCTTAACCTTACTCCTAATCACATAACCTATTCCCCCGAGCAATCTCAATCACAATGTATACACCAACAAACAATGTCCAACCAGTAACTACTACTAACCAACGCCCATAATCATATAAGGCCCCCGCACCAATAGGATCCTCCCGAATCAGCCCTGGCCCCTCCCCTTCATAAATTATTCAACTTCCCACGCTATTAAAATTTACCACAACCACCATCCCATCATACCCTTTTACCCATAACACTAATCCTACCTCCATCGCCAGTCCTACTAAAACACTAACCAAAACCTCAACCCCTGACCCCCATGCCTCAGGATACTCCTCAATAGCCATAGCCGTAGTATACCCAAAAACAACCATTATTCCCCCCAAATAAATTAAAAAAACCATTAAACCTATATAACCTCCCCCATAATTCAAAATGATGGCACACCCAACTACACCACTAACAATCAATACTAAACCCCCATAAATGGGAGAAGGCTTAGAAGAAAACCCCACAAACCCTATCACTAAACTCACACTCAATAAAAATAAAGCATATGTCATTATTCTCGCACGGACTACAACCACGACCAATGATATGAAAAACCATCGTTGTATTTCAACTACAAGAACACCAATGACCCCGACACGCAAAATTAACCCACTAATAAAATTAATTAATCACTCATTTATCGACCTCCCCACCCCATCCAACATTTCCGCATGATGGAACTTCGGCTCACTTCTCGGCGCCTGCCTAATCCTTCAAATTACCACAGGATTATTCCTAGCTATACACTACTCACCAGACGCCTCAACCGCCTTCTCGTCGATCGCCCACATCACCCGAGACGTAAACTATGGTTGGATCATCCGCTACCTCCACGCTAACGGCGCCTCAATATTTTTTATCTGCCTCTTCCTACACATCGGCCGAGGTCTATATTACGGCTCATTTCTCTACCTAGAAACCTGAAACATTGGCATTATCCTCTTGCTCACAACCATAGCAACAGCCTTTATGGGCTATGTCCTCCCATGAGGCCAAATATCCTTCTGAGGAGCCACAGTAATTACAAACCTACTGTCCGCTATCCCATACATCGGAACAGACCTGGTCCAGTGAGTCTGAGGAGGCTACTCAGTAGACAGCCCTACCCTTACACGATTCTTCACCTTCCACTTTATCTTACCCTTCATCATCACAGCCCTAACAACACTTCATCTCCTATTCTTACACGAAACAGGATCAAATAACCCCCTAGGAATCACCTCCCACTCCGACAAAATTACCTTCCACCCCTACTACACAATCAAAGATATCCTTGGCTTATTCCTTTTCCTCCTTATCCTAATGACATTAACACTATTCTCACCAGGCCTCCTAGGCGATCCAGACAACTATACCCTAGCTAACCCCCTAAACACCCCACCCCACATTAAACCCGAGTGATACTTTCTATTTGCCTACACAATCCTCCGATCCATCCCCAACAAACTAGGAGGCGTCCTCGCCCTACTACTATCTATCCTAATCCTAACAGCAATCCCTGTCCTCCACACATCCAAACAACAAAGCATAATATTTCGCCCACTAAGCCAACTGCTTTACTGACTCCTAGCCACAGACCTCCTCATCCTAACCTGAATCGGAGGACAACCAGTAAGCTACCCCTTCATCACCATCGGACAAATAGCATCCGTATTATACTTCACAACAATCCTAATCCTAATACCAATCGCCTCTCTAATCGAAAACAAAATACTTGAATGAACCTGCCCTTGTAGTATAAACTAATACACCGGTCTTGTAAACCGGAAACGAAAACTTTCTTCCAAGGACAAATCAGAGAAAAAGTAATTAACTTCACCATCAGCACCCAAAGCTAAGATTCTAATTTAAACTATTCTCTGTTCTTTCATGGGGAAGCAAATTTAGGTACCACCTAAGTACTGGCTCATTCATTACAACCGCTATGTATTTCGTACATTACTGCCAGCCACCATGAATATCGTACAGTACCATATCACCCAACTACCTATAGTACATAAAATCCACTCCCACATCAAAACCTTCACTCCATGCTTACAAGCACGCACAACAATCAACTCCCAACTGTCGAACATAAAACACAATTCCAACGACACCCCTCCCCCACCCCGATACCAACAGACCTATCTCCCCTTGACAGAACATAGTACATACAACCATACACCGTACATAGCACATTACAGTCAAACCCCTCCTCGCCCCCACGGATGCTCCCCCTCAGATAGGAATCCCTTGGTCACCATCCTCCGTGAAATCAATATCCCGCACAAGAGTGACTCTCCTCGCTCCGGGCCCATAACATCTGGGGGTAGCTAAAGTGAACTGTATCCGACATCTGGTTCCTACCTCAGGGCCATGAAGTTCAAAAGACTCCCACACGTTCCCCTTAAATAAGACATCACGATGGATCACAGGTCTATCACCCTATTAACCAGTCACGGGAGCCTTCCATGCATTTGGTATTTTCGTCTGGGGGGTGTGCACGCGATAGCATTGCGAAACGCTGGCCCCGGAGCACCCTATGTCGCAGTATCTGTCTTTGATTCCTGCCCCATTGTATTATTTATCGCACCTACGTTCAATATTACGACCTAGCATACCTACTAAAGTGTGTTGATTAATTAATGCTTGCAGGACATAACAACAGCAGCAAAATGCTCACATAACTGCTTTCCACACCAACATCATAACAAAAAATTCCCACAAACCCCCCCTTCCCCCCGGCCACAGCACTCAAACAAATCTCTGCCAAACCCCAAAAACAAAGAACCCAGACGCCAGCCTAGCCAGACTTCAAATTTCATCTTTAGGCGGTATGCACTTTTAACAGTCACCCCTCAATTAACATGCCCTCCCCCCTCAACTCCCATTCTACTAGCCCCAGCAACGTAACCCCCTACTCACCCTACTCAACACATATACCGCTGCTAACCCCATACCCTGAACCAACCAAACCCCAAAGACACCCCTACACA'
p1135
sbsS'_per_letter_annotations'
p1136
g1
(cBio.SeqRecord
_RestrictedDict
p1137
c__builtin__
dict
p1138
(dtRp1139
(dp1140
S'_length'
p1141
I16554
sbsg121
S'NC_001643.1'
p1142
sS'name'
p1143
S'NC_001643'
p1144
sb.