ccopy_reg
_reconstructor
p1
(cBio.SeqRecord
SeqRecord
p2
c__builtin__
object
p3
NtRp4
(dp5
S'dbxrefs'
p6
(lp7
S'Project:30353 BioProject:PRJNA30353'
p8
asS'description'
p9
S'Homo sapiens mitochondrion, complete genome.'
p10
sS'annotations'
p11
(dp12
S'comment'
p13
S"PROVISIONAL REFSEQ: This record has not yet been subject to final\nNCBI review. The reference sequence was derived from J01415.\nOn Jul 8, 2009 this sequence version replaced gi:115315570.\nThis sequence is a corrected version of the HUMMTCG reference\nsequence.  The original Cambridge reference sequence (CRS) is\npreserved as GenBank J01415 gi:337188 [PMID:7219534].  Corrections\nhave been made and annotated per the re-sequencing of the original\nmaterial by Andrews et al [PMID:10508508].\nThis Revised Cambridge Reference Sequence (rCRS) has eighteen\nspecific corrections or confirmations of the original 1981 sequence\nof Anderson et al [PMID:7219534].  Seven nucleotides are confirmed\nas rare polymorphisms, maintained as: 263A, 311C-315C, 750A, 1438A,\n4769A, 8860A, and 15326A.  Eleven nucleotides are error\ncorrections: 3107del, 3423T, 4985A,  9559C, 11335C, 13702C, 14199T,\n14272C, 14365C, 14368C, and 14766C. These 11 errors in  the\noriginal Cambridge sequence were determined to be  either outright\nsequencing errors (8 instances) or due to the presence of bovine\nDNA (2 instances) or HeLa DNA (1 instance) mixed in with the\noriginal human placental DNA [PMID:10508508].  HISTORICAL\nNUCLEOTIDE NUMBERS ARE MAINTAINED by indicating 3107del as 'N'.\nA summary table of the reanalysis data is available online at\nhttp://www.mitomap.org/MITOMAP/CambridgeReanalysis\nL-strand is shown.\nCOMPLETENESS: full length."
p14
sS'sequence_version'
p15
I1
sS'source'
p16
S'mitochondrion Homo sapiens (human)'
p17
sS'taxonomy'
p18
(lp19
S'Eukaryota'
p20
aS'Metazoa'
p21
aS'Chordata'
p22
aS'Craniata'
p23
aS'Vertebrata'
p24
aS'Euteleostomi'
p25
aS'Mammalia'
p26
aS'Eutheria'
p27
aS'Euarchontoglires'
p28
aS'Primates'
p29
aS'Haplorrhini'
p30
aS'Catarrhini'
p31
aS'Hominidae'
p32
aS'Homo'
p33
asS'keywords'
p34
(lp35
S''
asS'references'
p36
(lp37
g1
(cBio.SeqFeature
Reference
p38
g3
NtRp39
(dp40
g13
S''
sS'title'
p41
S'Reanalysis and revision of the Cambridge reference sequence for human mitochondrial DNA'
p42
sS'consrtm'
p43
S''
sS'journal'
p44
S'Nat. Genet. 23 (2), 147 (1999)'
p45
sS'location'
p46
(lp47
g1
(cBio.SeqFeature
FeatureLocation
p48
g3
NtRp49
(dp50
S'ref'
p51
NsS'_end'
p52
g1
(cBio.SeqFeature
ExactPosition
p53
c__builtin__
int
p54
I16569
tRp55
sS'_start'
p56
g1
(g53
g54
I0
tRp57
sS'_strand'
p58
NsS'ref_db'
p59
NsbasS'pubmed_id'
p60
S'10508508'
p61
sS'authors'
p62
S'Andrews,R.M., Kubacka,I., Chinnery,P.F., Lightowlers,R.N., Turnbull,D.M. and Howell,N.'
p63
sS'medline_id'
p64
S''
sbag1
(g38
g3
NtRp65
(dp66
g13
S''
sg41
S'Reanalysis and revision of the Cambridge reference sequence for human mitochondrial DNA'
p67
sg43
S''
sg44
S'Nat. Genet. 23 (2), 147 (1999)'
p68
sg46
(lp69
g1
(g48
g3
NtRp70
(dp71
g51
Nsg52
g1
(g53
g54
I743
tRp72
sg56
g1
(g53
g54
I323
tRp73
sg58
Nsg59
Nsbasg60
S'10508508'
p74
sg62
S'Andrews,R.M., Kubacka,I., Chinnery,P.F., Lightowlers,R.N., Turnbull,D.M. and Howell,N.'
p75
sg64
S''
sbag1
(g38
g3
NtRp76
(dp77
g13
S''
sg41
S'Sequence and organization of the human mitochondrial genome'
p78
sg43
S''
sg44
S'Nature 290 (5806), 457-465 (1981)'
p79
sg46
(lp80
g1
(g48
g3
NtRp81
(dp82
g51
Nsg52
g1
(g53
g54
I16569
tRp83
sg56
g1
(g53
g54
I0
tRp84
sg58
Nsg59
Nsbasg60
S'7219534'
p85
sg62
S'Anderson,S., Bankier,A.T., Barrell,B.G., de Bruijn,M.H., Coulson,A.R., Drouin,J., Eperon,I.C., Nierlich,D.P., Roe,B.A., Sanger,F., Schreier,P.H., Smith,A.J., Staden,R. and Young,I.G.'
p86
sg64
S''
sbag1
(g38
g3
NtRp87
(dp88
g13
S''
sg41
S'Sequence and organization of the human mitochondrial genome'
p89
sg43
S''
sg44
S'Nature 290 (5806), 457-465 (1981)'
p90
sg46
(lp91
g1
(g48
g3
NtRp92
(dp93
g51
Nsg52
g1
(g53
g54
I15954
tRp94
sg56
g1
(g53
g54
I15887
tRp95
sg58
Nsg59
Nsbasg60
S'7219534'
p96
sg62
S'Anderson,S., Bankier,A.T., Barrell,B.G., de Bruijn,M.H., Coulson,A.R., Drouin,J., Eperon,I.C., Nierlich,D.P., Roe,B.A., Sanger,F., Schreier,P.H., Smith,A.J., Staden,R. and Young,I.G.'
p97
sg64
S''
sbag1
(g38
g3
NtRp98
(dp99
g13
S''
sg41
S'Direct Submission'
p100
sg43
S'NCBI Genome Project'
p101
sg44
S'Submitted (08-JUL-2009) National Center for Biotechnology Information, NIH, Bethesda, MD 20894, USA'
p102
sg46
(lp103
g1
(g48
g3
NtRp104
(dp105
g51
Nsg52
g1
(g53
g54
I16569
tRp106
sg56
g1
(g53
g54
I0
tRp107
sg58
Nsg59
Nsbasg60
S''
sg62
S''
sg64
S''
sbag1
(g38
g3
NtRp108
(dp109
g13
S'Sequence update by submitter'
p110
sg41
S'Direct Submission'
p111
sg43
S''
sg44
S'Submitted (24-AUG-2006) Mitomap.org, Center for Molecular and Mitochondrial Medicine and Genetics (MAMMAG) University of California, University of California, Irvine, Irvine, CA 92697-3940, USA'
p112
sg46
(lp113
g1
(g48
g3
NtRp114
(dp115
g51
Nsg52
g1
(g53
g54
I16569
tRp116
sg56
g1
(g53
g54
I0
tRp117
sg58
Nsg59
Nsbasg60
S''
sg62
S'Kogelnik,A.M. and Lott,M.T.'
p118
sg64
S''
sbag1
(g38
g3
NtRp119
(dp120
g13
S'sequence updated'
p121
sg41
S'Direct Submission'
p122
sg43
S''
sg44
S'Submitted (18-APR-1997) Center for Molecular Medicine, Emory University School of Medicine, 1462 Clifton Road, Suite 420, Atlanta, GA 30322, USA'
p123
sg46
(lp124
g1
(g48
g3
NtRp125
(dp126
g51
Nsg52
g1
(g53
g54
I16569
tRp127
sg56
g1
(g53
g54
I0
tRp128
sg58
Nsg59
Nsbasg60
S''
sg62
S'Kogelnik,A.M. and Lott,M.T.'
p129
sg64
S''
sbasS'accessions'
p130
(lp131
S'NC_012920'
p132
aS'AC_000021'
p133
asS'data_file_division'
p134
S'PRI'
p135
sS'date'
p136
S'30-APR-2010'
p137
sS'organism'
p138
S'Homo sapiens'
p139
sS'gi'
p140
S'251831106'
p141
ssS'features'
p142
(lp143
g1
(cBio.SeqFeature
SeqFeature
p144
g3
NtRp145
(dp146
S'sub_features'
p147
(lp148
sS'location_operator'
p149
S''
sS'id'
p150
S'<unknown id>'
p151
sg46
g1
(g48
g3
NtRp152
(dp153
g51
Nsg52
g1
(g53
g54
I16569
tRp154
sg56
g1
(g53
g54
I0
tRp155
sg58
I1
sg59
NsbsS'type'
p156
S'source'
p157
sS'qualifiers'
p158
(dp159
S'isolation_source'
p160
(lp161
S'caucasian'
p162
asS'mol_type'
p163
(lp164
S'genomic DNA'
p165
asS'country'
p166
(lp167
S'United Kingdom: Great Britain'
p168
asS'organelle'
p169
(lp170
S'mitochondrion'
p171
asS'db_xref'
p172
(lp173
S'taxon:9606'
p174
asS'note'
p175
(lp176
S'this is the rCRS'
p177
asS'tissue_type'
p178
(lp179
S'placenta'
p180
asS'organism'
p181
(lp182
S'Homo sapiens'
p183
assbag1
(g144
g3
NtRp184
(dp185
g147
(lp186
g1
(g144
g3
NtRp187
(dp188
g147
(lp189
sg149
S'join'
p190
sg150
g151
sg46
g1
(g48
g3
NtRp191
(dp192
g51
Nsg52
g1
(g53
g54
I16569
tRp193
sg56
g1
(g53
g54
I16023
tRp194
sg58
I-1
sg59
Nsbsg156
S'D-loop'
p195
sg158
(dp196
sbag1
(g144
g3
NtRp197
(dp198
g147
(lp199
sg149
g190
sg150
g151
sg46
g1
(g48
g3
NtRp200
(dp201
g51
Nsg52
g1
(g53
g54
I576
tRp202
sg56
g1
(g53
g54
I0
tRp203
sg58
I-1
sg59
Nsbsg156
g195
sg158
(dp204
sbasg149
g190
sg150
g151
sg46
g1
(g48
g3
NtRp205
(dp206
g51
Nsg52
g202
sg56
g194
sg58
I-1
sg59
Nsbsg156
g195
sg158
(dp207
sbag1
(g144
g3
NtRp208
(dp209
g147
(lp210
sg149
S''
sg150
g151
sg46
g1
(g48
g3
NtRp211
(dp212
g51
Nsg52
g1
(g53
g54
I647
tRp213
sg56
g1
(g53
g54
I576
tRp214
sg58
I1
sg59
Nsbsg156
S'gene'
p215
sg158
(dp216
S'db_xref'
p217
(lp218
S'GeneID:4558'
p219
aS'HGNC:7481'
p220
aS'MIM:590070'
p221
asS'gene'
p222
(lp223
S'TRNF'
p224
asS'nomenclature'
p225
(lp226
S'Official Symbol: MT-TF | Name: mitochondrially encoded tRNA phenylalanine | Provided by: HGNC:7481'
p227
assbag1
(g144
g3
NtRp228
(dp229
g147
(lp230
sg149
S''
sg150
g151
sg46
g1
(g48
g3
NtRp231
(dp232
g51
Nsg52
g1
(g53
g54
I647
tRp233
sg56
g1
(g53
g54
I576
tRp234
sg58
I1
sg59
Nsbsg156
S'tRNA'
p235
sg158
(dp236
S'anticodon'
p237
(lp238
S'(pos:611..613,aa:Phe,seq:gaa)'
p239
asS'product'
p240
(lp241
S'tRNA-Phe'
p242
asS'note'
p243
(lp244
S'NAR: 1455'
p245
asS'db_xref'
p246
(lp247
S'GeneID:4558'
p248
aS'HGNC:7481'
p249
aS'MIM:590070'
p250
asS'codon_recognized'
p251
(lp252
S'UUC'
p253
asS'gene'
p254
(lp255
S'TRNF'
p256
assbag1
(g144
g3
NtRp257
(dp258
g147
(lp259
sg149
S''
sg150
g151
sg46
g1
(g48
g3
NtRp260
(dp261
g51
Nsg52
g1
(g53
g54
I1601
tRp262
sg56
g1
(g53
g54
I647
tRp263
sg58
I1
sg59
Nsbsg156
S'gene'
p264
sg158
(dp265
S'db_xref'
p266
(lp267
S'GeneID:4549'
p268
aS'HGNC:7470'
p269
aS'MIM:561000'
p270
asS'gene'
p271
(lp272
S'RNR1'
p273
asS'gene_synonym'
p274
(lp275
S'MTRNR1'
p276
asS'nomenclature'
p277
(lp278
S'Official Symbol: MT-RNR1 | Name: mitochondrially encoded 12S RNA | Provided by: HGNC:7470'
p279
assbag1
(g144
g3
NtRp280
(dp281
g147
(lp282
sg149
S''
sg150
g151
sg46
g1
(g48
g3
NtRp283
(dp284
g51
Nsg52
g1
(g53
g54
I1601
tRp285
sg56
g1
(g53
g54
I647
tRp286
sg58
I1
sg59
Nsbsg156
S'rRNA'
p287
sg158
(dp288
S'note'
p289
(lp290
S'12S rRNA; 12S ribosomal RNA'
p291
asS'db_xref'
p292
(lp293
S'GeneID:4549'
p294
aS'HGNC:7470'
p295
aS'MIM:561000'
p296
asS'product'
p297
(lp298
S's-rRNA'
p299
asS'gene'
p300
(lp301
S'RNR1'
p302
asS'gene_synonym'
p303
(lp304
S'MTRNR1'
p305
assbag1
(g144
g3
NtRp306
(dp307
g147
(lp308
sg149
S''
sg150
g151
sg46
g1
(g48
g3
NtRp309
(dp310
g51
Nsg52
g1
(g53
g54
I2187
tRp311
sg56
g1
(g53
g54
I1477
tRp312
sg58
I1
sg59
Nsbsg156
S'STS'
p313
sg158
(dp314
S'db_xref'
p315
(lp316
S'UniSTS:272966'
p317
asS'standard_name'
p318
(lp319
S'PMC316374P5'
p320
assbag1
(g144
g3
NtRp321
(dp322
g147
(lp323
sg149
S''
sg150
g151
sg46
g1
(g48
g3
NtRp324
(dp325
g51
Nsg52
g1
(g53
g54
I1670
tRp326
sg56
g1
(g53
g54
I1601
tRp327
sg58
I1
sg59
Nsbsg156
S'gene'
p328
sg158
(dp329
S'db_xref'
p330
(lp331
S'GeneID:4577'
p332
aS'HGNC:7500'
p333
aS'MIM:590105'
p334
asS'gene'
p335
(lp336
S'TRNV'
p337
asS'gene_synonym'
p338
(lp339
S'MTTV'
p340
asS'nomenclature'
p341
(lp342
S'Official Symbol: MT-TV | Name: mitochondrially encoded tRNA valine | Provided by: HGNC:7500'
p343
assbag1
(g144
g3
NtRp344
(dp345
g147
(lp346
sg149
S''
sg150
g151
sg46
g1
(g48
g3
NtRp347
(dp348
g51
Nsg52
g1
(g53
g54
I1670
tRp349
sg56
g1
(g53
g54
I1601
tRp350
sg58
I1
sg59
Nsbsg156
S'tRNA'
p351
sg158
(dp352
S'anticodon'
p353
(lp354
S'(pos:1633..1635,aa:Val,seq:tac)'
p355
asS'product'
p356
(lp357
S'tRNA-Val'
p358
asS'gene_synonym'
p359
(lp360
S'MTTV'
p361
asS'note'
p362
(lp363
S'NAR: 2053'
p364
asS'db_xref'
p365
(lp366
S'GeneID:4577'
p367
aS'HGNC:7500'
p368
aS'MIM:590105'
p369
asS'codon_recognized'
p370
(lp371
S'GUA'
p372
asS'gene'
p373
(lp374
S'TRNV'
p375
assbag1
(g144
g3
NtRp376
(dp377
g147
(lp378
sg149
S''
sg150
g151
sg46
g1
(g48
g3
NtRp379
(dp380
g51
Nsg52
g1
(g53
g54
I3229
tRp381
sg56
g1
(g53
g54
I1670
tRp382
sg58
I1
sg59
Nsbsg156
S'gene'
p383
sg158
(dp384
S'db_xref'
p385
(lp386
S'GeneID:4550'
p387
aS'HGNC:7471'
p388
aS'MIM:561010'
p389
asS'gene'
p390
(lp391
S'RNR2'
p392
asS'gene_synonym'
p393
(lp394
S'MTRNR2'
p395
asS'nomenclature'
p396
(lp397
S'Official Symbol: MT-RNR2 | Name: mitochondrially encoded 16S RNA | Provided by: HGNC:7471'
p398
assbag1
(g144
g3
NtRp399
(dp400
g147
(lp401
sg149
S''
sg150
g151
sg46
g1
(g48
g3
NtRp402
(dp403
g51
Nsg52
g1
(g53
g54
I3229
tRp404
sg56
g1
(g53
g54
I1670
tRp405
sg58
I1
sg59
Nsbsg156
S'rRNA'
p406
sg158
(dp407
S'note'
p408
(lp409
S'16S ribosomal RNA; 16S rRNA'
p410
asS'db_xref'
p411
(lp412
S'GeneID:4550'
p413
aS'HGNC:7471'
p414
aS'MIM:561010'
p415
asS'product'
p416
(lp417
S'l-rRNA'
p418
asS'gene'
p419
(lp420
S'RNR2'
p421
asS'gene_synonym'
p422
(lp423
S'MTRNR2'
p424
assbag1
(g144
g3
NtRp425
(dp426
g147
(lp427
sg149
S''
sg150
g151
sg46
g1
(g48
g3
NtRp428
(dp429
g51
Nsg52
g1
(g53
g54
I2203
tRp430
sg56
g1
(g53
g54
I2061
tRp431
sg58
I1
sg59
Nsbsg156
S'STS'
p432
sg158
(dp433
S'db_xref'
p434
(lp435
S'UniSTS:150884'
p436
asS'standard_name'
p437
(lp438
S'D3S2893E'
p439
asS'gene'
p440
(lp441
S'RNR2'
p442
asS'gene_synonym'
p443
(lp444
S'MTRNR2'
p445
assbag1
(g144
g3
NtRp446
(dp447
g147
(lp448
sg149
S''
sg150
g151
sg46
g1
(g48
g3
NtRp449
(dp450
g51
Nsg52
g1
(g53
g54
I2884
tRp451
sg56
g1
(g53
g54
I2711
tRp452
sg58
I1
sg59
Nsbsg156
S'STS'
p453
sg158
(dp454
S'db_xref'
p455
(lp456
S'UniSTS:56529'
p457
asS'standard_name'
p458
(lp459
S'NIB250'
p460
asS'gene'
p461
(lp462
S'RNR2'
p463
asS'gene_synonym'
p464
(lp465
S'MTRNR2'
p466
assbag1
(g144
g3
NtRp467
(dp468
g147
(lp469
sg149
S''
sg150
g151
sg46
g1
(g48
g3
NtRp470
(dp471
g51
Nsg52
g1
(g53
g54
I2946
tRp472
sg56
g1
(g53
g54
I2805
tRp473
sg58
I1
sg59
Nsbsg156
S'STS'
p474
sg158
(dp475
S'db_xref'
p476
(lp477
S'UniSTS:273091'
p478
asS'standard_name'
p479
(lp480
S'PMC31832P1'
p481
asS'gene'
p482
(lp483
S'RNR2'
p484
asS'gene_synonym'
p485
(lp486
S'MTRNR2'
p487
assbag1
(g144
g3
NtRp488
(dp489
g147
(lp490
sg149
S''
sg150
g151
sg46
g1
(g48
g3
NtRp491
(dp492
g51
Nsg52
g1
(g53
g54
I3107
tRp493
sg56
g1
(g53
g54
I3106
tRp494
sg58
I1
sg59
Nsbsg156
S'misc_feature'
p495
sg158
(dp496
S'note'
p497
(lp498
S'preserves historical genome annotation numbering'
p499
assbag1
(g144
g3
NtRp500
(dp501
g147
(lp502
sg149
S''
sg150
g151
sg46
g1
(g48
g3
NtRp503
(dp504
g51
Nsg52
g1
(g53
g54
I3304
tRp505
sg56
g1
(g53
g54
I3229
tRp506
sg58
I1
sg59
Nsbsg156
S'gene'
p507
sg158
(dp508
S'db_xref'
p509
(lp510
S'GeneID:4567'
p511
aS'HGNC:7490'
p512
aS'MIM:590050'
p513
asS'gene'
p514
(lp515
S'TRNL1'
p516
asS'gene_synonym'
p517
(lp518
S'MTTL1'
p519
asS'nomenclature'
p520
(lp521
S'Official Symbol: MT-TL1 | Name: mitochondrially encoded tRNA leucine 1 (UUA/G) | Provided by: HGNC:7490'
p522
assbag1
(g144
g3
NtRp523
(dp524
g147
(lp525
sg149
S''
sg150
g151
sg46
g1
(g48
g3
NtRp526
(dp527
g51
Nsg52
g1
(g53
g54
I3304
tRp528
sg56
g1
(g53
g54
I3229
tRp529
sg58
I1
sg59
Nsbsg156
S'tRNA'
p530
sg158
(dp531
S'anticodon'
p532
(lp533
S'(pos:3265..3267,aa:Leu,seq:taa)'
p534
asS'product'
p535
(lp536
S'tRNA-Leu'
p537
asS'gene_synonym'
p538
(lp539
S'MTTL1'
p540
asS'note'
p541
(lp542
S'NAR: 1054'
p543
asS'db_xref'
p544
(lp545
S'GeneID:4567'
p546
aS'HGNC:7490'
p547
aS'MIM:590050'
p548
asS'codon_recognized'
p549
(lp550
S'UUR'
p551
asS'gene'
p552
(lp553
S'TRNL1'
p554
assbag1
(g144
g3
NtRp555
(dp556
g147
(lp557
sg149
S''
sg150
g151
sg46
g1
(g48
g3
NtRp558
(dp559
g51
Nsg52
g1
(g53
g54
I4262
tRp560
sg56
g1
(g53
g54
I3306
tRp561
sg58
I1
sg59
Nsbsg156
S'gene'
p562
sg158
(dp563
S'db_xref'
p564
(lp565
S'GeneID:4535'
p566
aS'HGNC:7455'
p567
aS'MIM:516000'
p568
asS'gene'
p569
(lp570
S'ND1'
p571
asS'gene_synonym'
p572
(lp573
S'MTND1'
p574
asS'nomenclature'
p575
(lp576
S'Official Symbol: MT-ND1 | Name: mitochondrially encoded NADH dehydrogenase 1 | Provided by: HGNC:7455'
p577
assbag1
(g144
g3
NtRp578
(dp579
g147
(lp580
sg149
S''
sg150
g151
sg46
g1
(g48
g3
NtRp581
(dp582
g51
Nsg52
g1
(g53
g54
I4262
tRp583
sg56
g1
(g53
g54
I3306
tRp584
sg58
I1
sg59
Nsbsg156
S'CDS'
p585
sg158
(dp586
S'product'
p587
(lp588
S'NADH dehydrogenase subunit 1'
p589
asS'transl_except'
p590
(lp591
S'(pos:4261..4262,aa:TERM)'
p592
asS'codon_start'
p593
(lp594
S'1'
asS'gene_synonym'
p595
(lp596
S'MTND1'
p597
asS'transl_table'
p598
(lp599
S'2'
asS'note'
p600
(lp601
S"NADH dehydrogenase, subunit 1 (complex I); TAA stop codon is completed by the addition of 3' A residues to the mRNA"
p602
asS'db_xref'
p603
(lp604
S'GI:251831107'
p605
aS'GeneID:4535'
p606
aS'HGNC:7455'
p607
aS'MIM:516000'
p608
asS'translation'
p609
(lp610
S'MPMANLLLLIVPILIAMAFLMLTERKILGYMQLRKGPNVVGPYGLLQPFADAMKLFTKEPLKPATSTITLYITAPTLALTIALLLWTPLPMPNPLVNLNLGLLFILATSSLAVYSILWSGWASNSNYALIGALRAVAQTISYEVTLAIILLSTLLMSGSFNLSTLITTQEHLWLLLPSWPLAMMWFISTLAETNRTPFDLAEGESELVSGFNIEYAAGPFALFFMAEYTNIIMMNTLTTTIFLGTTYDALSPELYTTYFVTKTLLLTSLFLWIRTAYPRFRYDQLMHLLWKNFLPLTLALLMWYVSMPITISSIPPQT'
p611
asS'gene'
p612
(lp613
S'ND1'
p614
asS'protein_id'
p615
(lp616
S'YP_003024026.1'
p617
assbag1
(g144
g3
NtRp618
(dp619
g147
(lp620
sg149
S''
sg150
g151
sg46
g1
(g48
g3
NtRp621
(dp622
g51
Nsg52
g1
(g53
g54
I3834
tRp623
sg56
g1
(g53
g54
I3739
tRp624
sg58
I1
sg59
Nsbsg156
S'STS'
p625
sg158
(dp626
S'db_xref'
p627
(lp628
S'UniSTS:151680'
p629
asS'standard_name'
p630
(lp631
S'D17S1473E'
p632
asS'gene'
p633
(lp634
S'ND1'
p635
asS'gene_synonym'
p636
(lp637
S'MTND1'
p638
assbag1
(g144
g3
NtRp639
(dp640
g147
(lp641
sg149
S''
sg150
g151
sg46
g1
(g48
g3
NtRp642
(dp643
g51
Nsg52
g1
(g53
g54
I4813
tRp644
sg56
g1
(g53
g54
I4188
tRp645
sg58
I1
sg59
Nsbsg156
S'STS'
p646
sg158
(dp647
S'db_xref'
p648
(lp649
S'UniSTS:273322'
p650
asS'standard_name'
p651
(lp652
S'PMC55343P1'
p653
assbag1
(g144
g3
NtRp654
(dp655
g147
(lp656
sg149
S''
sg150
g151
sg46
g1
(g48
g3
NtRp657
(dp658
g51
Nsg52
g1
(g53
g54
I4331
tRp659
sg56
g1
(g53
g54
I4262
tRp660
sg58
I1
sg59
Nsbsg156
S'gene'
p661
sg158
(dp662
S'db_xref'
p663
(lp664
S'GeneID:4565'
p665
aS'HGNC:7488'
p666
aS'MIM:590045'
p667
asS'gene'
p668
(lp669
S'TRNI'
p670
asS'gene_synonym'
p671
(lp672
S'MTTI'
p673
asS'nomenclature'
p674
(lp675
S'Official Symbol: MT-TI | Name: mitochondrially encoded tRNA isoleucine | Provided by: HGNC:7488'
p676
assbag1
(g144
g3
NtRp677
(dp678
g147
(lp679
sg149
S''
sg150
g151
sg46
g1
(g48
g3
NtRp680
(dp681
g51
Nsg52
g1
(g53
g54
I4331
tRp682
sg56
g1
(g53
g54
I4262
tRp683
sg58
I1
sg59
Nsbsg156
S'tRNA'
p684
sg158
(dp685
S'anticodon'
p686
(lp687
S'(pos:4292..4294,aa:Ile,seq:gat)'
p688
asS'product'
p689
(lp690
S'tRNA-Ile'
p691
asS'gene_synonym'
p692
(lp693
S'MTTI'
p694
asS'note'
p695
(lp696
S'NAR: 0997'
p697
asS'db_xref'
p698
(lp699
S'GeneID:4565'
p700
aS'HGNC:7488'
p701
aS'MIM:590045'
p702
asS'codon_recognized'
p703
(lp704
S'AUC'
p705
asS'gene'
p706
(lp707
S'TRNI'
p708
assbag1
(g144
g3
NtRp709
(dp710
g147
(lp711
sg149
S''
sg150
g151
sg46
g1
(g48
g3
NtRp712
(dp713
g51
Nsg52
g1
(g53
g54
I4400
tRp714
sg56
g1
(g53
g54
I4328
tRp715
sg58
I-1
sg59
Nsbsg156
S'gene'
p716
sg158
(dp717
S'db_xref'
p718
(lp719
S'GeneID:4572'
p720
aS'HGNC:7495'
p721
aS'MIM:590030'
p722
asS'gene'
p723
(lp724
S'TRNQ'
p725
asS'gene_synonym'
p726
(lp727
S'MTTQ'
p728
asS'nomenclature'
p729
(lp730
S'Official Symbol: MT-TQ | Name: mitochondrially encoded tRNA glutamine | Provided by: HGNC:7495'
p731
assbag1
(g144
g3
NtRp732
(dp733
g147
(lp734
sg149
S''
sg150
g151
sg46
g1
(g48
g3
NtRp735
(dp736
g51
Nsg52
g1
(g53
g54
I4400
tRp737
sg56
g1
(g53
g54
I4328
tRp738
sg58
I-1
sg59
Nsbsg156
S'tRNA'
p739
sg158
(dp740
S'anticodon'
p741
(lp742
S'(pos:complement(4365..4367),aa:Gln,seq:ttg)'
p743
asS'product'
p744
(lp745
S'tRNA-Gln'
p746
asS'gene_synonym'
p747
(lp748
S'MTTQ'
p749
asS'note'
p750
(lp751
S'NAR: 0597'
p752
asS'db_xref'
p753
(lp754
S'GeneID:4572'
p755
aS'HGNC:7495'
p756
aS'MIM:590030'
p757
asS'codon_recognized'
p758
(lp759
S'CAA'
p760
asS'gene'
p761
(lp762
S'TRNQ'
p763
assbag1
(g144
g3
NtRp764
(dp765
g147
(lp766
sg149
S''
sg150
g151
sg46
g1
(g48
g3
NtRp767
(dp768
g51
Nsg52
g1
(g53
g54
I4469
tRp769
sg56
g1
(g53
g54
I4401
tRp770
sg58
I1
sg59
Nsbsg156
S'gene'
p771
sg158
(dp772
S'db_xref'
p773
(lp774
S'GeneID:4569'
p775
aS'HGNC:7492'
p776
aS'MIM:590065'
p777
asS'gene'
p778
(lp779
S'TRNM'
p780
asS'gene_synonym'
p781
(lp782
S'MTTM'
p783
asS'nomenclature'
p784
(lp785
S'Official Symbol: MT-TM | Name: mitochondrially encoded tRNA methionine | Provided by: HGNC:7492'
p786
assbag1
(g144
g3
NtRp787
(dp788
g147
(lp789
sg149
S''
sg150
g151
sg46
g1
(g48
g3
NtRp790
(dp791
g51
Nsg52
g1
(g53
g54
I4469
tRp792
sg56
g1
(g53
g54
I4401
tRp793
sg58
I1
sg59
Nsbsg156
S'tRNA'
p794
sg158
(dp795
S'anticodon'
p796
(lp797
S'(pos:4432..4434,aa:Met,seq:cat)'
p798
asS'product'
p799
(lp800
S'tRNA-Met'
p801
asS'gene_synonym'
p802
(lp803
S'MTTM'
p804
asS'note'
p805
(lp806
S'NAR: 1297'
p807
asS'db_xref'
p808
(lp809
S'GeneID:4569'
p810
aS'HGNC:7492'
p811
aS'MIM:590065'
p812
asS'codon_recognized'
p813
(lp814
S'AUG'
p815
asS'gene'
p816
(lp817
S'TRNM'
p818
assbag1
(g144
g3
NtRp819
(dp820
g147
(lp821
sg149
S''
sg150
g151
sg46
g1
(g48
g3
NtRp822
(dp823
g51
Nsg52
g1
(g53
g54
I5511
tRp824
sg56
g1
(g53
g54
I4469
tRp825
sg58
I1
sg59
Nsbsg156
S'gene'
p826
sg158
(dp827
S'db_xref'
p828
(lp829
S'GeneID:4536'
p830
aS'HGNC:7456'
p831
aS'MIM:516001'
p832
asS'gene'
p833
(lp834
S'ND2'
p835
asS'gene_synonym'
p836
(lp837
S'MTND2'
p838
asS'nomenclature'
p839
(lp840
S'Official Symbol: MT-ND2 | Name: mitochondrially encoded NADH dehydrogenase 2 | Provided by: HGNC:7456'
p841
assbag1
(g144
g3
NtRp842
(dp843
g147
(lp844
sg149
S''
sg150
g151
sg46
g1
(g48
g3
NtRp845
(dp846
g51
Nsg52
g1
(g53
g54
I5511
tRp847
sg56
g1
(g53
g54
I4469
tRp848
sg58
I1
sg59
Nsbsg156
S'CDS'
p849
sg158
(dp850
S'product'
p851
(lp852
S'NADH dehydrogenase subunit 2'
p853
asS'transl_except'
p854
(lp855
S'(pos:5511,aa:TERM)'
p856
asS'codon_start'
p857
(lp858
S'1'
asS'gene_synonym'
p859
(lp860
S'MTND2'
p861
asS'transl_table'
p862
(lp863
S'2'
asS'note'
p864
(lp865
S"TAA stop codon is completed by the addition of 3' A residues to the mRNA"
p866
asS'db_xref'
p867
(lp868
S'GI:251831108'
p869
aS'GeneID:4536'
p870
aS'HGNC:7456'
p871
aS'MIM:516001'
p872
asS'translation'
p873
(lp874
S'MNPLAQPVIYSTIFAGTLITALSSHWFFTWVGLEMNMLAFIPVLTKKMNPRSTEAAIKYFLTQATASMILLMAILFNNMLSGQWTMTNTTNQYSSLMIMMAMAMKLGMAPFHFWVPEVTQGTPLTSGLLLLTWQKLAPISIMYQISPSLNVSLLLTLSILSIMAGSWGGLNQTQLRKILAYSSITHMGWMMAVLPYNPNMTILNLTIYIILTTTAFLLLNLNSSTTTLLLSRTWNKLTWLTPLIPSTLLSLGGLPPLTGFLPKWAIIEEFTKNNSLIIPTIMATITLLNLYFYLRLIYSTSITLLPMSNNVKMKWQFEHTKPTPFLPTLIALTTLLLPISPFMLMIL'
p875
asS'gene'
p876
(lp877
S'ND2'
p878
asS'protein_id'
p879
(lp880
S'YP_003024027.1'
p881
assbag1
(g144
g3
NtRp882
(dp883
g147
(lp884
sg149
S''
sg150
g151
sg46
g1
(g48
g3
NtRp885
(dp886
g51
Nsg52
g1
(g53
g54
I5456
tRp887
sg56
g1
(g53
g54
I4480
tRp888
sg58
I1
sg59
Nsbsg156
S'STS'
p889
sg158
(dp890
S'db_xref'
p891
(lp892
S'UniSTS:270258'
p893
asS'standard_name'
p894
(lp895
S'PMC113853P1'
p896
asS'gene'
p897
(lp898
S'ND2'
p899
asS'gene_synonym'
p900
(lp901
S'MTND2'
p902
assbag1
(g144
g3
NtRp903
(dp904
g147
(lp905
sg149
S''
sg150
g151
sg46
g1
(g48
g3
NtRp906
(dp907
g51
Nsg52
g1
(g53
g54
I5579
tRp908
sg56
g1
(g53
g54
I5511
tRp909
sg58
I1
sg59
Nsbsg156
S'gene'
p910
sg158
(dp911
S'db_xref'
p912
(lp913
S'GeneID:4578'
p914
aS'HGNC:7501'
p915
aS'MIM:590095'
p916
asS'gene'
p917
(lp918
S'TRNW'
p919
asS'gene_synonym'
p920
(lp921
S'MTTW'
p922
asS'nomenclature'
p923
(lp924
S'Official Symbol: MT-TW | Name: mitochondrially encoded tRNA tryptophan | Provided by: HGNC:7501'
p925
assbag1
(g144
g3
NtRp926
(dp927
g147
(lp928
sg149
S''
sg150
g151
sg46
g1
(g48
g3
NtRp929
(dp930
g51
Nsg52
g1
(g53
g54
I5579
tRp931
sg56
g1
(g53
g54
I5511
tRp932
sg58
I1
sg59
Nsbsg156
S'tRNA'
p933
sg158
(dp934
S'anticodon'
p935
(lp936
S'(pos:5544..5546,aa:Trp,seq:tca)'
p937
asS'product'
p938
(lp939
S'tRNA-Trp'
p940
asS'gene_synonym'
p941
(lp942
S'MTTW'
p943
asS'note'
p944
(lp945
S'NAR: 1897'
p946
asS'db_xref'
p947
(lp948
S'GeneID:4578'
p949
aS'HGNC:7501'
p950
aS'MIM:590095'
p951
asS'codon_recognized'
p952
(lp953
S'UGA'
p954
asS'gene'
p955
(lp956
S'TRNW'
p957
assbag1
(g144
g3
NtRp958
(dp959
g147
(lp960
sg149
S''
sg150
g151
sg46
g1
(g48
g3
NtRp961
(dp962
g51
Nsg52
g1
(g53
g54
I5655
tRp963
sg56
g1
(g53
g54
I5586
tRp964
sg58
I-1
sg59
Nsbsg156
S'gene'
p965
sg158
(dp966
S'db_xref'
p967
(lp968
S'GeneID:4553'
p969
aS'HGNC:7475'
p970
aS'MIM:590000'
p971
asS'gene'
p972
(lp973
S'TRNA'
p974
asS'gene_synonym'
p975
(lp976
S'MTTA'
p977
asS'nomenclature'
p978
(lp979
S'Official Symbol: MT-TA | Name: mitochondrially encoded tRNA alanine | Provided by: HGNC:7475'
p980
assbag1
(g144
g3
NtRp981
(dp982
g147
(lp983
sg149
S''
sg150
g151
sg46
g1
(g48
g3
NtRp984
(dp985
g51
Nsg52
g1
(g53
g54
I5655
tRp986
sg56
g1
(g53
g54
I5586
tRp987
sg58
I-1
sg59
Nsbsg156
S'tRNA'
p988
sg158
(dp989
S'anticodon'
p990
(lp991
S'(pos:complement(5623..5625),aa:Ala,seq:tgc)'
p992
asS'product'
p993
(lp994
S'tRNA-Ala'
p995
asS'gene_synonym'
p996
(lp997
S'MTTA'
p998
asS'note'
p999
(lp1000
S'NAR: 0097'
p1001
asS'db_xref'
p1002
(lp1003
S'GeneID:4553'
p1004
aS'HGNC:7475'
p1005
aS'MIM:590000'
p1006
asS'codon_recognized'
p1007
(lp1008
S'GCA'
p1009
asS'gene'
p1010
(lp1011
S'TRNA'
p1012
assbag1
(g144
g3
NtRp1013
(dp1014
g147
(lp1015
sg149
S''
sg150
g151
sg46
g1
(g48
g3
NtRp1016
(dp1017
g51
Nsg52
g1
(g53
g54
I5729
tRp1018
sg56
g1
(g53
g54
I5656
tRp1019
sg58
I-1
sg59
Nsbsg156
S'gene'
p1020
sg158
(dp1021
S'db_xref'
p1022
(lp1023
S'GeneID:4570'
p1024
aS'HGNC:7493'
p1025
aS'MIM:590010'
p1026
asS'gene'
p1027
(lp1028
S'TRNN'
p1029
asS'gene_synonym'
p1030
(lp1031
S'MTTN'
p1032
asS'nomenclature'
p1033
(lp1034
S'Official Symbol: MT-TN | Name: mitochondrially encoded tRNA asparagine | Provided by: HGNC:7493'
p1035
assbag1
(g144
g3
NtRp1036
(dp1037
g147
(lp1038
sg149
S''
sg150
g151
sg46
g1
(g48
g3
NtRp1039
(dp1040
g51
Nsg52
g1
(g53
g54
I5729
tRp1041
sg56
g1
(g53
g54
I5656
tRp1042
sg58
I-1
sg59
Nsbsg156
S'tRNA'
p1043
sg158
(dp1044
S'anticodon'
p1045
(lp1046
S'(pos:complement(5694..5696),aa:Asn,seq:gtt)'
p1047
asS'product'
p1048
(lp1049
S'tRNA-Asn'
p1050
asS'gene_synonym'
p1051
(lp1052
S'MTTN'
p1053
asS'note'
p1054
(lp1055
S'NAR: 0297'
p1056
asS'db_xref'
p1057
(lp1058
S'GeneID:4570'
p1059
aS'HGNC:7493'
p1060
aS'MIM:590010'
p1061
asS'codon_recognized'
p1062
(lp1063
S'AAC'
p1064
asS'gene'
p1065
(lp1066
S'TRNN'
p1067
assbag1
(g144
g3
NtRp1068
(dp1069
g147
(lp1070
sg149
S''
sg150
g151
sg46
g1
(g48
g3
NtRp1071
(dp1072
g51
Nsg52
g1
(g53
g54
I5826
tRp1073
sg56
g1
(g53
g54
I5760
tRp1074
sg58
I-1
sg59
Nsbsg156
S'gene'
p1075
sg158
(dp1076
S'db_xref'
p1077
(lp1078
S'GeneID:4511'
p1079
aS'HGNC:7477'
p1080
aS'MIM:590020'
p1081
asS'gene'
p1082
(lp1083
S'TRNC'
p1084
asS'gene_synonym'
p1085
(lp1086
S'MTTC'
p1087
asS'nomenclature'
p1088
(lp1089
S'Official Symbol: MT-TC | Name: mitochondrially encoded tRNA cysteine | Provided by: HGNC:7477'
p1090
assbag1
(g144
g3
NtRp1091
(dp1092
g147
(lp1093
sg149
S''
sg150
g151
sg46
g1
(g48
g3
NtRp1094
(dp1095
g51
Nsg52
g1
(g53
g54
I5826
tRp1096
sg56
g1
(g53
g54
I5760
tRp1097
sg58
I-1
sg59
Nsbsg156
S'tRNA'
p1098
sg158
(dp1099
S'anticodon'
p1100
(lp1101
S'(pos:complement(5796..5798),aa:Cys,seq:gca)'
p1102
asS'product'
p1103
(lp1104
S'tRNA-Cys'
p1105
asS'gene_synonym'
p1106
(lp1107
S'MTTC'
p1108
asS'note'
p1109
(lp1110
S'NAR: 0497'
p1111
asS'db_xref'
p1112
(lp1113
S'GeneID:4511'
p1114
aS'HGNC:7477'
p1115
aS'MIM:590020'
p1116
asS'codon_recognized'
p1117
(lp1118
S'UGC'
p1119
asS'gene'
p1120
(lp1121
S'TRNC'
p1122
assbag1
(g144
g3
NtRp1123
(dp1124
g147
(lp1125
sg149
S''
sg150
g151
sg46
g1
(g48
g3
NtRp1126
(dp1127
g51
Nsg52
g1
(g53
g54
I5891
tRp1128
sg56
g1
(g53
g54
I5825
tRp1129
sg58
I-1
sg59
Nsbsg156
S'gene'
p1130
sg158
(dp1131
S'db_xref'
p1132
(lp1133
S'GeneID:4579'
p1134
aS'HGNC:7502'
p1135
aS'MIM:590100'
p1136
asS'gene'
p1137
(lp1138
S'TRNY'
p1139
asS'gene_synonym'
p1140
(lp1141
S'MTTY'
p1142
asS'nomenclature'
p1143
(lp1144
S'Official Symbol: MT-TY | Name: mitochondrially encoded tRNA tyrosine | Provided by: HGNC:7502'
p1145
assbag1
(g144
g3
NtRp1146
(dp1147
g147
(lp1148
sg149
S''
sg150
g151
sg46
g1
(g48
g3
NtRp1149
(dp1150
g51
Nsg52
g1
(g53
g54
I5891
tRp1151
sg56
g1
(g53
g54
I5825
tRp1152
sg58
I-1
sg59
Nsbsg156
S'tRNA'
p1153
sg158
(dp1154
S'anticodon'
p1155
(lp1156
S'(pos:complement(5860..5862),aa:Tyr,seq:gta)'
p1157
asS'product'
p1158
(lp1159
S'tRNA-Tyr'
p1160
asS'gene_synonym'
p1161
(lp1162
S'MTTY'
p1163
asS'note'
p1164
(lp1165
S'NAR: 1997'
p1166
asS'db_xref'
p1167
(lp1168
S'GeneID:4579'
p1169
aS'HGNC:7502'
p1170
aS'MIM:590100'
p1171
asS'codon_recognized'
p1172
(lp1173
S'UAC'
p1174
asS'gene'
p1175
(lp1176
S'TRNY'
p1177
assbag1
(g144
g3
NtRp1178
(dp1179
g147
(lp1180
sg149
S''
sg150
g151
sg46
g1
(g48
g3
NtRp1181
(dp1182
g51
Nsg52
g1
(g53
g54
I7445
tRp1183
sg56
g1
(g53
g54
I5903
tRp1184
sg58
I1
sg59
Nsbsg156
S'gene'
p1185
sg158
(dp1186
S'db_xref'
p1187
(lp1188
S'GeneID:4512'
p1189
aS'HGNC:7419'
p1190
aS'MIM:516030'
p1191
asS'gene'
p1192
(lp1193
S'COX1'
p1194
asS'gene_synonym'
p1195
(lp1196
S'COI; MTCO1'
p1197
asS'nomenclature'
p1198
(lp1199
S'Official Symbol: MT-COI | Name: mitochondrially encoded cytochrome c oxidase I | Provided by: HGNC:7419'
p1200
assbag1
(g144
g3
NtRp1201
(dp1202
g147
(lp1203
sg149
S''
sg150
g151
sg46
g1
(g48
g3
NtRp1204
(dp1205
g51
Nsg52
g1
(g53
g54
I7445
tRp1206
sg56
g1
(g53
g54
I5903
tRp1207
sg58
I1
sg59
Nsbsg156
S'CDS'
p1208
sg158
(dp1209
S'product'
p1210
(lp1211
S'cytochrome c oxidase subunit I'
p1212
asS'codon_start'
p1213
(lp1214
S'1'
asS'gene_synonym'
p1215
(lp1216
S'COI; MTCO1'
p1217
asS'transl_table'
p1218
(lp1219
S'2'
asS'note'
p1220
(lp1221
S'cytochrome c oxidase I'
p1222
asS'db_xref'
p1223
(lp1224
S'GI:251831109'
p1225
aS'GeneID:4512'
p1226
aS'HGNC:7419'
p1227
aS'MIM:516030'
p1228
asS'translation'
p1229
(lp1230
S'MFADRWLFSTNHKDIGTLYLLFGAWAGVLGTALSLLIRAELGQPGNLLGNDHIYNVIVTAHAFVMIFFMVMPIMIGGFGNWLVPLMIGAPDMAFPRMNNMSFWLLPPSLLLLLASAMVEAGAGTGWTVYPPLAGNYSHPGASVDLTIFSLHLAGVSSILGAINFITTIINMKPPAMTQYQTPLFVWSVLITAVLLLLSLPVLAAGITMLLTDRNLNTTFFDPAGGGDPILYQHLFWFFGHPEVYILILPGFGMISHIVTYYSGKKEPFGYMGMVWAMMSIGFLGFIVWAHHMFTVGMDVDTRAYFTSATMIIAIPTGVKVFSWLATLHGSNMKWSAAVLWALGFIFLFTVGGLTGIVLANSSLDIVLHDTYYVVAHFHYVLSMGAVFAIMGGFIHWFPLFSGYTLDQTYAKIHFTIMFIGVNLTFFPQHFLGLSGMPRRYSDYPDAYTTWNILSSVGSFISLTAVMLMIFMIWEAFASKRKVLMVEEPSMNLEWLYGCPPPYHTFEEPVYMKS'
p1231
asS'gene'
p1232
(lp1233
S'COX1'
p1234
asS'protein_id'
p1235
(lp1236
S'YP_003024028.1'
p1237
assbag1
(g144
g3
NtRp1238
(dp1239
g147
(lp1240
sg149
S''
sg150
g151
sg46
g1
(g48
g3
NtRp1241
(dp1242
g51
Nsg52
g1
(g53
g54
I6918
tRp1243
sg56
g1
(g53
g54
I6317
tRp1244
sg58
I1
sg59
Nsbsg156
S'STS'
p1245
sg158
(dp1246
S'db_xref'
p1247
(lp1248
S'UniSTS:273325'
p1249
asS'standard_name'
p1250
(lp1251
S'PMC55343P2'
p1252
asS'gene'
p1253
(lp1254
S'COX1'
p1255
asS'gene_synonym'
p1256
(lp1257
S'COI; MTCO1'
p1258
assbag1
(g144
g3
NtRp1259
(dp1260
g147
(lp1261
sg149
S''
sg150
g151
sg46
g1
(g48
g3
NtRp1262
(dp1263
g51
Nsg52
g1
(g53
g54
I7672
tRp1264
sg56
g1
(g53
g54
I7124
tRp1265
sg58
I1
sg59
Nsbsg156
S'STS'
p1266
sg158
(dp1267
S'db_xref'
p1268
(lp1269
S'UniSTS:271963'
p1270
asS'standard_name'
p1271
(lp1272
S'PMC20756P3'
p1273
assbag1
(g144
g3
NtRp1274
(dp1275
g147
(lp1276
sg149
S''
sg150
g151
sg46
g1
(g48
g3
NtRp1277
(dp1278
g51
Nsg52
g1
(g53
g54
I7361
tRp1279
sg56
g1
(g53
g54
I7165
tRp1280
sg58
I1
sg59
Nsbsg156
S'STS'
p1281
sg158
(dp1282
S'db_xref'
p1283
(lp1284
S'UniSTS:92461'
p1285
asS'standard_name'
p1286
(lp1287
S'D17S813E'
p1288
asS'gene'
p1289
(lp1290
S'COX1'
p1291
asS'gene_synonym'
p1292
(lp1293
S'COI; MTCO1'
p1294
assbag1
(g144
g3
NtRp1295
(dp1296
g147
(lp1297
sg149
S''
sg150
g151
sg46
g1
(g48
g3
NtRp1298
(dp1299
g51
Nsg52
g1
(g53
g54
I7937
tRp1300
sg56
g1
(g53
g54
I7357
tRp1301
sg58
I1
sg59
Nsbsg156
S'STS'
p1302
sg158
(dp1303
S'db_xref'
p1304
(lp1305
S'UniSTS:273326'
p1306
asS'standard_name'
p1307
(lp1308
S'PMC55343P3'
p1309
assbag1
(g144
g3
NtRp1310
(dp1311
g147
(lp1312
sg149
S''
sg150
g151
sg46
g1
(g48
g3
NtRp1313
(dp1314
g51
Nsg52
g1
(g53
g54
I7513
tRp1315
sg56
g1
(g53
g54
I7385
tRp1316
sg58
I1
sg59
Nsbsg156
S'STS'
p1317
sg158
(dp1318
S'db_xref'
p1319
(lp1320
S'UniSTS:83580'
p1321
asS'standard_name'
p1322
(lp1323
S'RH98513'
p1324
assbag1
(g144
g3
NtRp1325
(dp1326
g147
(lp1327
sg149
S''
sg150
g151
sg46
g1
(g48
g3
NtRp1328
(dp1329
g51
Nsg52
g1
(g53
g54
I7514
tRp1330
sg56
g1
(g53
g54
I7445
tRp1331
sg58
I-1
sg59
Nsbsg156
S'gene'
p1332
sg158
(dp1333
S'db_xref'
p1334
(lp1335
S'GeneID:4574'
p1336
aS'HGNC:7497'
p1337
aS'MIM:590080'
p1338
asS'gene'
p1339
(lp1340
S'TRNS1'
p1341
asS'gene_synonym'
p1342
(lp1343
S'MTTS1'
p1344
asS'nomenclature'
p1345
(lp1346
S'Official Symbol: MT-TS1 | Name: mitochondrially encoded tRNA serine 1 (UCN) | Provided by: HGNC:7497'
p1347
assbag1
(g144
g3
NtRp1348
(dp1349
g147
(lp1350
sg149
S''
sg150
g151
sg46
g1
(g48
g3
NtRp1351
(dp1352
g51
Nsg52
g1
(g53
g54
I7514
tRp1353
sg56
g1
(g53
g54
I7445
tRp1354
sg58
I-1
sg59
Nsbsg156
S'tRNA'
p1355
sg158
(dp1356
S'anticodon'
p1357
(lp1358
S'(pos:complement(7482..7484),aa:Ser,seq:tga)'
p1359
asS'product'
p1360
(lp1361
S'tRNA-Ser'
p1362
asS'gene_synonym'
p1363
(lp1364
S'MTTS1'
p1365
asS'note'
p1366
(lp1367
S'NAR: 1697'
p1368
asS'db_xref'
p1369
(lp1370
S'GeneID:4574'
p1371
aS'HGNC:7497'
p1372
aS'MIM:590080'
p1373
asS'codon_recognized'
p1374
(lp1375
S'UCN'
p1376
asS'gene'
p1377
(lp1378
S'TRNS1'
p1379
assbag1
(g144
g3
NtRp1380
(dp1381
g147
(lp1382
sg149
S''
sg150
g151
sg46
g1
(g48
g3
NtRp1383
(dp1384
g51
Nsg52
g1
(g53
g54
I8383
tRp1385
sg56
g1
(g53
g54
I7482
tRp1386
sg58
I1
sg59
Nsbsg156
S'STS'
p1387
sg158
(dp1388
S'db_xref'
p1389
(lp1390
S'UniSTS:271962'
p1391
asS'standard_name'
p1392
(lp1393
S'PMC20756P2'
p1394
assbag1
(g144
g3
NtRp1395
(dp1396
g147
(lp1397
sg149
S''
sg150
g151
sg46
g1
(g48
g3
NtRp1398
(dp1399
g51
Nsg52
g1
(g53
g54
I8364
tRp1400
sg56
g1
(g53
g54
I7482
tRp1401
sg58
I1
sg59
Nsbsg156
S'STS'
p1402
sg158
(dp1403
S'db_xref'
p1404
(lp1405
S'UniSTS:270154'
p1406
asS'standard_name'
p1407
(lp1408
S'PMC109173P1'
p1409
assbag1
(g144
g3
NtRp1410
(dp1411
g147
(lp1412
sg149
S''
sg150
g151
sg46
g1
(g48
g3
NtRp1413
(dp1414
g51
Nsg52
g1
(g53
g54
I7570
tRp1415
sg56
g1
(g53
g54
I7482
tRp1416
sg58
I1
sg59
Nsbsg156
S'STS'
p1417
sg158
(dp1418
S'db_xref'
p1419
(lp1420
S'UniSTS:271961'
p1421
asS'standard_name'
p1422
(lp1423
S'PMC20756P1'
p1424
assbag1
(g144
g3
NtRp1425
(dp1426
g147
(lp1427
sg149
S''
sg150
g151
sg46
g1
(g48
g3
NtRp1428
(dp1429
g51
Nsg52
g1
(g53
g54
I7585
tRp1430
sg56
g1
(g53
g54
I7517
tRp1431
sg58
I1
sg59
Nsbsg156
S'gene'
p1432
sg158
(dp1433
S'db_xref'
p1434
(lp1435
S'GeneID:4555'
p1436
aS'HGNC:7478'
p1437
aS'MIM:590015'
p1438
asS'gene'
p1439
(lp1440
S'TRND'
p1441
asS'gene_synonym'
p1442
(lp1443
S'MTTD'
p1444
asS'nomenclature'
p1445
(lp1446
S'Official Symbol: MT-TD | Name: mitochondrially encoded tRNA aspartic acid | Provided by: HGNC:7478'
p1447
assbag1
(g144
g3
NtRp1448
(dp1449
g147
(lp1450
sg149
S''
sg150
g151
sg46
g1
(g48
g3
NtRp1451
(dp1452
g51
Nsg52
g1
(g53
g54
I7585
tRp1453
sg56
g1
(g53
g54
I7517
tRp1454
sg58
I1
sg59
Nsbsg156
S'tRNA'
p1455
sg158
(dp1456
S'anticodon'
p1457
(lp1458
S'(pos:7548..7550,aa:Asp,seq:gtc)'
p1459
asS'product'
p1460
(lp1461
S'tRNA-Asp'
p1462
asS'gene_synonym'
p1463
(lp1464
S'MTTD'
p1465
asS'note'
p1466
(lp1467
S'NAR: 0397'
p1468
asS'db_xref'
p1469
(lp1470
S'GeneID:4555'
p1471
aS'HGNC:7478'
p1472
aS'MIM:590015'
p1473
asS'codon_recognized'
p1474
(lp1475
S'GAC'
p1476
asS'gene'
p1477
(lp1478
S'TRND'
p1479
assbag1
(g144
g3
NtRp1480
(dp1481
g147
(lp1482
sg149
S''
sg150
g151
sg46
g1
(g48
g3
NtRp1483
(dp1484
g51
Nsg52
g1
(g53
g54
I7983
tRp1485
sg56
g1
(g53
g54
I7560
tRp1486
sg58
I1
sg59
Nsbsg156
S'STS'
p1487
sg158
(dp1488
S'db_xref'
p1489
(lp1490
S'UniSTS:271816'
p1491
asS'standard_name'
p1492
(lp1493
S'PMC196577P3'
p1494
assbag1
(g144
g3
NtRp1495
(dp1496
g147
(lp1497
sg149
S''
sg150
g151
sg46
g1
(g48
g3
NtRp1498
(dp1499
g51
Nsg52
g1
(g53
g54
I8269
tRp1500
sg56
g1
(g53
g54
I7585
tRp1501
sg58
I1
sg59
Nsbsg156
S'gene'
p1502
sg158
(dp1503
S'db_xref'
p1504
(lp1505
S'GeneID:4513'
p1506
aS'HGNC:7421'
p1507
aS'MIM:516040'
p1508
asS'gene'
p1509
(lp1510
S'COX2'
p1511
asS'gene_synonym'
p1512
(lp1513
S'COII; MTCO2'
p1514
asS'nomenclature'
p1515
(lp1516
S'Official Symbol: MT-CO2 | Name: mitochondrially encoded cytochrome c oxidase II | Provided by: HGNC:7421'
p1517
assbag1
(g144
g3
NtRp1518
(dp1519
g147
(lp1520
sg149
S''
sg150
g151
sg46
g1
(g48
g3
NtRp1521
(dp1522
g51
Nsg52
g1
(g53
g54
I8269
tRp1523
sg56
g1
(g53
g54
I7585
tRp1524
sg58
I1
sg59
Nsbsg156
S'CDS'
p1525
sg158
(dp1526
S'product'
p1527
(lp1528
S'cytochrome c oxidase subunit II'
p1529
asS'codon_start'
p1530
(lp1531
S'1'
asS'gene_synonym'
p1532
(lp1533
S'COII; MTCO2'
p1534
asS'transl_table'
p1535
(lp1536
S'2'
asS'note'
p1537
(lp1538
S'cytochrome c oxidase II'
p1539
asS'db_xref'
p1540
(lp1541
S'GI:251831110'
p1542
aS'GeneID:4513'
p1543
aS'HGNC:7421'
p1544
aS'MIM:516040'
p1545
asS'translation'
p1546
(lp1547
S'MAHAAQVGLQDATSPIMEELITFHDHALMIIFLICFLVLYALFLTLTTKLTNTNISDAQEMETVWTILPAIILVLIALPSLRILYMTDEVNDPSLTIKSIGHQWYWTYEYTDYGGLIFNSYMLPPLFLEPGDLRLLDVDNRVVLPIEAPIRMMITSQDVLHSWAVPTLGLKTDAIPGRLNQTTFTATRPGVYYGQCSEICGANHSFMPIVLELIPLKIFEMGPVFTL'
p1548
asS'gene'
p1549
(lp1550
S'COX2'
p1551
asS'protein_id'
p1552
(lp1553
S'YP_003024029.1'
p1554
assbag1
(g144
g3
NtRp1555
(dp1556
g147
(lp1557
sg149
S''
sg150
g151
sg46
g1
(g48
g3
NtRp1558
(dp1559
g51
Nsg52
g1
(g53
g54
I7773
tRp1560
sg56
g1
(g53
g54
I7689
tRp1561
sg58
I1
sg59
Nsbsg156
S'STS'
p1562
sg158
(dp1563
S'db_xref'
p1564
(lp1565
S'UniSTS:151716'
p1566
asS'standard_name'
p1567
(lp1568
S'D1S2077E'
p1569
asS'gene'
p1570
(lp1571
S'COX2'
p1572
asS'gene_synonym'
p1573
(lp1574
S'COII; MTCO2'
p1575
assbag1
(g144
g3
NtRp1576
(dp1577
g147
(lp1578
sg149
S''
sg150
g151
sg46
g1
(g48
g3
NtRp1579
(dp1580
g51
Nsg52
g1
(g53
g54
I8291
tRp1581
sg56
g1
(g53
g54
I8163
tRp1582
sg58
I1
sg59
Nsbsg156
S'STS'
p1583
sg158
(dp1584
S'db_xref'
p1585
(lp1586
S'UniSTS:67674'
p1587
asS'standard_name'
p1588
(lp1589
S'SHGC-57364'
p1590
assbag1
(g144
g3
NtRp1591
(dp1592
g147
(lp1593
sg149
S''
sg150
g151
sg46
g1
(g48
g3
NtRp1594
(dp1595
g51
Nsg52
g1
(g53
g54
I8882
tRp1596
sg56
g1
(g53
g54
I8279
tRp1597
sg58
I1
sg59
Nsbsg156
S'STS'
p1598
sg158
(dp1599
S'db_xref'
p1600
(lp1601
S'UniSTS:273328'
p1602
asS'standard_name'
p1603
(lp1604
S'PMC55343P5'
p1605
assbag1
(g144
g3
NtRp1606
(dp1607
g147
(lp1608
sg149
S''
sg150
g151
sg46
g1
(g48
g3
NtRp1609
(dp1610
g51
Nsg52
g1
(g53
g54
I8366
tRp1611
sg56
g1
(g53
g54
I8279
tRp1612
sg58
I1
sg59
Nsbsg156
S'STS'
p1613
sg158
(dp1614
S'db_xref'
p1615
(lp1616
S'UniSTS:273327'
p1617
asS'standard_name'
p1618
(lp1619
S'PMC55343P4'
p1620
assbag1
(g144
g3
NtRp1621
(dp1622
g147
(lp1623
sg149
S''
sg150
g151
sg46
g1
(g48
g3
NtRp1624
(dp1625
g51
Nsg52
g1
(g53
g54
I8364
tRp1626
sg56
g1
(g53
g54
I8294
tRp1627
sg58
I1
sg59
Nsbsg156
S'gene'
p1628
sg158
(dp1629
S'db_xref'
p1630
(lp1631
S'GeneID:4566'
p1632
aS'HGNC:7489'
p1633
aS'MIM:590060'
p1634
asS'gene'
p1635
(lp1636
S'TRNK'
p1637
asS'gene_synonym'
p1638
(lp1639
S'MTTK'
p1640
asS'nomenclature'
p1641
(lp1642
S'Official Symbol: MT-TK | Name: mitochondrially encoded tRNA lysine | Provided by: HGNC:7489'
p1643
assbag1
(g144
g3
NtRp1644
(dp1645
g147
(lp1646
sg149
S''
sg150
g151
sg46
g1
(g48
g3
NtRp1647
(dp1648
g51
Nsg52
g1
(g53
g54
I8364
tRp1649
sg56
g1
(g53
g54
I8294
tRp1650
sg58
I1
sg59
Nsbsg156
S'tRNA'
p1651
sg158
(dp1652
S'anticodon'
p1653
(lp1654
S'(pos:8323..8325,aa:Lys,seq:ttt)'
p1655
asS'product'
p1656
(lp1657
S'tRNA-Lys'
p1658
asS'gene_synonym'
p1659
(lp1660
S'MTTK'
p1661
asS'note'
p1662
(lp1663
S'NAR: 1197'
p1664
asS'db_xref'
p1665
(lp1666
S'GeneID:4566'
p1667
aS'HGNC:7489'
p1668
aS'MIM:590060'
p1669
asS'codon_recognized'
p1670
(lp1671
S'AAA'
p1672
asS'gene'
p1673
(lp1674
S'TRNK'
p1675
assbag1
(g144
g3
NtRp1676
(dp1677
g147
(lp1678
sg149
S''
sg150
g151
sg46
g1
(g48
g3
NtRp1679
(dp1680
g51
Nsg52
g1
(g53
g54
I8572
tRp1681
sg56
g1
(g53
g54
I8365
tRp1682
sg58
I1
sg59
Nsbsg156
S'gene'
p1683
sg158
(dp1684
S'db_xref'
p1685
(lp1686
S'GeneID:4509'
p1687
aS'HGNC:7415'
p1688
aS'MIM:516070'
p1689
asS'gene'
p1690
(lp1691
S'ATP8'
p1692
asS'gene_synonym'
p1693
(lp1694
S'ATPase8; MTATP8'
p1695
asS'nomenclature'
p1696
(lp1697
S'Official Symbol: MT-ATP8 | Name: mitochondrially encoded ATP synthase 8 | Provided by: HGNC:7415'
p1698
assbag1
(g144
g3
NtRp1699
(dp1700
g147
(lp1701
sg149
S''
sg150
g151
sg46
g1
(g48
g3
NtRp1702
(dp1703
g51
Nsg52
g1
(g53
g54
I8572
tRp1704
sg56
g1
(g53
g54
I8365
tRp1705
sg58
I1
sg59
Nsbsg156
S'CDS'
p1706
sg158
(dp1707
S'product'
p1708
(lp1709
S'ATP synthase F0 subunit 8'
p1710
asS'codon_start'
p1711
(lp1712
S'1'
asS'gene_synonym'
p1713
(lp1714
S'ATPase8; MTATP8'
p1715
asS'transl_table'
p1716
(lp1717
S'2'
asS'note'
p1718
(lp1719
S'ATP synthase 8; ATPase subunit 8'
p1720
asS'db_xref'
p1721
(lp1722
S'GI:251831111'
p1723
aS'GeneID:4509'
p1724
aS'HGNC:7415'
p1725
aS'MIM:516070'
p1726
asS'translation'
p1727
(lp1728
S'MPQLNTTVWPTMITPMLLTLFLITQLKMLNTNYHLPPSPKPMKMKNYNKPWEPKWTKICSLHSLPPQS'
p1729
asS'gene'
p1730
(lp1731
S'ATP8'
p1732
asS'protein_id'
p1733
(lp1734
S'YP_003024030.1'
p1735
assbag1
(g144
g3
NtRp1736
(dp1737
g147
(lp1738
sg149
S''
sg150
g151
sg46
g1
(g48
g3
NtRp1739
(dp1740
g51
Nsg52
g1
(g53
g54
I9207
tRp1741
sg56
g1
(g53
g54
I8526
tRp1742
sg58
I1
sg59
Nsbsg156
S'gene'
p1743
sg158
(dp1744
S'db_xref'
p1745
(lp1746
S'GeneID:4508'
p1747
aS'HGNC:7414'
p1748
aS'MIM:516060'
p1749
asS'gene'
p1750
(lp1751
S'ATP6'
p1752
asS'gene_synonym'
p1753
(lp1754
S'ATPase6; MTATP6'
p1755
asS'nomenclature'
p1756
(lp1757
S'Official Symbol: MT-ATP6 | Name: mitochondrially encoded ATP synthase 6 | Provided by: HGNC:7414'
p1758
assbag1
(g144
g3
NtRp1759
(dp1760
g147
(lp1761
sg149
S''
sg150
g151
sg46
g1
(g48
g3
NtRp1762
(dp1763
g51
Nsg52
g1
(g53
g54
I9207
tRp1764
sg56
g1
(g53
g54
I8526
tRp1765
sg58
I1
sg59
Nsbsg156
S'CDS'
p1766
sg158
(dp1767
S'product'
p1768
(lp1769
S'ATP synthase F0 subunit 6'
p1770
asS'codon_start'
p1771
(lp1772
S'1'
asS'gene_synonym'
p1773
(lp1774
S'ATPase6; MTATP6'
p1775
asS'transl_table'
p1776
(lp1777
S'2'
asS'note'
p1778
(lp1779
S'ATP synthase 6; ATPase subunit 6'
p1780
asS'db_xref'
p1781
(lp1782
S'GI:251831112'
p1783
aS'GeneID:4508'
p1784
aS'HGNC:7414'
p1785
aS'MIM:516060'
p1786
asS'translation'
p1787
(lp1788
S'MNENLFASFIAPTILGLPAAVLIILFPPLLIPTSKYLINNRLITTQQWLIKLTSKQMMTMHNTKGRTWSLMLVSLIIFIATTNLLGLLPHSFTPTTQLSMNLAMAIPLWAGTVIMGFRSKIKNALAHFLPQGTPTPLIPMLVIIETISLLIQPMALAVRLTANITAGHLLMHLIGSATLAMSTINLPSTLIIFTILILLTILEIAVALIQAYVFTLLVSLYLHDNT'
p1789
asS'gene'
p1790
(lp1791
S'ATP6'
p1792
asS'protein_id'
p1793
(lp1794
S'YP_003024031.1'
p1795
assbag1
(g144
g3
NtRp1796
(dp1797
g147
(lp1798
sg149
S''
sg150
g151
sg46
g1
(g48
g3
NtRp1799
(dp1800
g51
Nsg52
g1
(g53
g54
I9416
tRp1801
sg56
g1
(g53
g54
I8778
tRp1802
sg58
I1
sg59
Nsbsg156
S'STS'
p1803
sg158
(dp1804
S'db_xref'
p1805
(lp1806
S'UniSTS:273330'
p1807
asS'standard_name'
p1808
(lp1809
S'PMC55343P7'
p1810
assbag1
(g144
g3
NtRp1811
(dp1812
g147
(lp1813
sg149
S''
sg150
g151
sg46
g1
(g48
g3
NtRp1814
(dp1815
g51
Nsg52
g1
(g53
g54
I8882
tRp1816
sg56
g1
(g53
g54
I8778
tRp1817
sg58
I1
sg59
Nsbsg156
S'STS'
p1818
sg158
(dp1819
S'db_xref'
p1820
(lp1821
S'UniSTS:273329'
p1822
asS'standard_name'
p1823
(lp1824
S'PMC55343P6'
p1825
asS'gene'
p1826
(lp1827
S'ATP6'
p1828
asS'gene_synonym'
p1829
(lp1830
S'ATPase6; MTATP6'
p1831
assbag1
(g144
g3
NtRp1832
(dp1833
g147
(lp1834
sg149
S''
sg150
g151
sg46
g1
(g48
g3
NtRp1835
(dp1836
g51
Nsg52
g1
(g53
g54
I9990
tRp1837
sg56
g1
(g53
g54
I9206
tRp1838
sg58
I1
sg59
Nsbsg156
S'gene'
p1839
sg158
(dp1840
S'db_xref'
p1841
(lp1842
S'GeneID:4514'
p1843
aS'HGNC:7422'
p1844
aS'MIM:516050'
p1845
asS'gene'
p1846
(lp1847
S'COX3'
p1848
asS'gene_synonym'
p1849
(lp1850
S'COIII; MTCO3'
p1851
asS'nomenclature'
p1852
(lp1853
S'Official Symbol: MT-CO3 | Name: mitochondrially encoded cytochrome c oxidase III | Provided by: HGNC:7422'
p1854
assbag1
(g144
g3
NtRp1855
(dp1856
g147
(lp1857
sg149
S''
sg150
g151
sg46
g1
(g48
g3
NtRp1858
(dp1859
g51
Nsg52
g1
(g53
g54
I9990
tRp1860
sg56
g1
(g53
g54
I9206
tRp1861
sg58
I1
sg59
Nsbsg156
S'CDS'
p1862
sg158
(dp1863
S'product'
p1864
(lp1865
S'cytochrome c oxidase subunit III'
p1866
asS'transl_except'
p1867
(lp1868
S'(pos:9990,aa:TERM)'
p1869
asS'codon_start'
p1870
(lp1871
S'1'
asS'gene_synonym'
p1872
(lp1873
S'COIII; MTCO3'
p1874
asS'transl_table'
p1875
(lp1876
S'2'
asS'note'
p1877
(lp1878
S"cytochrome c oxidase III; TAA stop codon is completed by the addition of 3' A residues to the mRNA"
p1879
asS'db_xref'
p1880
(lp1881
S'GI:251831113'
p1882
aS'GeneID:4514'
p1883
aS'HGNC:7422'
p1884
aS'MIM:516050'
p1885
asS'translation'
p1886
(lp1887
S'MTHQSHAYHMVKPSPWPLTGALSALLMTSGLAMWFHFHSMTLLMLGLLTNTLTMYQWWRDVTRESTYQGHHTPPVQKGLRYGMILFITSEVFFFAGFFWAFYHSSLAPTPQLGGHWPPTGITPLNPLEVPLLNTSVLLASGVSITWAHHSLMENNRNQMIQALLITILLGLYFTLLQASEYFESPFTISDGIYGSTFFVATGFHGLHVIIGSTFLTICFIRQLMFHFTSKHHFGFEAAAWYWHFVDVVWLFLYVSIYWWGS'
p1888
asS'gene'
p1889
(lp1890
S'COX3'
p1891
asS'protein_id'
p1892
(lp1893
S'YP_003024032.1'
p1894
assbag1
(g144
g3
NtRp1895
(dp1896
g147
(lp1897
sg149
S''
sg150
g151
sg46
g1
(g48
g3
NtRp1898
(dp1899
g51
Nsg52
g1
(g53
g54
I9416
tRp1900
sg56
g1
(g53
g54
I9341
tRp1901
sg58
I1
sg59
Nsbsg156
S'STS'
p1902
sg158
(dp1903
S'db_xref'
p1904
(lp1905
S'UniSTS:273331'
p1906
asS'standard_name'
p1907
(lp1908
S'PMC55343P8'
p1909
asS'gene'
p1910
(lp1911
S'COX3'
p1912
asS'gene_synonym'
p1913
(lp1914
S'COIII; MTCO3'
p1915
assbag1
(g144
g3
NtRp1916
(dp1917
g147
(lp1918
sg149
S''
sg150
g151
sg46
g1
(g48
g3
NtRp1919
(dp1920
g51
Nsg52
g1
(g53
g54
I10058
tRp1921
sg56
g1
(g53
g54
I9990
tRp1922
sg58
I1
sg59
Nsbsg156
S'gene'
p1923
sg158
(dp1924
S'db_xref'
p1925
(lp1926
S'GeneID:4563'
p1927
aS'HGNC:7486'
p1928
aS'MIM:590035'
p1929
asS'gene'
p1930
(lp1931
S'TRNG'
p1932
asS'gene_synonym'
p1933
(lp1934
S'MTTG'
p1935
asS'nomenclature'
p1936
(lp1937
S'Official Symbol: MT-TG | Name: mitochondrially encoded tRNA glycine | Provided by: HGNC:7486'
p1938
assbag1
(g144
g3
NtRp1939
(dp1940
g147
(lp1941
sg149
S''
sg150
g151
sg46
g1
(g48
g3
NtRp1942
(dp1943
g51
Nsg52
g1
(g53
g54
I10058
tRp1944
sg56
g1
(g53
g54
I9990
tRp1945
sg58
I1
sg59
Nsbsg156
S'tRNA'
p1946
sg158
(dp1947
S'anticodon'
p1948
(lp1949
S'(pos:10021..10023,aa:Gly,seq:tcc)'
p1950
asS'product'
p1951
(lp1952
S'tRNA-Gly'
p1953
asS'gene_synonym'
p1954
(lp1955
S'MTTG'
p1956
asS'note'
p1957
(lp1958
S'NAR: 0797'
p1959
asS'db_xref'
p1960
(lp1961
S'GeneID:4563'
p1962
aS'HGNC:7486'
p1963
aS'MIM:590035'
p1964
asS'codon_recognized'
p1965
(lp1966
S'GGA'
p1967
asS'gene'
p1968
(lp1969
S'TRNG'
p1970
assbag1
(g144
g3
NtRp1971
(dp1972
g147
(lp1973
sg149
S''
sg150
g151
sg46
g1
(g48
g3
NtRp1974
(dp1975
g51
Nsg52
g1
(g53
g54
I10404
tRp1976
sg56
g1
(g53
g54
I10058
tRp1977
sg58
I1
sg59
Nsbsg156
S'gene'
p1978
sg158
(dp1979
S'db_xref'
p1980
(lp1981
S'GeneID:4537'
p1982
aS'HGNC:7458'
p1983
aS'MIM:516002'
p1984
asS'gene'
p1985
(lp1986
S'ND3'
p1987
asS'gene_synonym'
p1988
(lp1989
S'MTND3'
p1990
asS'nomenclature'
p1991
(lp1992
S'Official Symbol: MT-ND3 | Name: mitochondrially encoded NADH dehydrogenase 3 | Provided by: HGNC:7458'
p1993
assbag1
(g144
g3
NtRp1994
(dp1995
g147
(lp1996
sg149
S''
sg150
g151
sg46
g1
(g48
g3
NtRp1997
(dp1998
g51
Nsg52
g1
(g53
g54
I10404
tRp1999
sg56
g1
(g53
g54
I10058
tRp2000
sg58
I1
sg59
Nsbsg156
S'CDS'
p2001
sg158
(dp2002
S'product'
p2003
(lp2004
S'NADH dehydrogenase subunit 3'
p2005
asS'transl_except'
p2006
(lp2007
S'(pos:10404,aa:TERM)'
p2008
asS'codon_start'
p2009
(lp2010
S'1'
asS'gene_synonym'
p2011
(lp2012
S'MTND3'
p2013
asS'transl_table'
p2014
(lp2015
S'2'
asS'note'
p2016
(lp2017
S"NADH dehydrogenase, subunit 3 (complex I); TAA stop codon is completed by the addition of 3' A residues to the mRNA"
p2018
asS'db_xref'
p2019
(lp2020
S'GI:251831114'
p2021
aS'GeneID:4537'
p2022
aS'HGNC:7458'
p2023
aS'MIM:516002'
p2024
asS'translation'
p2025
(lp2026
S'MNFALILMINTLLALLLMIITFWLPQLNGYMEKSTPYECGFDPMSPARVPFSMKFFLVAITFLLFDLEIALLLPLPWALQTTNLPLMVMSSLLLIIILALSLAYEWLQKGLDWTE'
p2027
asS'gene'
p2028
(lp2029
S'ND3'
p2030
asS'protein_id'
p2031
(lp2032
S'YP_003024033.1'
p2033
assbag1
(g144
g3
NtRp2034
(dp2035
g147
(lp2036
sg149
S''
sg150
g151
sg46
g1
(g48
g3
NtRp2037
(dp2038
g51
Nsg52
g1
(g53
g54
I10469
tRp2039
sg56
g1
(g53
g54
I10404
tRp2040
sg58
I1
sg59
Nsbsg156
S'gene'
p2041
sg158
(dp2042
S'db_xref'
p2043
(lp2044
S'GeneID:4573'
p2045
aS'HGNC:7496'
p2046
aS'MIM:590005'
p2047
asS'gene'
p2048
(lp2049
S'TRNR'
p2050
asS'gene_synonym'
p2051
(lp2052
S'MTTR'
p2053
asS'nomenclature'
p2054
(lp2055
S'Official Symbol: MT-TR | Name: mitochondrially encoded tRNA arginine | Provided by: HGNC:7496'
p2056
assbag1
(g144
g3
NtRp2057
(dp2058
g147
(lp2059
sg149
S''
sg150
g151
sg46
g1
(g48
g3
NtRp2060
(dp2061
g51
Nsg52
g1
(g53
g54
I10469
tRp2062
sg56
g1
(g53
g54
I10404
tRp2063
sg58
I1
sg59
Nsbsg156
S'tRNA'
p2064
sg158
(dp2065
S'anticodon'
p2066
(lp2067
S'(pos:10435..10437,aa:Arg,seq:tcg)'
p2068
asS'product'
p2069
(lp2070
S'tRNA-Arg'
p2071
asS'gene_synonym'
p2072
(lp2073
S'MTTR'
p2074
asS'note'
p2075
(lp2076
S'NAR: 0197'
p2077
asS'db_xref'
p2078
(lp2079
S'GeneID:4573'
p2080
aS'HGNC:7496'
p2081
aS'MIM:590005'
p2082
asS'codon_recognized'
p2083
(lp2084
S'CGA'
p2085
asS'gene'
p2086
(lp2087
S'TRNR'
p2088
assbag1
(g144
g3
NtRp2089
(dp2090
g147
(lp2091
sg149
S''
sg150
g151
sg46
g1
(g48
g3
NtRp2092
(dp2093
g51
Nsg52
g1
(g53
g54
I10766
tRp2094
sg56
g1
(g53
g54
I10469
tRp2095
sg58
I1
sg59
Nsbsg156
S'gene'
p2096
sg158
(dp2097
S'db_xref'
p2098
(lp2099
S'GeneID:4539'
p2100
aS'HGNC:7460'
p2101
aS'MIM:516004'
p2102
asS'gene'
p2103
(lp2104
S'ND4L'
p2105
asS'gene_synonym'
p2106
(lp2107
S'MTND4L'
p2108
asS'nomenclature'
p2109
(lp2110
S'Official Symbol: MT-ND4L | Name: mitochondrially encoded NADH 4L | Provided by: HGNC:7460'
p2111
assbag1
(g144
g3
NtRp2112
(dp2113
g147
(lp2114
sg149
S''
sg150
g151
sg46
g1
(g48
g3
NtRp2115
(dp2116
g51
Nsg52
g1
(g53
g54
I10766
tRp2117
sg56
g1
(g53
g54
I10469
tRp2118
sg58
I1
sg59
Nsbsg156
S'CDS'
p2119
sg158
(dp2120
S'product'
p2121
(lp2122
S'NADH dehydrogenase subunit 4L'
p2123
asS'codon_start'
p2124
(lp2125
S'1'
asS'gene_synonym'
p2126
(lp2127
S'MTND4L'
p2128
asS'transl_table'
p2129
(lp2130
S'2'
asS'note'
p2131
(lp2132
S'NADH dehydrogenase, subunit 4L (complex I)'
p2133
asS'db_xref'
p2134
(lp2135
S'GI:251831115'
p2136
aS'GeneID:4539'
p2137
aS'HGNC:7460'
p2138
aS'MIM:516004'
p2139
asS'translation'
p2140
(lp2141
S'MPLIYMNIMLAFTISLLGMLVYRSHLMSSLLCLEGMMLSLFIMATLMTLNTHSLLANIVPIAMLVFAACEAAVGLALLVSISNTYGLDYVHNLNLLQC'
p2142
asS'gene'
p2143
(lp2144
S'ND4L'
p2145
asS'protein_id'
p2146
(lp2147
S'YP_003024034.1'
p2148
assbag1
(g144
g3
NtRp2149
(dp2150
g147
(lp2151
sg149
S''
sg150
g151
sg46
g1
(g48
g3
NtRp2152
(dp2153
g51
Nsg52
g1
(g53
g54
I12137
tRp2154
sg56
g1
(g53
g54
I10759
tRp2155
sg58
I1
sg59
Nsbsg156
S'gene'
p2156
sg158
(dp2157
S'db_xref'
p2158
(lp2159
S'GeneID:4538'
p2160
aS'HGNC:7459'
p2161
aS'MIM:516003'
p2162
asS'gene'
p2163
(lp2164
S'ND4'
p2165
asS'gene_synonym'
p2166
(lp2167
S'MTND4'
p2168
asS'nomenclature'
p2169
(lp2170
S'Official Symbol: MT-ND4 | Name: mitochondrially encoded NADH dehydrogenase 4 | Provided by: HGNC:7459'
p2171
assbag1
(g144
g3
NtRp2172
(dp2173
g147
(lp2174
sg149
S''
sg150
g151
sg46
g1
(g48
g3
NtRp2175
(dp2176
g51
Nsg52
g1
(g53
g54
I12137
tRp2177
sg56
g1
(g53
g54
I10759
tRp2178
sg58
I1
sg59
Nsbsg156
S'CDS'
p2179
sg158
(dp2180
S'product'
p2181
(lp2182
S'NADH dehydrogenase subunit 4'
p2183
asS'transl_except'
p2184
(lp2185
S'(pos:12137,aa:TERM)'
p2186
asS'codon_start'
p2187
(lp2188
S'1'
asS'gene_synonym'
p2189
(lp2190
S'MTND4'
p2191
asS'transl_table'
p2192
(lp2193
S'2'
asS'note'
p2194
(lp2195
S"NADH dehydrogenase, subunit 4 (complex I); TAA stop codon is completed by the addition of 3' A residues to the mRNA"
p2196
asS'db_xref'
p2197
(lp2198
S'GI:251831116'
p2199
aS'GeneID:4538'
p2200
aS'HGNC:7459'
p2201
aS'MIM:516003'
p2202
asS'translation'
p2203
(lp2204
S'MLKLIVPTIMLLPLTWLSKKHMIWINTTTHSLIISIIPLLFFNQINNNLFSCSPTFSSDPLTTPLLMLTTWLLPLTIMASQRHLSSEPLSRKKLYLSMLISLQISLIMTFTATELIMFYIFFETTLIPTLAIITRWGNQPERLNAGTYFLFYTLVGSLPLLIALIYTHNTLGSLNILLLTLTAQELSNSWANNLMWLAYTMAFMVKMPLYGLHLWLPKAHVEAPIAGSMVLAAVLLKLGGYGMMRLTLILNPLTKHMAYPFLVLSLWGMIMTSSICLRQTDLKSLIAYSSISHMALVVTAILIQTPWSFTGAVILMIAHGLTSSLLFCLANSNYERTHSRIMILSQGLQTLLPLMAFWWLLASLANLALPPTINLLGELSVLVTTFSWSNITLLLTGLNMLVTALYSLYMFTTTQWGSLTHHINNMKPSFTRENTLMFMHLSPILLLSLNPDIITGFSS'
p2205
asS'gene'
p2206
(lp2207
S'ND4'
p2208
asS'protein_id'
p2209
(lp2210
S'YP_003024035.1'
p2211
assbag1
(g144
g3
NtRp2212
(dp2213
g147
(lp2214
sg149
S''
sg150
g151
sg46
g1
(g48
g3
NtRp2215
(dp2216
g51
Nsg52
g1
(g53
g54
I12206
tRp2217
sg56
g1
(g53
g54
I12137
tRp2218
sg58
I1
sg59
Nsbsg156
S'gene'
p2219
sg158
(dp2220
S'db_xref'
p2221
(lp2222
S'GeneID:4564'
p2223
aS'HGNC:7487'
p2224
aS'MIM:590040'
p2225
asS'gene'
p2226
(lp2227
S'TRNH'
p2228
asS'gene_synonym'
p2229
(lp2230
S'MTTH'
p2231
asS'nomenclature'
p2232
(lp2233
S'Official Symbol: MT-TH | Name: mitochondrially encoded tRNA histidine | Provided by: HGNC:7487'
p2234
assbag1
(g144
g3
NtRp2235
(dp2236
g147
(lp2237
sg149
S''
sg150
g151
sg46
g1
(g48
g3
NtRp2238
(dp2239
g51
Nsg52
g1
(g53
g54
I12206
tRp2240
sg56
g1
(g53
g54
I12137
tRp2241
sg58
I1
sg59
Nsbsg156
S'tRNA'
p2242
sg158
(dp2243
S'anticodon'
p2244
(lp2245
S'(pos:12168..12170,aa:His,seq:gtg)'
p2246
asS'product'
p2247
(lp2248
S'tRNA-His'
p2249
asS'gene_synonym'
p2250
(lp2251
S'MTTH'
p2252
asS'note'
p2253
(lp2254
S'NAR: 0897'
p2255
asS'db_xref'
p2256
(lp2257
S'GeneID:4564'
p2258
aS'HGNC:7487'
p2259
aS'MIM:590040'
p2260
asS'codon_recognized'
p2261
(lp2262
S'CAC'
p2263
asS'gene'
p2264
(lp2265
S'TRNH'
p2266
assbag1
(g144
g3
NtRp2267
(dp2268
g147
(lp2269
sg149
S''
sg150
g151
sg46
g1
(g48
g3
NtRp2270
(dp2271
g51
Nsg52
g1
(g53
g54
I12265
tRp2272
sg56
g1
(g53
g54
I12206
tRp2273
sg58
I1
sg59
Nsbsg156
S'gene'
p2274
sg158
(dp2275
S'db_xref'
p2276
(lp2277
S'GeneID:4575'
p2278
aS'HGNC:7498'
p2279
aS'MIM:590085'
p2280
asS'gene'
p2281
(lp2282
S'TRNS2'
p2283
asS'gene_synonym'
p2284
(lp2285
S'MTTS2'
p2286
asS'nomenclature'
p2287
(lp2288
S'Official Symbol: MT-TS2 | Name: mitochondrially encoded tRNA serine 2 (AGU/C) | Provided by: HGNC:7498'
p2289
assbag1
(g144
g3
NtRp2290
(dp2291
g147
(lp2292
sg149
S''
sg150
g151
sg46
g1
(g48
g3
NtRp2293
(dp2294
g51
Nsg52
g1
(g53
g54
I12265
tRp2295
sg56
g1
(g53
g54
I12206
tRp2296
sg58
I1
sg59
Nsbsg156
S'tRNA'
p2297
sg158
(dp2298
S'anticodon'
p2299
(lp2300
S'(pos:12226..12228,aa:Ser,seq:gct)'
p2301
asS'product'
p2302
(lp2303
S'tRNA-Ser'
p2304
asS'gene_synonym'
p2305
(lp2306
S'MTTS2'
p2307
asS'note'
p2308
(lp2309
S'NAR: 1656'
p2310
asS'db_xref'
p2311
(lp2312
S'GeneID:4575'
p2313
aS'HGNC:7498'
p2314
aS'MIM:590085'
p2315
asS'codon_recognized'
p2316
(lp2317
S'AGY'
p2318
asS'gene'
p2319
(lp2320
S'TRNS2'
p2321
assbag1
(g144
g3
NtRp2322
(dp2323
g147
(lp2324
sg149
S''
sg150
g151
sg46
g1
(g48
g3
NtRp2325
(dp2326
g51
Nsg52
g1
(g53
g54
I12336
tRp2327
sg56
g1
(g53
g54
I12265
tRp2328
sg58
I1
sg59
Nsbsg156
S'gene'
p2329
sg158
(dp2330
S'db_xref'
p2331
(lp2332
S'GeneID:4568'
p2333
aS'HGNC:7491'
p2334
aS'MIM:590055'
p2335
asS'gene'
p2336
(lp2337
S'TRNL2'
p2338
asS'gene_synonym'
p2339
(lp2340
S'MTTL2'
p2341
asS'nomenclature'
p2342
(lp2343
S'Official Symbol: MT-L2 | Name: mitochondrially encoded tRNA leucine 2 (CUN) | Provided by: HGNC:7491'
p2344
assbag1
(g144
g3
NtRp2345
(dp2346
g147
(lp2347
sg149
S''
sg150
g151
sg46
g1
(g48
g3
NtRp2348
(dp2349
g51
Nsg52
g1
(g53
g54
I12336
tRp2350
sg56
g1
(g53
g54
I12265
tRp2351
sg58
I1
sg59
Nsbsg156
S'tRNA'
p2352
sg158
(dp2353
S'anticodon'
p2354
(lp2355
S'(pos:12298..12300,aa:Leu,seq:tag)'
p2356
asS'product'
p2357
(lp2358
S'tRNA-Leu'
p2359
asS'gene_synonym'
p2360
(lp2361
S'MTTL2'
p2362
asS'note'
p2363
(lp2364
S'NAR: 1097'
p2365
asS'db_xref'
p2366
(lp2367
S'GeneID:4568'
p2368
aS'HGNC:7491'
p2369
aS'MIM:590055'
p2370
asS'codon_recognized'
p2371
(lp2372
S'CUN'
p2373
asS'gene'
p2374
(lp2375
S'TRNL2'
p2376
assbag1
(g144
g3
NtRp2377
(dp2378
g147
(lp2379
sg149
S''
sg150
g151
sg46
g1
(g48
g3
NtRp2380
(dp2381
g51
Nsg52
g1
(g53
g54
I14148
tRp2382
sg56
g1
(g53
g54
I12336
tRp2383
sg58
I1
sg59
Nsbsg156
S'gene'
p2384
sg158
(dp2385
S'db_xref'
p2386
(lp2387
S'GeneID:4540'
p2388
aS'HGNC:7461'
p2389
aS'MIM:516005'
p2390
asS'gene'
p2391
(lp2392
S'ND5'
p2393
asS'gene_synonym'
p2394
(lp2395
S'MTND5'
p2396
asS'nomenclature'
p2397
(lp2398
S'Official Symbol: MT-ND5 | Name: mitochondrially encoded NADH dehydrogenase 5 | Provided by: HGNC:7461'
p2399
assbag1
(g144
g3
NtRp2400
(dp2401
g147
(lp2402
sg149
S''
sg150
g151
sg46
g1
(g48
g3
NtRp2403
(dp2404
g51
Nsg52
g1
(g53
g54
I14148
tRp2405
sg56
g1
(g53
g54
I12336
tRp2406
sg58
I1
sg59
Nsbsg156
S'CDS'
p2407
sg158
(dp2408
S'product'
p2409
(lp2410
S'NADH dehydrogenase subunit 5'
p2411
asS'codon_start'
p2412
(lp2413
S'1'
asS'gene_synonym'
p2414
(lp2415
S'MTND5'
p2416
asS'transl_table'
p2417
(lp2418
S'2'
asS'note'
p2419
(lp2420
S'NADH dehydrogenase, subunit 5 (complex I)'
p2421
asS'db_xref'
p2422
(lp2423
S'GI:251831117'
p2424
aS'GeneID:4540'
p2425
aS'HGNC:7461'
p2426
aS'MIM:516005'
p2427
asS'translation'
p2428
(lp2429
S'MTMHTTMTTLTLTSLIPPILTTLVNPNKKNSYPHYVKSIVASTFIISLFPTTMFMCLDQEVIISNWHWATTQTTQLSLSFKLDYFSMMFIPVALFVTWSIMEFSLWYMNSDPNINQFFKYLLIFLITMLILVTANNLFQLFIGWEGVGIMSFLLISWWYARADANTAAIQAILYNRIGDIGFILALAWFILHSNSWDPQQMALLNANPSLTPLLGLLLAAAGKSAQLGLHPWLPSAMEGPTPVSALLHSSTMVVAGIFLLIRFHPLAENSPLIQTLTLCLGAITTLFAAVCALTQNDIKKIVAFSTSSQLGLMMVTIGINQPHLAFLHICTHAFFKAMLFMCSGSIIHNLNNEQDIRKMGGLLKTMPLTSTSLTIGSLALAGMPFLTGFYSKDHIIETANMSYTNAWALSITLIATSLTSAYSTRMILLTLTGQPRFPTLTNINENNPTLLNPIKRLAAGSLFAGFLITNNISPASPFQTTIPLYLKLTALAVTFLGLLTALDLNYLTNKLKMKSPLCTFYFSNMLGFYPSITHRTIPYLGLLTSQNLPLLLLDLTWLEKLLPKTISQHQISTSIITSTQKGMIKLYFLSFFFPLILTLLLIT'
p2430
asS'gene'
p2431
(lp2432
S'ND5'
p2433
asS'protein_id'
p2434
(lp2435
S'YP_003024036.1'
p2436
assbag1
(g144
g3
NtRp2437
(dp2438
g147
(lp2439
sg149
S''
sg150
g151
sg46
g1
(g48
g3
NtRp2440
(dp2441
g51
Nsg52
g1
(g53
g54
I13143
tRp2442
sg56
g1
(g53
g54
I13067
tRp2443
sg58
I1
sg59
Nsbsg156
S'STS'
p2444
sg158
(dp2445
S'db_xref'
p2446
(lp2447
S'UniSTS:273332'
p2448
asS'standard_name'
p2449
(lp2450
S'PMC55343P9'
p2451
asS'gene'
p2452
(lp2453
S'ND5'
p2454
asS'gene_synonym'
p2455
(lp2456
S'MTND5'
p2457
assbag1
(g144
g3
NtRp2458
(dp2459
g147
(lp2460
sg149
S''
sg150
g151
sg46
g1
(g48
g3
NtRp2461
(dp2462
g51
Nsg52
g1
(g53
g54
I14206
tRp2463
sg56
g1
(g53
g54
I13592
tRp2464
sg58
I1
sg59
Nsbsg156
S'STS'
p2465
sg158
(dp2466
S'db_xref'
p2467
(lp2468
S'UniSTS:273323'
p2469
asS'standard_name'
p2470
(lp2471
S'PMC55343P10'
p2472
assbag1
(g144
g3
NtRp2473
(dp2474
g147
(lp2475
sg149
S''
sg150
g151
sg46
g1
(g48
g3
NtRp2476
(dp2477
g51
Nsg52
g1
(g53
g54
I14206
tRp2478
sg56
g1
(g53
g54
I14103
tRp2479
sg58
I1
sg59
Nsbsg156
S'STS'
p2480
sg158
(dp2481
S'db_xref'
p2482
(lp2483
S'UniSTS:273324'
p2484
asS'standard_name'
p2485
(lp2486
S'PMC55343P12'
p2487
assbag1
(g144
g3
NtRp2488
(dp2489
g147
(lp2490
sg149
S''
sg150
g151
sg46
g1
(g48
g3
NtRp2491
(dp2492
g51
Nsg52
g1
(g53
g54
I14673
tRp2493
sg56
g1
(g53
g54
I14148
tRp2494
sg58
I-1
sg59
Nsbsg156
S'gene'
p2495
sg158
(dp2496
S'db_xref'
p2497
(lp2498
S'GeneID:4541'
p2499
aS'HGNC:7462'
p2500
aS'MIM:516006'
p2501
asS'gene'
p2502
(lp2503
S'ND6'
p2504
asS'gene_synonym'
p2505
(lp2506
S'MTND6'
p2507
asS'nomenclature'
p2508
(lp2509
S'Official Symbol: MT-ND6 | Name: mitochondrially encoded NADH dehydrogenase 6 | Provided by: HGNC:7462'
p2510
assbag1
(g144
g3
NtRp2511
(dp2512
g147
(lp2513
sg149
S''
sg150
g151
sg46
g1
(g48
g3
NtRp2514
(dp2515
g51
Nsg52
g1
(g53
g54
I14673
tRp2516
sg56
g1
(g53
g54
I14148
tRp2517
sg58
I-1
sg59
Nsbsg156
S'CDS'
p2518
sg158
(dp2519
S'product'
p2520
(lp2521
S'NADH dehydrogenase subunit 6'
p2522
asS'codon_start'
p2523
(lp2524
S'1'
asS'gene_synonym'
p2525
(lp2526
S'MTND6'
p2527
asS'transl_table'
p2528
(lp2529
S'2'
asS'note'
p2530
(lp2531
S'NADH dehydrogenase, subunit 6 (complex I)'
p2532
asS'db_xref'
p2533
(lp2534
S'GI:251831118'
p2535
aS'GeneID:4541'
p2536
aS'HGNC:7462'
p2537
aS'MIM:516006'
p2538
asS'translation'
p2539
(lp2540
S'MMYALFLLSVGLVMGFVGFSSKPSPIYGGLVLIVSGVVGCVIILNFGGGYMGLMVFLIYLGGMMVVFGYTTAMAIEEYPEAWGSGVEVLVSVLVGLAMEVGLVLWVKEYDGVVVVVNFNSVGSWMIYEGEGSGLIREDPIGAGALYDYGRWLVVVTGWTLFVGVYIVIEIARGN'
p2541
asS'gene'
p2542
(lp2543
S'ND6'
p2544
asS'protein_id'
p2545
(lp2546
S'YP_003024037.1'
p2547
assbag1
(g144
g3
NtRp2548
(dp2549
g147
(lp2550
sg149
S''
sg150
g151
sg46
g1
(g48
g3
NtRp2551
(dp2552
g51
Nsg52
g1
(g53
g54
I14742
tRp2553
sg56
g1
(g53
g54
I14673
tRp2554
sg58
I-1
sg59
Nsbsg156
S'gene'
p2555
sg158
(dp2556
S'db_xref'
p2557
(lp2558
S'GeneID:4556'
p2559
aS'HGNC:7479'
p2560
aS'MIM:590025'
p2561
asS'gene'
p2562
(lp2563
S'TRNE'
p2564
asS'gene_synonym'
p2565
(lp2566
S'MTTE'
p2567
asS'nomenclature'
p2568
(lp2569
S'Official Symbol: MT-TE | Name: mitochondrially encoded tRNA glutamic acid | Provided by: HGNC:7479'
p2570
assbag1
(g144
g3
NtRp2571
(dp2572
g147
(lp2573
sg149
S''
sg150
g151
sg46
g1
(g48
g3
NtRp2574
(dp2575
g51
Nsg52
g1
(g53
g54
I14742
tRp2576
sg56
g1
(g53
g54
I14673
tRp2577
sg58
I-1
sg59
Nsbsg156
S'tRNA'
p2578
sg158
(dp2579
S'anticodon'
p2580
(lp2581
S'(pos:complement(14710..14712),aa:Glu,seq:ttc)'
p2582
asS'product'
p2583
(lp2584
S'tRNA-Glu'
p2585
asS'gene_synonym'
p2586
(lp2587
S'MTTE'
p2588
asS'note'
p2589
(lp2590
S'NAR: 0697'
p2591
asS'db_xref'
p2592
(lp2593
S'GeneID:4556'
p2594
aS'HGNC:7479'
p2595
aS'MIM:590025'
p2596
asS'codon_recognized'
p2597
(lp2598
S'GAA'
p2599
asS'gene'
p2600
(lp2601
S'TRNE'
p2602
assbag1
(g144
g3
NtRp2603
(dp2604
g147
(lp2605
sg149
S''
sg150
g151
sg46
g1
(g48
g3
NtRp2606
(dp2607
g51
Nsg52
g1
(g53
g54
I15887
tRp2608
sg56
g1
(g53
g54
I14746
tRp2609
sg58
I1
sg59
Nsbsg156
S'gene'
p2610
sg158
(dp2611
S'db_xref'
p2612
(lp2613
S'GeneID:4519'
p2614
aS'HGNC:7427'
p2615
aS'MIM:516020'
p2616
asS'gene'
p2617
(lp2618
S'CYTB'
p2619
asS'gene_synonym'
p2620
(lp2621
S'MTCYB'
p2622
asS'nomenclature'
p2623
(lp2624
S'Official Symbol: MT-CYB | Name: mitochondrially encoded cytochrome b | Provided by: HGNC:7427'
p2625
assbag1
(g144
g3
NtRp2626
(dp2627
g147
(lp2628
sg149
S''
sg150
g151
sg46
g1
(g48
g3
NtRp2629
(dp2630
g51
Nsg52
g1
(g53
g54
I15887
tRp2631
sg56
g1
(g53
g54
I14746
tRp2632
sg58
I1
sg59
Nsbsg156
S'CDS'
p2633
sg158
(dp2634
S'product'
p2635
(lp2636
S'cytochrome b'
p2637
asS'transl_except'
p2638
(lp2639
S'(pos:15887,aa:TERM)'
p2640
asS'codon_start'
p2641
(lp2642
S'1'
asS'gene_synonym'
p2643
(lp2644
S'MTCYB'
p2645
asS'transl_table'
p2646
(lp2647
S'2'
asS'note'
p2648
(lp2649
S"TAA stop codon is completed by the addition of 3' A residues to the mRNA"
p2650
asS'db_xref'
p2651
(lp2652
S'GI:251831119'
p2653
aS'GeneID:4519'
p2654
aS'HGNC:7427'
p2655
aS'MIM:516020'
p2656
asS'translation'
p2657
(lp2658
S'MTPMRKTNPLMKLINHSFIDLPTPSNISAWWNFGSLLGACLILQITTGLFLAMHYSPDASTAFSSIAHITRDVNYGWIIRYLHANGASMFFICLFLHIGRGLYYGSFLYSETWNIGIILLLATMATAFMGYVLPWGQMSFWGATVITNLLSAIPYIGTDLVQWIWGGYSVDSPTLTRFFTFHFILPFIIAALATLHLLFLHETGSNNPLGITSHSDKITFHPYYTIKDALGLLLFLLSLMTLTLFSPDLLGDPDNYTLANPLNTPPHIKPEWYFLFAYTILRSVPNKLGGVLALLLSILILAMIPILHMSKQQSMMFRPLSQSLYWLLAADLLILTWIGGQPVSYPFTIIGQVASVLYFTTILILMPTISLIENKMLKWA'
p2659
asS'gene'
p2660
(lp2661
S'CYTB'
p2662
asS'protein_id'
p2663
(lp2664
S'YP_003024038.1'
p2665
assbag1
(g144
g3
NtRp2666
(dp2667
g147
(lp2668
sg149
S''
sg150
g151
sg46
g1
(g48
g3
NtRp2669
(dp2670
g51
Nsg52
g1
(g53
g54
I15307
tRp2671
sg56
g1
(g53
g54
I15190
tRp2672
sg58
I1
sg59
Nsbsg156
S'STS'
p2673
sg158
(dp2674
S'db_xref'
p2675
(lp2676
S'UniSTS:157340'
p2677
asS'standard_name'
p2678
(lp2679
S'GDB:451664'
p2680
asS'gene'
p2681
(lp2682
S'CYTB'
p2683
asS'gene_synonym'
p2684
(lp2685
S'MTCYB'
p2686
assbag1
(g144
g3
NtRp2687
(dp2688
g147
(lp2689
sg149
S''
sg150
g151
sg46
g1
(g48
g3
NtRp2690
(dp2691
g51
Nsg52
g1
(g53
g54
I15777
tRp2692
sg56
g1
(g53
g54
I15697
tRp2693
sg58
I1
sg59
Nsbsg156
S'STS'
p2694
sg158
(dp2695
S'db_xref'
p2696
(lp2697
S'UniSTS:151706'
p2698
asS'standard_name'
p2699
(lp2700
S'D1S2076E'
p2701
asS'gene'
p2702
(lp2703
S'CYTB'
p2704
asS'gene_synonym'
p2705
(lp2706
S'MTCYB'
p2707
assbag1
(g144
g3
NtRp2708
(dp2709
g147
(lp2710
sg149
S''
sg150
g151
sg46
g1
(g48
g3
NtRp2711
(dp2712
g51
Nsg52
g1
(g53
g54
I15953
tRp2713
sg56
g1
(g53
g54
I15887
tRp2714
sg58
I1
sg59
Nsbsg156
S'gene'
p2715
sg158
(dp2716
S'db_xref'
p2717
(lp2718
S'GeneID:4576'
p2719
aS'HGNC:7499'
p2720
aS'MIM:590090'
p2721
asS'gene'
p2722
(lp2723
S'TRNT'
p2724
asS'gene_synonym'
p2725
(lp2726
S'MTTT'
p2727
asS'nomenclature'
p2728
(lp2729
S'Official Symbol: MT-TT | Name: mitochondrially encoded tRNA threonine | Provided by: HGNC:7499'
p2730
assbag1
(g144
g3
NtRp2731
(dp2732
g147
(lp2733
sg149
S''
sg150
g151
sg46
g1
(g48
g3
NtRp2734
(dp2735
g51
Nsg52
g1
(g53
g54
I15953
tRp2736
sg56
g1
(g53
g54
I15887
tRp2737
sg58
I1
sg59
Nsbsg156
S'tRNA'
p2738
sg158
(dp2739
S'anticodon'
p2740
(lp2741
S'(pos:15919..15921,aa:Thr,seq:tgt)'
p2742
asS'product'
p2743
(lp2744
S'tRNA-Thr'
p2745
asS'gene_synonym'
p2746
(lp2747
S'MTTT'
p2748
asS'note'
p2749
(lp2750
S'NAR: 1797'
p2751
asS'db_xref'
p2752
(lp2753
S'GeneID:4576'
p2754
aS'HGNC:7499'
p2755
aS'MIM:590090'
p2756
asS'codon_recognized'
p2757
(lp2758
S'ACA'
p2759
asS'gene'
p2760
(lp2761
S'TRNT'
p2762
assbag1
(g144
g3
NtRp2763
(dp2764
g147
(lp2765
sg149
S''
sg150
g151
sg46
g1
(g48
g3
NtRp2766
(dp2767
g51
Nsg52
g1
(g53
g54
I16023
tRp2768
sg56
g1
(g53
g54
I15955
tRp2769
sg58
I-1
sg59
Nsbsg156
S'gene'
p2770
sg158
(dp2771
S'db_xref'
p2772
(lp2773
S'GeneID:4571'
p2774
aS'HGNC:7494'
p2775
aS'MIM:590075'
p2776
asS'gene'
p2777
(lp2778
S'TRNP'
p2779
asS'gene_synonym'
p2780
(lp2781
S'MTTP'
p2782
asS'nomenclature'
p2783
(lp2784
S'Official Symbol: MT-TP | Name: mitochondrially encoded tRNA proline | Provided by: HGNC:7494'
p2785
assbag1
(g144
g3
NtRp2786
(dp2787
g147
(lp2788
sg149
S''
sg150
g151
sg46
g1
(g48
g3
NtRp2789
(dp2790
g51
Nsg52
g1
(g53
g54
I16023
tRp2791
sg56
g1
(g53
g54
I15955
tRp2792
sg58
I-1
sg59
Nsbsg156
S'tRNA'
p2793
sg158
(dp2794
S'anticodon'
p2795
(lp2796
S'(pos:complement(15990..15992),aa:Pro,seq:tgg)'
p2797
asS'product'
p2798
(lp2799
S'tRNA-Pro'
p2800
asS'gene_synonym'
p2801
(lp2802
S'MTTP'
p2803
asS'note'
p2804
(lp2805
S'NAR: 1597'
p2806
asS'db_xref'
p2807
(lp2808
S'GeneID:4571'
p2809
aS'HGNC:7494'
p2810
aS'MIM:590075'
p2811
asS'codon_recognized'
p2812
(lp2813
S'CCA'
p2814
asS'gene'
p2815
(lp2816
S'TRNP'
p2817
assbasS'_seq'
p2818
g1
(cBio.Seq
Seq
p2819
g3
NtRp2820
(dp2821
S'alphabet'
p2822
g1
(cBio.Alphabet.IUPAC
IUPACAmbiguousDNA
p2823
g3
NtRp2824
sS'_data'
p2825
S'GATCACAGGTCTATCACCCTATTAACCACTCACGGGAGCTCTCCATGCATTTGGTATTTTCGTCTGGGGGGTATGCACGCGATAGCATTGCGAGACGCTGGAGCCGGAGCACCCTATGTCGCAGTATCTGTCTTTGATTCCTGCCTCATCCTATTATTTATCGCACCTACGTTCAATATTACAGGCGAACATACTTACTAAAGTGTGTTAATTAATTAATGCTTGTAGGACATAATAATAACAATTGAATGTCTGCACAGCCACTTTCCACACAGACATCATAACAAAAAATTTCCACCAAACCCCCCCTCCCCCGCTTCTGGCCACAGCACTTAAACACATCTCTGCCAAACCCCAAAAACAAAGAACCCTAACACCAGCCTAACCAGATTTCAAATTTTATCTTTTGGCGGTATGCACTTTTAACAGTCACCCCCCAACTAACACATTATTTTCCCCTCCCACTCCCATACTACTAATCTCATCAATACAACCCCCGCCCATCCTACCCAGCACACACACACCGCTGCTAACCCCATACCCCGAACCAACCAAACCCCAAAGACACCCCCCACAGTTTATGTAGCTTACCTCCTCAAAGCAATACACTGAAAATGTTTAGACGGGCTCACATCACCCCATAAACAAATAGGTTTGGTCCTAGCCTTTCTATTAGCTCTTAGTAAGATTACACATGCAAGCATCCCCGTTCCAGTGAGTTCACCCTCTAAATCACCACGATCAAAAGGAACAAGCATCAAGCACGCAGCAATGCAGCTCAAAACGCTTAGCCTAGCCACACCCCCACGGGAAACAGCAGTGATTAACCTTTAGCAATAAACGAAAGTTTAACTAAGCTATACTAACCCCAGGGTTGGTCAATTTCGTGCCAGCCACCGCGGTCACACGATTAACCCAAGTCAATAGAAGCCGGCGTAAAGAGTGTTTTAGATCACCCCCTCCCCAATAAAGCTAAAACTCACCTGAGTTGTAAAAAACTCCAGTTGACACAAAATAGACTACGAAAGTGGCTTTAACATATCTGAACACACAATAGCTAAGACCCAAACTGGGATTAGATACCCCACTATGCTTAGCCCTAAACCTCAACAGTTAAATCAACAAAACTGCTCGCCAGAACACTACGAGCCACAGCTTAAAACTCAAAGGACCTGGCGGTGCTTCATATCCCTCTAGAGGAGCCTGTTCTGTAATCGATAAACCCCGATCAACCTCACCACCTCTTGCTCAGCCTATATACCGCCATCTTCAGCAAACCCTGATGAAGGCTACAAAGTAAGCGCAAGTACCCACGTAAAGACGTTAGGTCAAGGTGTAGCCCATGAGGTGGCAAGAAATGGGCTACATTTTCTACCCCAGAAAACTACGATAGCCCTTATGAAACTTAAGGGTCGAAGGTGGATTTAGCAGTAAACTAAGAGTAGAGTGCTTAGTTGAACAGGGCCCTGAAGCGCGTACACACCGCCCGTCACCCTCCTCAAGTATACTTCAAAGGACATTTAACTAAAACCCCTACGCATTTATATAGAGGAGACAAGTCGTAACATGGTAAGTGTACTGGAAAGTGCACTTGGACGAACCAGAGTGTAGCTTAACACAAAGCACCCAACTTACACTTAGGAGATTTCAACTTAACTTGACCGCTCTGAGCTAAACCTAGCCCCAAACCCACTCCACCTTACTACCAGACAACCTTAGCCAAACCATTTACCCAAATAAAGTATAGGCGATAGAAATTGAAACCTGGCGCAATAGATATAGTACCGCAAGGGAAAGATGAAAAATTATAACCAAGCATAATATAGCAAGGACTAACCCCTATACCTTCTGCATAATGAATTAACTAGAAATAACTTTGCAAGGAGAGCCAAAGCTAAGACCCCCGAAACCAGACGAGCTACCTAAGAACAGCTAAAAGAGCACACCCGTCTATGTAGCAAAATAGTGGGAAGATTTATAGGTAGAGGCGACAAACCTACCGAGCCTGGTGATAGCTGGTTGTCCAAGATAGAATCTTAGTTCAACTTTAAATTTGCCCACAGAACCCTCTAAATCCCCTTGTAAATTTAACTGTTAGTCCAAAGAGGAACAGCTCTTTGGACACTAGGAAAAAACCTTGTAGAGAGAGTAAAAAATTTAACACCCATAGTAGGCCTAAAAGCAGCCACCAATTAAGAAAGCGTTCAAGCTCAACACCCACTACCTAAAAAATCCCAAACATATAACTGAACTCCTCACACCCAATTGGACCAATCTATCACCCTATAGAAGAACTAATGTTAGTATAAGTAACATGAAAACATTCTCCTCCGCATAAGCCTGCGTCAGATTAAAACACTGAACTGACAATTAACAGCCCAATATCTACAATCAACCAACAAGTCATTATTACCCTCACTGTCAACCCAACACAGGCATGCTCATAAGGAAAGGTTAAAAAAAGTAAAAGGAACTCGGCAAATCTTACCCCGCCTGTTTACCAAAAACATCACCTCTAGCATCACCAGTATTAGAGGCACCGCCTGCCCAGTGACACATGTTTAACGGCCGCGGTACCCTAACCGTGCAAAGGTAGCATAATCACTTGTTCCTTAAATAGGGACCTGTATGAATGGCTCCACGAGGGTTCAGCTGTCTCTTACTTTTAACCAGTGAAATTGACCTGCCCGTGAAGAGGCGGGCATAACACAGCAAGACGAGAAGACCCTATGGAGCTTTAATTTATTAATGCAAACAGTACCTAACAAACCCACAGGTCCTAAACTACCAAACCTGCATTAAAAATTTCGGTTGGGGCGACCTCGGAGCAGAACCCAACCTCCGAGCAGTACATGCTAAGACTTCACCAGTCAAAGCGAACTACTATACTCAATTGATCCAATAACTTGACCAACGGAACAAGTTACCCTAGGGATAACAGCGCAATCCTATTCTAGAGTCCATATCAACAATAGGGTTTACGACCTCGATGTTGGATCAGGACATCCCGATGGTGCAGCCGCTATTAAAGGTTCGTTTGTTCAACGATTAAAGTCCTACGTGATCTGAGTTCAGACCGGAGTAATCCAGGTCGGTTTCTATCTACNTTCAAATTCCTCCCTGTACGAAAGGACAAGAGAAATAAGGCCTACTTCACAAAGCGCCTTCCCCCGTAAATGATATCATCTCAACTTAGTATTATACCCACACCCACCCAAGAACAGGGTTTGTTAAGATGGCAGAGCCCGGTAATCGCATAAAACTTAAAACTTTACAGTCAGAGGTTCAATTCCTCTTCTTAACAACATACCCATGGCCAACCTCCTACTCCTCATTGTACCCATTCTAATCGCAATGGCATTCCTAATGCTTACCGAACGAAAAATTCTAGGCTATATACAACTACGCAAAGGCCCCAACGTTGTAGGCCCCTACGGGCTACTACAACCCTTCGCTGACGCCATAAAACTCTTCACCAAAGAGCCCCTAAAACCCGCCACATCTACCATCACCCTCTACATCACCGCCCCGACCTTAGCTCTCACCATCGCTCTTCTACTATGAACCCCCCTCCCCATACCCAACCCCCTGGTCAACCTCAACCTAGGCCTCCTATTTATTCTAGCCACCTCTAGCCTAGCCGTTTACTCAATCCTCTGATCAGGGTGAGCATCAAACTCAAACTACGCCCTGATCGGCGCACTGCGAGCAGTAGCCCAAACAATCTCATATGAAGTCACCCTAGCCATCATTCTACTATCAACATTACTAATAAGTGGCTCCTTTAACCTCTCCACCCTTATCACAACACAAGAACACCTCTGATTACTCCTGCCATCATGACCCTTGGCCATAATATGATTTATCTCCACACTAGCAGAGACCAACCGAACCCCCTTCGACCTTGCCGAAGGGGAGTCCGAACTAGTCTCAGGCTTCAACATCGAATACGCCGCAGGCCCCTTCGCCCTATTCTTCATAGCCGAATACACAAACATTATTATAATAAACACCCTCACCACTACAATCTTCCTAGGAACAACATATGACGCACTCTCCCCTGAACTCTACACAACATATTTTGTCACCAAGACCCTACTTCTAACCTCCCTGTTCTTATGAATTCGAACAGCATACCCCCGATTCCGCTACGACCAACTCATACACCTCCTATGAAAAAACTTCCTACCACTCACCCTAGCATTACTTATATGATATGTCTCCATACCCATTACAATCTCCAGCATTCCCCCTCAAACCTAAGAAATATGTCTGATAAAAGAGTTACTTTGATAGAGTAAATAATAGGAGCTTAAACCCCCTTATTTCTAGGACTATGAGAATCGAACCCATCCCTGAGAATCCAAAATTCTCCGTGCCACCTATCACACCCCATCCTAAAGTAAGGTCAGCTAAATAAGCTATCGGGCCCATACCCCGAAAATGTTGGTTATACCCTTCCCGTACTAATTAATCCCCTGGCCCAACCCGTCATCTACTCTACCATCTTTGCAGGCACACTCATCACAGCGCTAAGCTCGCACTGATTTTTTACCTGAGTAGGCCTAGAAATAAACATGCTAGCTTTTATTCCAGTTCTAACCAAAAAAATAAACCCTCGTTCCACAGAAGCTGCCATCAAGTATTTCCTCACGCAAGCAACCGCATCCATAATCCTTCTAATAGCTATCCTCTTCAACAATATACTCTCCGGACAATGAACCATAACCAATACTACCAATCAATACTCATCATTAATAATCATAATAGCTATAGCAATAAAACTAGGAATAGCCCCCTTTCACTTCTGAGTCCCAGAGGTTACCCAAGGCACCCCTCTGACATCCGGCCTGCTTCTTCTCACATGACAAAAACTAGCCCCCATCTCAATCATATACCAAATCTCTCCCTCACTAAACGTAAGCCTTCTCCTCACTCTCTCAATCTTATCCATCATAGCAGGCAGTTGAGGTGGATTAAACCAAACCCAGCTACGCAAAATCTTAGCATACTCCTCAATTACCCACATAGGATGAATAATAGCAGTTCTACCGTACAACCCTAACATAACCATTCTTAATTTAACTATTTATATTATCCTAACTACTACCGCATTCCTACTACTCAACTTAAACTCCAGCACCACGACCCTACTACTATCTCGCACCTGAAACAAGCTAACATGACTAACACCCTTAATTCCATCCACCCTCCTCTCCCTAGGAGGCCTGCCCCCGCTAACCGGCTTTTTGCCCAAATGGGCCATTATCGAAGAATTCACAAAAAACAATAGCCTCATCATCCCCACCATCATAGCCACCATCACCCTCCTTAACCTCTACTTCTACCTACGCCTAATCTACTCCACCTCAATCACACTACTCCCCATATCTAACAACGTAAAAATAAAATGACAGTTTGAACATACAAAACCCACCCCATTCCTCCCCACACTCATCGCCCTTACCACGCTACTCCTACCTATCTCCCCTTTTATACTAATAATCTTATAGAAATTTAGGTTAAATACAGACCAAGAGCCTTCAAAGCCCTCAGTAAGTTGCAATACTTAATTTCTGTAACAGCTAAGGACTGCAAAACCCCACTCTGCATCAACTGAACGCAAATCAGCCACTTTAATTAAGCTAAGCCCTTACTAGACCAATGGGACTTAAACCCACAAACACTTAGTTAACAGCTAAGCACCCTAATCAACTGGCTTCAATCTACTTCTCCCGCCGCCGGGAAAAAAGGCGGGAGAAGCCCCGGCAGGTTTGAAGCTGCTTCTTCGAATTTGCAATTCAATATGAAAATCACCTCGGAGCTGGTAAAAAGAGGCCTAACCCCTGTCTTTAGATTTACAGTCCAATGCTTCACTCAGCCATTTTACCTCACCCCCACTGATGTTCGCCGACCGTTGACTATTCTCTACAAACCACAAAGACATTGGAACACTATACCTATTATTCGGCGCATGAGCTGGAGTCCTAGGCACAGCTCTAAGCCTCCTTATTCGAGCCGAGCTGGGCCAGCCAGGCAACCTTCTAGGTAACGACCACATCTACAACGTTATCGTCACAGCCCATGCATTTGTAATAATCTTCTTCATAGTAATACCCATCATAATCGGAGGCTTTGGCAACTGACTAGTTCCCCTAATAATCGGTGCCCCCGATATGGCGTTTCCCCGCATAAACAACATAAGCTTCTGACTCTTACCTCCCTCTCTCCTACTCCTGCTCGCATCTGCTATAGTGGAGGCCGGAGCAGGAACAGGTTGAACAGTCTACCCTCCCTTAGCAGGGAACTACTCCCACCCTGGAGCCTCCGTAGACCTAACCATCTTCTCCTTACACCTAGCAGGTGTCTCCTCTATCTTAGGGGCCATCAATTTCATCACAACAATTATCAATATAAAACCCCCTGCCATAACCCAATACCAAACGCCCCTCTTCGTCTGATCCGTCCTAATCACAGCAGTCCTACTTCTCCTATCTCTCCCAGTCCTAGCTGCTGGCATCACTATACTACTAACAGACCGCAACCTCAACACCACCTTCTTCGACCCCGCCGGAGGAGGAGACCCCATTCTATACCAACACCTATTCTGATTTTTCGGTCACCCTGAAGTTTATATTCTTATCCTACCAGGCTTCGGAATAATCTCCCATATTGTAACTTACTACTCCGGAAAAAAAGAACCATTTGGATACATAGGTATGGTCTGAGCTATGATATCAATTGGCTTCCTAGGGTTTATCGTGTGAGCACACCATATATTTACAGTAGGAATAGACGTAGACACACGAGCATATTTCACCTCCGCTACCATAATCATCGCTATCCCCACCGGCGTCAAAGTATTTAGCTGACTCGCCACACTCCACGGAAGCAATATGAAATGATCTGCTGCAGTGCTCTGAGCCCTAGGATTCATCTTTCTTTTCACCGTAGGTGGCCTGACTGGCATTGTATTAGCAAACTCATCACTAGACATCGTACTACACGACACGTACTACGTTGTAGCCCACTTCCACTATGTCCTATCAATAGGAGCTGTATTTGCCATCATAGGAGGCTTCATTCACTGATTTCCCCTATTCTCAGGCTACACCCTAGACCAAACCTACGCCAAAATCCATTTCACTATCATATTCATCGGCGTAAATCTAACTTTCTTCCCACAACACTTTCTCGGCCTATCCGGAATGCCCCGACGTTACTCGGACTACCCCGATGCATACACCACATGAAACATCCTATCATCTGTAGGCTCATTCATTTCTCTAACAGCAGTAATATTAATAATTTTCATGATTTGAGAAGCCTTCGCTTCGAAGCGAAAAGTCCTAATAGTAGAAGAACCCTCCATAAACCTGGAGTGACTATATGGATGCCCCCCACCCTACCACACATTCGAAGAACCCGTATACATAAAATCTAGACAAAAAAGGAAGGAATCGAACCCCCCAAAGCTGGTTTCAAGCCAACCCCATGGCCTCCATGACTTTTTCAAAAAGGTATTAGAAAAACCATTTCATAACTTTGTCAAAGTTAAATTATAGGCTAAATCCTATATATCTTAATGGCACATGCAGCGCAAGTAGGTCTACAAGACGCTACTTCCCCTATCATAGAAGAGCTTATCACCTTTCATGATCACGCCCTCATAATCATTTTCCTTATCTGCTTCCTAGTCCTGTATGCCCTTTTCCTAACACTCACAACAAAACTAACTAATACTAACATCTCAGACGCTCAGGAAATAGAAACCGTCTGAACTATCCTGCCCGCCATCATCCTAGTCCTCATCGCCCTCCCATCCCTACGCATCCTTTACATAACAGACGAGGTCAACGATCCCTCCCTTACCATCAAATCAATTGGCCACCAATGGTACTGAACCTACGAGTACACCGACTACGGCGGACTAATCTTCAACTCCTACATACTTCCCCCATTATTCCTAGAACCAGGCGACCTGCGACTCCTTGACGTTGACAATCGAGTAGTACTCCCGATTGAAGCCCCCATTCGTATAATAATTACATCACAAGACGTCTTGCACTCATGAGCTGTCCCCACATTAGGCTTAAAAACAGATGCAATTCCCGGACGTCTAAACCAAACCACTTTCACCGCTACACGACCGGGGGTATACTACGGTCAATGCTCTGAAATCTGTGGAGCAAACCACAGTTTCATGCCCATCGTCCTAGAATTAATTCCCCTAAAAATCTTTGAAATAGGGCCCGTATTTACCCTATAGCACCCCCTCTACCCCCTCTAGAGCCCACTGTAAAGCTAACTTAGCATTAACCTTTTAAGTTAAAGATTAAGAGAACCAACACCTCTTTACAGTGAAATGCCCCAACTAAATACTACCGTATGGCCCACCATAATTACCCCCATACTCCTTACACTATTCCTCATCACCCAACTAAAAATATTAAACACAAACTACCACCTACCTCCCTCACCAAAGCCCATAAAAATAAAAAATTATAACAAACCCTGAGAACCAAAATGAACGAAAATCTGTTCGCTTCATTCATTGCCCCCACAATCCTAGGCCTACCCGCCGCAGTACTGATCATTCTATTTCCCCCTCTATTGATCCCCACCTCCAAATATCTCATCAACAACCGACTAATCACCACCCAACAATGACTAATCAAACTAACCTCAAAACAAATGATAACCATACACAACACTAAAGGACGAACCTGATCTCTTATACTAGTATCCTTAATCATTTTTATTGCCACAACTAACCTCCTCGGACTCCTGCCTCACTCATTTACACCAACCACCCAACTATCTATAAACCTAGCCATGGCCATCCCCTTATGAGCGGGCACAGTGATTATAGGCTTTCGCTCTAAGATTAAAAATGCCCTAGCCCACTTCTTACCACAAGGCACACCTACACCCCTTATCCCCATACTAGTTATTATCGAAACCATCAGCCTACTCATTCAACCAATAGCCCTGGCCGTACGCCTAACCGCTAACATTACTGCAGGCCACCTACTCATGCACCTAATTGGAAGCGCCACCCTAGCAATATCAACCATTAACCTTCCCTCTACACTTATCATCTTCACAATTCTAATTCTACTGACTATCCTAGAAATCGCTGTCGCCTTAATCCAAGCCTACGTTTTCACACTTCTAGTAAGCCTCTACCTGCACGACAACACATAATGACCCACCAATCACATGCCTATCATATAGTAAAACCCAGCCCATGACCCCTAACAGGGGCCCTCTCAGCCCTCCTAATGACCTCCGGCCTAGCCATGTGATTTCACTTCCACTCCATAACGCTCCTCATACTAGGCCTACTAACCAACACACTAACCATATACCAATGATGGCGCGATGTAACACGAGAAAGCACATACCAAGGCCACCACACACCACCTGTCCAAAAAGGCCTTCGATACGGGATAATCCTATTTATTACCTCAGAAGTTTTTTTCTTCGCAGGATTTTTCTGAGCCTTTTACCACTCCAGCCTAGCCCCTACCCCCCAATTAGGAGGGCACTGGCCCCCAACAGGCATCACCCCGCTAAATCCCCTAGAAGTCCCACTCCTAAACACATCCGTATTACTCGCATCAGGAGTATCAATCACCTGAGCTCACCATAGTCTAATAGAAAACAACCGAAACCAAATAATTCAAGCACTGCTTATTACAATTTTACTGGGTCTCTATTTTACCCTCCTACAAGCCTCAGAGTACTTCGAGTCTCCCTTCACCATTTCCGACGGCATCTACGGCTCAACATTTTTTGTAGCCACAGGCTTCCACGGACTTCACGTCATTATTGGCTCAACTTTCCTCACTATCTGCTTCATCCGCCAACTAATATTTCACTTTACATCCAAACATCACTTTGGCTTCGAAGCCGCCGCCTGATACTGGCATTTTGTAGATGTGGTTTGACTATTTCTGTATGTCTCCATCTATTGATGAGGGTCTTACTCTTTTAGTATAAATAGTACCGTTAACTTCCAATTAACTAGTTTTGACAACATTCAAAAAAGAGTAATAAACTTCGCCTTAATTTTAATAATCAACACCCTCCTAGCCTTACTACTAATAATTATTACATTTTGACTACCACAACTCAACGGCTACATAGAAAAATCCACCCCTTACGAGTGCGGCTTCGACCCTATATCCCCCGCCCGCGTCCCTTTCTCCATAAAATTCTTCTTAGTAGCTATTACCTTCTTATTATTTGATCTAGAAATTGCCCTCCTTTTACCCCTACCATGAGCCCTACAAACAACTAACCTGCCACTAATAGTTATGTCATCCCTCTTATTAATCATCATCCTAGCCCTAAGTCTGGCCTATGAGTGACTACAAAAAGGATTAGACTGAACCGAATTGGTATATAGTTTAAACAAAACGAATGATTTCGACTCATTAAATTATGATAATCATATTTACCAAATGCCCCTCATTTACATAAATATTATACTAGCATTTACCATCTCACTTCTAGGAATACTAGTATATCGCTCACACCTCATATCCTCCCTACTATGCCTAGAAGGAATAATACTATCGCTGTTCATTATAGCTACTCTCATAACCCTCAACACCCACTCCCTCTTAGCCAATATTGTGCCTATTGCCATACTAGTCTTTGCCGCCTGCGAAGCAGCGGTGGGCCTAGCCCTACTAGTCTCAATCTCCAACACATATGGCCTAGACTACGTACATAACCTAAACCTACTCCAATGCTAAAACTAATCGTCCCAACAATTATATTACTACCACTGACATGACTTTCCAAAAAACACATAATTTGAATCAACACAACCACCCACAGCCTAATTATTAGCATCATCCCTCTACTATTTTTTAACCAAATCAACAACAACCTATTTAGCTGTTCCCCAACCTTTTCCTCCGACCCCCTAACAACCCCCCTCCTAATACTAACTACCTGACTCCTACCCCTCACAATCATGGCAAGCCAACGCCACTTATCCAGTGAACCACTATCACGAAAAAAACTCTACCTCTCTATACTAATCTCCCTACAAATCTCCTTAATTATAACATTCACAGCCACAGAACTAATCATATTTTATATCTTCTTCGAAACCACACTTATCCCCACCTTGGCTATCATCACCCGATGAGGCAACCAGCCAGAACGCCTGAACGCAGGCACATACTTCCTATTCTACACCCTAGTAGGCTCCCTTCCCCTACTCATCGCACTAATTTACACTCACAACACCCTAGGCTCACTAAACATTCTACTACTCACTCTCACTGCCCAAGAACTATCAAACTCCTGAGCCAACAACTTAATATGACTAGCTTACACAATAGCTTTTATAGTAAAGATACCTCTTTACGGACTCCACTTATGACTCCCTAAAGCCCATGTCGAAGCCCCCATCGCTGGGTCAATAGTACTTGCCGCAGTACTCTTAAAACTAGGCGGCTATGGTATAATACGCCTCACACTCATTCTCAACCCCCTGACAAAACACATAGCCTACCCCTTCCTTGTACTATCCCTATGAGGCATAATTATAACAAGCTCCATCTGCCTACGACAAACAGACCTAAAATCGCTCATTGCATACTCTTCAATCAGCCACATAGCCCTCGTAGTAACAGCCATTCTCATCCAAACCCCCTGAAGCTTCACCGGCGCAGTCATTCTCATAATCGCCCACGGGCTTACATCCTCATTACTATTCTGCCTAGCAAACTCAAACTACGAACGCACTCACAGTCGCATCATAATCCTCTCTCAAGGACTTCAAACTCTACTCCCACTAATAGCTTTTTGATGACTTCTAGCAAGCCTCGCTAACCTCGCCTTACCCCCCACTATTAACCTACTGGGAGAACTCTCTGTGCTAGTAACCACGTTCTCCTGATCAAATATCACTCTCCTACTTACAGGACTCAACATACTAGTCACAGCCCTATACTCCCTCTACATATTTACCACAACACAATGGGGCTCACTCACCCACCACATTAACAACATAAAACCCTCATTCACACGAGAAAACACCCTCATGTTCATACACCTATCCCCCATTCTCCTCCTATCCCTCAACCCCGACATCATTACCGGGTTTTCCTCTTGTAAATATAGTTTAACCAAAACATCAGATTGTGAATCTGACAACAGAGGCTTACGACCCCTTATTTACCGAGAAAGCTCACAAGAACTGCTAACTCATGCCCCCATGTCTAACAACATGGCTTTCTCAACTTTTAAAGGATAACAGCTATCCATTGGTCTTAGGCCCCAAAAATTTTGGTGCAACTCCAAATAAAAGTAATAACCATGCACACTACTATAACCACCCTAACCCTGACTTCCCTAATTCCCCCCATCCTTACCACCCTCGTTAACCCTAACAAAAAAAACTCATACCCCCATTATGTAAAATCCATTGTCGCATCCACCTTTATTATCAGTCTCTTCCCCACAACAATATTCATGTGCCTAGACCAAGAAGTTATTATCTCGAACTGACACTGAGCCACAACCCAAACAACCCAGCTCTCCCTAAGCTTCAAACTAGACTACTTCTCCATAATATTCATCCCTGTAGCATTGTTCGTTACATGGTCCATCATAGAATTCTCACTGTGATATATAAACTCAGACCCAAACATTAATCAGTTCTTCAAATATCTACTCATCTTCCTAATTACCATACTAATCTTAGTTACCGCTAACAACCTATTCCAACTGTTCATCGGCTGAGAGGGCGTAGGAATTATATCCTTCTTGCTCATCAGTTGATGATACGCCCGAGCAGATGCCAACACAGCAGCCATTCAAGCAATCCTATACAACCGTATCGGCGATATCGGTTTCATCCTCGCCTTAGCATGATTTATCCTACACTCCAACTCATGAGACCCACAACAAATAGCCCTTCTAAACGCTAATCCAAGCCTCACCCCACTACTAGGCCTCCTCCTAGCAGCAGCAGGCAAATCAGCCCAATTAGGTCTCCACCCCTGACTCCCCTCAGCCATAGAAGGCCCCACCCCAGTCTCAGCCCTACTCCACTCAAGCACTATAGTTGTAGCAGGAATCTTCTTACTCATCCGCTTCCACCCCCTAGCAGAAAATAGCCCACTAATCCAAACTCTAACACTATGCTTAGGCGCTATCACCACTCTGTTCGCAGCAGTCTGCGCCCTTACACAAAATGACATCAAAAAAATCGTAGCCTTCTCCACTTCAAGTCAACTAGGACTCATAATAGTTACAATCGGCATCAACCAACCACACCTAGCATTCCTGCACATCTGTACCCACGCCTTCTTCAAAGCCATACTATTTATGTGCTCCGGGTCCATCATCCACAACCTTAACAATGAACAAGATATTCGAAAAATAGGAGGACTACTCAAAACCATACCTCTCACTTCAACCTCCCTCACCATTGGCAGCCTAGCATTAGCAGGAATACCTTTCCTCACAGGTTTCTACTCCAAAGACCACATCATCGAAACCGCAAACATATCATACACAAACGCCTGAGCCCTATCTATTACTCTCATCGCTACCTCCCTGACAAGCGCCTATAGCACTCGAATAATTCTTCTCACCCTAACAGGTCAACCTCGCTTCCCCACCCTTACTAACATTAACGAAAATAACCCCACCCTACTAAACCCCATTAAACGCCTGGCAGCCGGAAGCCTATTCGCAGGATTTCTCATTACTAACAACATTTCCCCCGCATCCCCCTTCCAAACAACAATCCCCCTCTACCTAAAACTCACAGCCCTCGCTGTCACTTTCCTAGGACTTCTAACAGCCCTAGACCTCAACTACCTAACCAACAAACTTAAAATAAAATCCCCACTATGCACATTTTATTTCTCCAACATACTCGGATTCTACCCTAGCATCACACACCGCACAATCCCCTATCTAGGCCTTCTTACGAGCCAAAACCTGCCCCTACTCCTCCTAGACCTAACCTGACTAGAAAAGCTATTACCTAAAACAATTTCACAGCACCAAATCTCCACCTCCATCATCACCTCAACCCAAAAAGGCATAATTAAACTTTACTTCCTCTCTTTCTTCTTCCCACTCATCCTAACCCTACTCCTAATCACATAACCTATTCCCCCGAGCAATCTCAATTACAATATATACACCAACAAACAATGTTCAACCAGTAACTACTACTAATCAACGCCCATAATCATACAAAGCCCCCGCACCAATAGGATCCTCCCGAATCAACCCTGACCCCTCTCCTTCATAAATTATTCAGCTTCCTACACTATTAAAGTTTACCACAACCACCACCCCATCATACTCTTTCACCCACAGCACCAATCCTACCTCCATCGCTAACCCCACTAAAACACTCACCAAGACCTCAACCCCTGACCCCCATGCCTCAGGATACTCCTCAATAGCCATCGCTGTAGTATATCCAAAGACAACCATCATTCCCCCTAAATAAATTAAAAAAACTATTAAACCCATATAACCTCCCCCAAAATTCAGAATAATAACACACCCGACCACACCGCTAACAATCAATACTAAACCCCCATAAATAGGAGAAGGCTTAGAAGAAAACCCCACAAACCCCATTACTAAACCCACACTCAACAGAAACAAAGCATACATCATTATTCTCGCACGGACTACAACCACGACCAATGATATGAAAAACCATCGTTGTATTTCAACTACAAGAACACCAATGACCCCAATACGCAAAACTAACCCCCTAATAAAATTAATTAACCACTCATTCATCGACCTCCCCACCCCATCCAACATCTCCGCATGATGAAACTTCGGCTCACTCCTTGGCGCCTGCCTGATCCTCCAAATCACCACAGGACTATTCCTAGCCATGCACTACTCACCAGACGCCTCAACCGCCTTTTCATCAATCGCCCACATCACTCGAGACGTAAATTATGGCTGAATCATCCGCTACCTTCACGCCAATGGCGCCTCAATATTCTTTATCTGCCTCTTCCTACACATCGGGCGAGGCCTATATTACGGATCATTTCTCTACTCAGAAACCTGAAACATCGGCATTATCCTCCTGCTTGCAACTATAGCAACAGCCTTCATAGGCTATGTCCTCCCGTGAGGCCAAATATCATTCTGAGGGGCCACAGTAATTACAAACTTACTATCCGCCATCCCATACATTGGGACAGACCTAGTTCAATGAATCTGAGGAGGCTACTCAGTAGACAGTCCCACCCTCACACGATTCTTTACCTTTCACTTCATCTTGCCCTTCATTATTGCAGCCCTAGCAACACTCCACCTCCTATTCTTGCACGAAACGGGATCAAACAACCCCCTAGGAATCACCTCCCATTCCGATAAAATCACCTTCCACCCTTACTACACAATCAAAGACGCCCTCGGCTTACTTCTCTTCCTTCTCTCCTTAATGACATTAACACTATTCTCACCAGACCTCCTAGGCGACCCAGACAATTATACCCTAGCCAACCCCTTAAACACCCCTCCCCACATCAAGCCCGAATGATATTTCCTATTCGCCTACACAATTCTCCGATCCGTCCCTAACAAACTAGGAGGCGTCCTTGCCCTATTACTATCCATCCTCATCCTAGCAATAATCCCCATCCTCCATATATCCAAACAACAAAGCATAATATTTCGCCCACTAAGCCAATCACTTTATTGACTCCTAGCCGCAGACCTCCTCATTCTAACCTGAATCGGAGGACAACCAGTAAGCTACCCTTTTACCATCATTGGACAAGTAGCATCCGTACTATACTTCACAACAATCCTAATCCTAATACCAACTATCTCCCTAATTGAAAACAAAATACTCAAATGGGCCTGTCCTTGTAGTATAAACTAATACACCAGTCTTGTAAACCGGAGATGAAAACCTTTTTCCAAGGACAAATCAGAGAAAAAGTCTTTAACTCCACCATTAGCACCCAAAGCTAAGATTCTAATTTAAACTATTCTCTGTTCTTTCATGGGGAAGCAGATTTGGGTACCACCCAAGTATTGACTCACCCATCAACAACCGCTATGTATTTCGTACATTACTGCCAGCCACCATGAATATTGTACGGTACCATAAATACTTGACCACCTGTAGTACATAAAAACCCAATCCACATCAAAACCCCCTCCCCATGCTTACAAGCAAGTACAGCAATCAACCCTCAACTATCACACATCAACTGCAACTCCAAAGCCACCCCTCACCCACTAGGATACCAACAAACCTACCCACCCTTAACAGTACATAGTACATAAAGCCATTTACCGTACATAGCACATTACAGTCAAATCCCTTCTCGTCCCCATGGATGACCCCCCTCAGATAGGGGTCCCTTGACCACCATCCTCCGTGAAATCAATATCCCGCACAAGAGTGCTACTCTCCTCGCTCCGGGCCCATAACACTTGGGGGTAGCTAAAGTGAACTGTATCCGACATCTGGTTCCTACTTCAGGGTCATAAAGCCTAAATAGCCCACACGTTCCCCTTAAATAAGACATCACGATG'
p2826
sbsS'_per_letter_annotations'
p2827
g1
(cBio.SeqRecord
_RestrictedDict
p2828
c__builtin__
dict
p2829
(dtRp2830
(dp2831
S'_length'
p2832
I16569
sbsg150
S'NC_012920.1'
p2833
sS'name'
p2834
S'NC_012920'
p2835
sb.