ccopy_reg
_reconstructor
p1
(cBio.SeqRecord
SeqRecord
p2
c__builtin__
object
p3
NtRp4
(dp5
S'dbxrefs'
p6
(lp7
S'Project:30941 BioProject:PRJNA30941'
p8
asS'description'
p9
S'Homo sapiens neanderthalensis mitochondrion, complete genome.'
p10
sS'annotations'
p11
(dp12
S'comment'
p13
S'REVIEWED REFSEQ: This record has been curated by NCBI staff. The\nreference sequence was derived from AM948965.\nCOMPLETENESS: full length.'
p14
sS'sequence_version'
p15
I1
sS'source'
p16
S'mitochondrion Homo sapiens neanderthalensis (Neandertal)'
p17
sS'taxonomy'
p18
(lp19
S'Eukaryota'
p20
aS'Metazoa'
p21
aS'Chordata'
p22
aS'Craniata'
p23
aS'Vertebrata'
p24
aS'Euteleostomi'
p25
aS'Mammalia'
p26
aS'Eutheria'
p27
aS'Euarchontoglires'
p28
aS'Primates'
p29
aS'Haplorrhini'
p30
aS'Catarrhini'
p31
aS'Hominidae'
p32
aS'Homo'
p33
asS'keywords'
p34
(lp35
S'complete genome'
p36
asS'references'
p37
(lp38
g1
(cBio.SeqFeature
Reference
p39
g3
NtRp40
(dp41
g13
S''
sS'title'
p42
S'A complete Neandertal mitochondrial genome sequence determined by high-throughput sequencing'
p43
sS'consrtm'
p44
S''
sS'journal'
p45
S'Cell 134 (3), 416-426 (2008)'
p46
sS'location'
p47
(lp48
g1
(cBio.SeqFeature
FeatureLocation
p49
g3
NtRp50
(dp51
S'ref'
p52
NsS'_end'
p53
g1
(cBio.SeqFeature
ExactPosition
p54
c__builtin__
int
p55
I16565
tRp56
sS'_start'
p57
g1
(g54
g55
I0
tRp58
sS'_strand'
p59
NsS'ref_db'
p60
NsbasS'pubmed_id'
p61
S'18692465'
p62
sS'authors'
p63
S'Green,R.E., Malaspinas,A.S., Krause,J., Briggs,A.W., Johnson,P.L., Uhler,C., Meyer,M., Good,J.M., Maricic,T., Stenzel,U., Prufer,K., Siebauer,M., Burbano,H.A., Ronan,M., Rothberg,J.M., Egholm,M., Rudan,P., Brajkovic,D., Kucan,Z., Gusic,I., Wikstrom,M., Laakkonen,L., Kelso,J., Slatkin,M. and Paabo,S.'
p64
sS'medline_id'
p65
S''
sbag1
(g39
g3
NtRp66
(dp67
g13
S''
sg42
S'Direct Submission'
p68
sg44
S'NCBI Genome Project'
p69
sg45
S'Submitted (14-AUG-2008) National Center for Biotechnology Information, NIH, Bethesda, MD 20894, USA'
p70
sg47
(lp71
g1
(g49
g3
NtRp72
(dp73
g52
Nsg53
g1
(g54
g55
I16565
tRp74
sg57
g1
(g54
g55
I0
tRp75
sg59
Nsg60
Nsbasg61
S''
sg63
S''
sg65
S''
sbag1
(g39
g3
NtRp76
(dp77
g13
S''
sg42
S'Direct Submission'
p78
sg44
S''
sg45
S'Submitted (20-MAR-2008) Genetics, MPI for Evolutionary Anthropology, Deutscher Platz 6, 04103 Leipzig, Germany'
p79
sg47
(lp80
g1
(g49
g3
NtRp81
(dp82
g52
Nsg53
g1
(g54
g55
I16565
tRp83
sg57
g1
(g54
g55
I0
tRp84
sg59
Nsg60
Nsbasg61
S''
sg63
S'Green,R.E.'
p85
sg65
S''
sbasS'accessions'
p86
(lp87
S'NC_011137'
p88
asS'data_file_division'
p89
S'PRI'
p90
sS'date'
p91
S'15-APR-2009'
p92
sS'organism'
p93
S'Homo sapiens neanderthalensis'
p94
sS'gi'
p95
S'196123578'
p96
ssS'features'
p97
(lp98
g1
(cBio.SeqFeature
SeqFeature
p99
g3
NtRp100
(dp101
S'sub_features'
p102
(lp103
sS'location_operator'
p104
S''
sS'id'
p105
S'<unknown id>'
p106
sg47
g1
(g49
g3
NtRp107
(dp108
g52
Nsg53
g1
(g54
g55
I16565
tRp109
sg57
g1
(g54
g55
I0
tRp110
sg59
I1
sg60
NsbsS'type'
p111
S'source'
p112
sS'qualifiers'
p113
(dp114
S'sub_species'
p115
(lp116
S'neanderthalensis'
p117
asS'mol_type'
p118
(lp119
S'genomic DNA'
p120
asS'country'
p121
(lp122
S'Croatia'
p123
asS'organelle'
p124
(lp125
S'mitochondrion'
p126
asS'db_xref'
p127
(lp128
S'taxon:63221'
p129
asS'tissue_type'
p130
(lp131
S'bone fossil'
p132
asS'common'
p133
(lp134
S'Neandertal'
p135
asS'organism'
p136
(lp137
S'Homo sapiens neanderthalensis'
p138
assbag1
(g99
g3
NtRp139
(dp140
g102
(lp141
g1
(g99
g3
NtRp142
(dp143
g102
(lp144
sg104
S'join'
p145
sg105
g106
sg47
g1
(g49
g3
NtRp146
(dp147
g52
Nsg53
g1
(g54
g55
I572
tRp148
sg57
g1
(g54
g55
I0
tRp149
sg59
I-1
sg60
Nsbsg111
S'D-loop'
p150
sg113
(dp151
sbag1
(g99
g3
NtRp152
(dp153
g102
(lp154
sg104
g145
sg105
g106
sg47
g1
(g49
g3
NtRp155
(dp156
g52
Nsg53
g1
(g54
g55
I16565
tRp157
sg57
g1
(g54
g55
I16018
tRp158
sg59
I-1
sg60
Nsbsg111
g150
sg113
(dp159
sbasg104
g145
sg105
g106
sg47
g1
(g49
g3
NtRp160
(dp161
g52
Nsg53
g157
sg57
g149
sg59
I-1
sg60
Nsbsg111
g150
sg113
(dp162
sbag1
(g99
g3
NtRp163
(dp164
g102
(lp165
sg104
S''
sg105
g106
sg47
g1
(g49
g3
NtRp166
(dp167
g52
Nsg53
g1
(g54
g55
I643
tRp168
sg57
g1
(g54
g55
I572
tRp169
sg59
I1
sg60
Nsbsg111
S'gene'
p170
sg113
(dp171
S'db_xref'
p172
(lp173
S'GeneID:6775088'
p174
asS'gene'
p175
(lp176
S'trnF'
p177
assbag1
(g99
g3
NtRp178
(dp179
g102
(lp180
sg104
S''
sg105
g106
sg47
g1
(g49
g3
NtRp181
(dp182
g52
Nsg53
g1
(g54
g55
I643
tRp183
sg57
g1
(g54
g55
I572
tRp184
sg59
I1
sg60
Nsbsg111
S'tRNA'
p185
sg113
(dp186
S'db_xref'
p187
(lp188
S'GeneID:6775088'
p189
asS'product'
p190
(lp191
S'tRNA-Phe'
p192
asS'gene'
p193
(lp194
S'trnF'
p195
assbag1
(g99
g3
NtRp196
(dp197
g102
(lp198
sg104
S''
sg105
g106
sg47
g1
(g49
g3
NtRp199
(dp200
g52
Nsg53
g1
(g54
g55
I1597
tRp201
sg57
g1
(g54
g55
I643
tRp202
sg59
I1
sg60
Nsbsg111
S'gene'
p203
sg113
(dp204
S'db_xref'
p205
(lp206
S'GeneID:6775087'
p207
asS'gene'
p208
(lp209
S'12S rRNA'
p210
assbag1
(g99
g3
NtRp211
(dp212
g102
(lp213
sg104
S''
sg105
g106
sg47
g1
(g49
g3
NtRp214
(dp215
g52
Nsg53
g1
(g54
g55
I1597
tRp216
sg57
g1
(g54
g55
I643
tRp217
sg59
I1
sg60
Nsbsg111
S'rRNA'
p218
sg113
(dp219
S'note'
p220
(lp221
S'12S ribosomal RNA'
p222
asS'db_xref'
p223
(lp224
S'GeneID:6775087'
p225
asS'product'
p226
(lp227
S's-rRNA'
p228
asS'gene'
p229
(lp230
S'12S rRNA'
p231
assbag1
(g99
g3
NtRp232
(dp233
g102
(lp234
sg104
S''
sg105
g106
sg47
g1
(g49
g3
NtRp235
(dp236
g52
Nsg53
g1
(g54
g55
I1666
tRp237
sg57
g1
(g54
g55
I1597
tRp238
sg59
I1
sg60
Nsbsg111
S'gene'
p239
sg113
(dp240
S'db_xref'
p241
(lp242
S'GeneID:6775090'
p243
asS'gene'
p244
(lp245
S'trnV'
p246
assbag1
(g99
g3
NtRp247
(dp248
g102
(lp249
sg104
S''
sg105
g106
sg47
g1
(g49
g3
NtRp250
(dp251
g52
Nsg53
g1
(g54
g55
I1666
tRp252
sg57
g1
(g54
g55
I1597
tRp253
sg59
I1
sg60
Nsbsg111
S'tRNA'
p254
sg113
(dp255
S'db_xref'
p256
(lp257
S'GeneID:6775090'
p258
asS'product'
p259
(lp260
S'tRNA-Val'
p261
asS'gene'
p262
(lp263
S'trnV'
p264
assbag1
(g99
g3
NtRp265
(dp266
g102
(lp267
sg104
S''
sg105
g106
sg47
g1
(g49
g3
NtRp268
(dp269
g52
Nsg53
g1
(g54
g55
I3224
tRp270
sg57
g1
(g54
g55
I1666
tRp271
sg59
I1
sg60
Nsbsg111
S'gene'
p272
sg113
(dp273
S'db_xref'
p274
(lp275
S'GeneID:6775085'
p276
asS'gene'
p277
(lp278
S'16S rRNA'
p279
assbag1
(g99
g3
NtRp280
(dp281
g102
(lp282
sg104
S''
sg105
g106
sg47
g1
(g49
g3
NtRp283
(dp284
g52
Nsg53
g1
(g54
g55
I3224
tRp285
sg57
g1
(g54
g55
I1666
tRp286
sg59
I1
sg60
Nsbsg111
S'rRNA'
p287
sg113
(dp288
S'note'
p289
(lp290
S'16S ribosomal RNA'
p291
asS'db_xref'
p292
(lp293
S'GeneID:6775085'
p294
asS'product'
p295
(lp296
S'l-rRNA'
p297
asS'gene'
p298
(lp299
S'16S rRNA'
p300
assbag1
(g99
g3
NtRp301
(dp302
g102
(lp303
sg104
S''
sg105
g106
sg47
g1
(g49
g3
NtRp304
(dp305
g52
Nsg53
g1
(g54
g55
I3299
tRp306
sg57
g1
(g54
g55
I3224
tRp307
sg59
I1
sg60
Nsbsg111
S'gene'
p308
sg113
(dp309
S'db_xref'
p310
(lp311
S'GeneID:6775086'
p312
asS'gene'
p313
(lp314
S'trnL'
p315
assbag1
(g99
g3
NtRp316
(dp317
g102
(lp318
sg104
S''
sg105
g106
sg47
g1
(g49
g3
NtRp319
(dp320
g52
Nsg53
g1
(g54
g55
I3299
tRp321
sg57
g1
(g54
g55
I3224
tRp322
sg59
I1
sg60
Nsbsg111
S'tRNA'
p323
sg113
(dp324
S'db_xref'
p325
(lp326
S'GeneID:6775086'
p327
asS'product'
p328
(lp329
S'tRNA-Leu'
p330
asS'gene'
p331
(lp332
S'trnL'
p333
assbag1
(g99
g3
NtRp334
(dp335
g102
(lp336
sg104
S''
sg105
g106
sg47
g1
(g49
g3
NtRp337
(dp338
g52
Nsg53
g1
(g54
g55
I4258
tRp339
sg57
g1
(cBio.SeqFeature
BeforePosition
p340
g55
I3301
tRp341
sg59
I1
sg60
Nsbsg111
S'gene'
p342
sg113
(dp343
S'db_xref'
p344
(lp345
S'GeneID:6775098'
p346
asS'gene'
p347
(lp348
S'ND1'
p349
assbag1
(g99
g3
NtRp350
(dp351
g102
(lp352
sg104
S''
sg105
g106
sg47
g1
(g49
g3
NtRp353
(dp354
g52
Nsg53
g1
(g54
g55
I4258
tRp355
sg57
g1
(g340
g55
I3301
tRp356
sg59
I1
sg60
Nsbsg111
S'CDS'
p357
sg113
(dp358
S'product'
p359
(lp360
S'NADH dehydrogenase subunit 1'
p361
asS'inference'
p362
(lp363
S'similar to DNA sequence:INSD:D38113.1'
p364
asS'codon_start'
p365
(lp366
S'1'
asS'transl_table'
p367
(lp368
S'2'
asS'note'
p369
(lp370
S'start codon not determined'
p371
asS'db_xref'
p372
(lp373
S'GI:196123579'
p374
aS'GeneID:6775098'
p375
asS'translation'
p376
(lp377
S'TPMANLLLLVVPILIAMAFLMLTERKILGYMQLRKGPNVVGPYGLLQPFADAMKLFTKEPLKPATSTITLYITAPTLALTIALLLWTPLPMPNPLVNLNLGLLFILATSSLAVYSILWSGWASNSNYALIGALRAVAQTISYEVTLAIILLSTLLMSGSFNLSTLITAQEHLWLLLPSWPLAMMWFISTLAETNRTPFDLAEGESELVSGFNIEYAAGPFALFFMAEYTNIIMMNTLTTTIFLGTTYNALSPELYTTYFVTKTLLLTSLFLWIRTAYPRFRYDQLMHLLWKNFLPLTLALLMWYVSMPITISSIPPQT'
p378
asS'gene'
p379
(lp380
S'ND1'
p381
asS'protein_id'
p382
(lp383
S'YP_002124302.1'
p384
assbag1
(g99
g3
NtRp385
(dp386
g102
(lp387
sg104
S''
sg105
g106
sg47
g1
(g49
g3
NtRp388
(dp389
g52
Nsg53
g1
(g54
g55
I4326
tRp390
sg57
g1
(g54
g55
I4257
tRp391
sg59
I1
sg60
Nsbsg111
S'gene'
p392
sg113
(dp393
S'db_xref'
p394
(lp395
S'GeneID:6775097'
p396
asS'gene'
p397
(lp398
S'trnI'
p399
assbag1
(g99
g3
NtRp400
(dp401
g102
(lp402
sg104
S''
sg105
g106
sg47
g1
(g49
g3
NtRp403
(dp404
g52
Nsg53
g1
(g54
g55
I4326
tRp405
sg57
g1
(g54
g55
I4257
tRp406
sg59
I1
sg60
Nsbsg111
S'tRNA'
p407
sg113
(dp408
S'db_xref'
p409
(lp410
S'GeneID:6775097'
p411
asS'product'
p412
(lp413
S'tRNA-Ile'
p414
asS'gene'
p415
(lp416
S'trnI'
p417
assbag1
(g99
g3
NtRp418
(dp419
g102
(lp420
sg104
S''
sg105
g106
sg47
g1
(g49
g3
NtRp421
(dp422
g52
Nsg53
g1
(g54
g55
I4395
tRp423
sg57
g1
(g54
g55
I4323
tRp424
sg59
I-1
sg60
Nsbsg111
S'gene'
p425
sg113
(dp426
S'db_xref'
p427
(lp428
S'GeneID:6775095'
p429
asS'gene'
p430
(lp431
S'trnQ'
p432
assbag1
(g99
g3
NtRp433
(dp434
g102
(lp435
sg104
S''
sg105
g106
sg47
g1
(g49
g3
NtRp436
(dp437
g52
Nsg53
g1
(g54
g55
I4395
tRp438
sg57
g1
(g54
g55
I4323
tRp439
sg59
I-1
sg60
Nsbsg111
S'tRNA'
p440
sg113
(dp441
S'db_xref'
p442
(lp443
S'GeneID:6775095'
p444
asS'product'
p445
(lp446
S'tRNA-Gln'
p447
asS'gene'
p448
(lp449
S'trnQ'
p450
assbag1
(g99
g3
NtRp451
(dp452
g102
(lp453
sg104
S''
sg105
g106
sg47
g1
(g49
g3
NtRp454
(dp455
g52
Nsg53
g1
(g54
g55
I4464
tRp456
sg57
g1
(g54
g55
I4396
tRp457
sg59
I1
sg60
Nsbsg111
S'gene'
p458
sg113
(dp459
S'db_xref'
p460
(lp461
S'GeneID:6775096'
p462
asS'gene'
p463
(lp464
S'trnM'
p465
assbag1
(g99
g3
NtRp466
(dp467
g102
(lp468
sg104
S''
sg105
g106
sg47
g1
(g49
g3
NtRp469
(dp470
g52
Nsg53
g1
(g54
g55
I4464
tRp471
sg57
g1
(g54
g55
I4396
tRp472
sg59
I1
sg60
Nsbsg111
S'tRNA'
p473
sg113
(dp474
S'db_xref'
p475
(lp476
S'GeneID:6775096'
p477
asS'product'
p478
(lp479
S'tRNA-Met'
p480
asS'gene'
p481
(lp482
S'trnM'
p483
assbag1
(g99
g3
NtRp484
(dp485
g102
(lp486
sg104
S''
sg105
g106
sg47
g1
(g49
g3
NtRp487
(dp488
g52
Nsg53
g1
(g54
g55
I5506
tRp489
sg57
g1
(g54
g55
I4464
tRp490
sg59
I1
sg60
Nsbsg111
S'gene'
p491
sg113
(dp492
S'db_xref'
p493
(lp494
S'GeneID:6775094'
p495
asS'gene'
p496
(lp497
S'ND2'
p498
assbag1
(g99
g3
NtRp499
(dp500
g102
(lp501
sg104
S''
sg105
g106
sg47
g1
(g49
g3
NtRp502
(dp503
g52
Nsg53
g1
(g54
g55
I5506
tRp504
sg57
g1
(g54
g55
I4464
tRp505
sg59
I1
sg60
Nsbsg111
S'CDS'
p506
sg113
(dp507
S'product'
p508
(lp509
S'NADH dehydrogenase subunit 2'
p510
asS'transl_except'
p511
(lp512
S'(pos:5506,aa:TERM)'
p513
asS'codon_start'
p514
(lp515
S'1'
asS'transl_table'
p516
(lp517
S'2'
asS'note'
p518
(lp519
S"TAA stop codon is completed by the addition of 3' A residues to the mRNA"
p520
asS'db_xref'
p521
(lp522
S'GI:196123580'
p523
aS'GeneID:6775094'
p524
asS'translation'
p525
(lp526
S'MNPLAQPVIYSTIFAGTLITALSSHWFFTWVGLEMNMLAFIPVLTKKMNPRSTEAAIKYFLTQATASMILLMAILFNNMLSGQWTMTNTTNQYSSLMIMMAMAMKLGMAPFHFWVPEVTQGTPLTSGLLLLTWQKLAPISIMYQISPSLNVSLLLTLSILSIMAGSWGGLNQTQLRKILAYSSITHMGWMMAVLPYNPNMTILNLTIYIILTTTAFLLLNLNSSTTTLLLSRTWNKLTWLTPLIPSTLLSLGGLPPLTGFLPKWAIIEEFTKNNSLIIPTIMATITLLNLYFYLRLIYSTSITLLPMSNNVKMKWQFEHTKPTPFLPTLITLTTLLLPISPFMLMVL'
p527
asS'gene'
p528
(lp529
S'ND2'
p530
asS'protein_id'
p531
(lp532
S'YP_002124303.1'
p533
assbag1
(g99
g3
NtRp534
(dp535
g102
(lp536
sg104
S''
sg105
g106
sg47
g1
(g49
g3
NtRp537
(dp538
g52
Nsg53
g1
(g54
g55
I5574
tRp539
sg57
g1
(g54
g55
I5506
tRp540
sg59
I1
sg60
Nsbsg111
S'gene'
p541
sg113
(dp542
S'db_xref'
p543
(lp544
S'GeneID:6775092'
p545
asS'gene'
p546
(lp547
S'trnW'
p548
assbag1
(g99
g3
NtRp549
(dp550
g102
(lp551
sg104
S''
sg105
g106
sg47
g1
(g49
g3
NtRp552
(dp553
g52
Nsg53
g1
(g54
g55
I5574
tRp554
sg57
g1
(g54
g55
I5506
tRp555
sg59
I1
sg60
Nsbsg111
S'tRNA'
p556
sg113
(dp557
S'db_xref'
p558
(lp559
S'GeneID:6775092'
p560
asS'product'
p561
(lp562
S'tRNA-Trp'
p563
asS'gene'
p564
(lp565
S'trnW'
p566
assbag1
(g99
g3
NtRp567
(dp568
g102
(lp569
sg104
S''
sg105
g106
sg47
g1
(g49
g3
NtRp570
(dp571
g52
Nsg53
g1
(g54
g55
I5650
tRp572
sg57
g1
(g54
g55
I5581
tRp573
sg59
I-1
sg60
Nsbsg111
S'gene'
p574
sg113
(dp575
S'db_xref'
p576
(lp577
S'GeneID:6775093'
p578
asS'gene'
p579
(lp580
S'trnA'
p581
assbag1
(g99
g3
NtRp582
(dp583
g102
(lp584
sg104
S''
sg105
g106
sg47
g1
(g49
g3
NtRp585
(dp586
g52
Nsg53
g1
(g54
g55
I5650
tRp587
sg57
g1
(g54
g55
I5581
tRp588
sg59
I-1
sg60
Nsbsg111
S'tRNA'
p589
sg113
(dp590
S'db_xref'
p591
(lp592
S'GeneID:6775093'
p593
asS'product'
p594
(lp595
S'tRNA-Ala'
p596
asS'gene'
p597
(lp598
S'trnA'
p599
assbag1
(g99
g3
NtRp600
(dp601
g102
(lp602
sg104
S''
sg105
g106
sg47
g1
(g49
g3
NtRp603
(dp604
g52
Nsg53
g1
(g54
g55
I5724
tRp605
sg57
g1
(g54
g55
I5651
tRp606
sg59
I-1
sg60
Nsbsg111
S'gene'
p607
sg113
(dp608
S'db_xref'
p609
(lp610
S'GeneID:6775091'
p611
asS'gene'
p612
(lp613
S'trnN'
p614
assbag1
(g99
g3
NtRp615
(dp616
g102
(lp617
sg104
S''
sg105
g106
sg47
g1
(g49
g3
NtRp618
(dp619
g52
Nsg53
g1
(g54
g55
I5724
tRp620
sg57
g1
(g54
g55
I5651
tRp621
sg59
I-1
sg60
Nsbsg111
S'tRNA'
p622
sg113
(dp623
S'db_xref'
p624
(lp625
S'GeneID:6775091'
p626
asS'product'
p627
(lp628
S'tRNA-Asn'
p629
asS'gene'
p630
(lp631
S'trnN'
p632
assbag1
(g99
g3
NtRp633
(dp634
g102
(lp635
sg104
S''
sg105
g106
sg47
g1
(g49
g3
NtRp636
(dp637
g52
Nsg53
g1
(g54
g55
I5821
tRp638
sg57
g1
(g54
g55
I5754
tRp639
sg59
I1
sg60
Nsbsg111
S'gene'
p640
sg113
(dp641
S'db_xref'
p642
(lp643
S'GeneID:6775084'
p644
asS'gene'
p645
(lp646
S'trnC'
p647
assbag1
(g99
g3
NtRp648
(dp649
g102
(lp650
sg104
S''
sg105
g106
sg47
g1
(g49
g3
NtRp651
(dp652
g52
Nsg53
g1
(g54
g55
I5821
tRp653
sg57
g1
(g54
g55
I5754
tRp654
sg59
I1
sg60
Nsbsg111
S'tRNA'
p655
sg113
(dp656
S'db_xref'
p657
(lp658
S'GeneID:6775084'
p659
asS'product'
p660
(lp661
S'tRNA-Cys'
p662
asS'gene'
p663
(lp664
S'trnC'
p665
assbag1
(g99
g3
NtRp666
(dp667
g102
(lp668
sg104
S''
sg105
g106
sg47
g1
(g49
g3
NtRp669
(dp670
g52
Nsg53
g1
(g54
g55
I5886
tRp671
sg57
g1
(g54
g55
I5820
tRp672
sg59
I-1
sg60
Nsbsg111
S'gene'
p673
sg113
(dp674
S'db_xref'
p675
(lp676
S'GeneID:6775082'
p677
asS'gene'
p678
(lp679
S'trnY'
p680
assbag1
(g99
g3
NtRp681
(dp682
g102
(lp683
sg104
S''
sg105
g106
sg47
g1
(g49
g3
NtRp684
(dp685
g52
Nsg53
g1
(g54
g55
I5886
tRp686
sg57
g1
(g54
g55
I5820
tRp687
sg59
I-1
sg60
Nsbsg111
S'tRNA'
p688
sg113
(dp689
S'db_xref'
p690
(lp691
S'GeneID:6775082'
p692
asS'product'
p693
(lp694
S'tRNA-Tyr'
p695
asS'gene'
p696
(lp697
S'trnY'
p698
assbag1
(g99
g3
NtRp699
(dp700
g102
(lp701
sg104
S''
sg105
g106
sg47
g1
(g49
g3
NtRp702
(dp703
g52
Nsg53
g1
(g54
g55
I7440
tRp704
sg57
g1
(g54
g55
I5898
tRp705
sg59
I1
sg60
Nsbsg111
S'gene'
p706
sg113
(dp707
S'db_xref'
p708
(lp709
S'GeneID:6775083'
p710
asS'gene'
p711
(lp712
S'COX1'
p713
assbag1
(g99
g3
NtRp714
(dp715
g102
(lp716
sg104
S''
sg105
g106
sg47
g1
(g49
g3
NtRp717
(dp718
g52
Nsg53
g1
(g54
g55
I7440
tRp719
sg57
g1
(g54
g55
I5898
tRp720
sg59
I1
sg60
Nsbsg111
S'CDS'
p721
sg113
(dp722
S'product'
p723
(lp724
S'cytochrome c oxidase subunit I'
p725
asS'codon_start'
p726
(lp727
S'1'
asS'transl_table'
p728
(lp729
S'2'
asS'db_xref'
p730
(lp731
S'GI:196123581'
p732
aS'GeneID:6775083'
p733
asS'translation'
p734
(lp735
S'MFADRWLFSTNHKDIGTLYLLFGAWAGVLGTALSLLIRAELGQPGNLLGNDHIYNVIVTAHAFVMIFFMVMPIMIGGFGNWLVPLMIGAPDMAFPRMNNMSFWLLPPSLLLLLASAMVEAGAGTGWTVYPPLAGNYSHPGASVDLTIFSLHLAGVSSILGAINFITTIINMKPPAMTQYQTPLFVWSVLITAVLLLLSLPVLAAGITMLLTDRNLNTTFFDPAGGGDPILYQHLFWFFGHPEVYILILPGFGMISHIVTYYSGKKEPFGYMGMVWAMMSIGFLGFIVWAHHMFTVGMDVDTRAYFTSATMIIAIPTGVKVFSWLATLHGSNMKWSAAVLWALGFIFLFTVGGLTGIVLANSSLDIVLHDTYYVVAHFHYVLSMGAVFAIMGGFIHWFPLFSGYTLDQTYAKIHFTIMFIGVNLTFFPQHFLGLSGMPRRYSDYPDAYTTWNILSSVGSFISLTAVMLMIFMIWEAFASKRKVLMVEEPSMNLEWLYGCPPPYHTFEEPVYMKS'
p736
asS'gene'
p737
(lp738
S'COX1'
p739
asS'protein_id'
p740
(lp741
S'YP_002124304.1'
p742
assbag1
(g99
g3
NtRp743
(dp744
g102
(lp745
sg104
S''
sg105
g106
sg47
g1
(g49
g3
NtRp746
(dp747
g52
Nsg53
g1
(g54
g55
I7511
tRp748
sg57
g1
(g54
g55
I7439
tRp749
sg59
I-1
sg60
Nsbsg111
S'gene'
p750
sg113
(dp751
S'db_xref'
p752
(lp753
S'GeneID:6775080'
p754
asS'gene'
p755
(lp756
S'trnS'
p757
assbag1
(g99
g3
NtRp758
(dp759
g102
(lp760
sg104
S''
sg105
g106
sg47
g1
(g49
g3
NtRp761
(dp762
g52
Nsg53
g1
(g54
g55
I7511
tRp763
sg57
g1
(g54
g55
I7439
tRp764
sg59
I-1
sg60
Nsbsg111
S'tRNA'
p765
sg113
(dp766
S'db_xref'
p767
(lp768
S'GeneID:6775080'
p769
asS'product'
p770
(lp771
S'tRNA-Ser'
p772
asS'gene'
p773
(lp774
S'trnS'
p775
assbag1
(g99
g3
NtRp776
(dp777
g102
(lp778
sg104
S''
sg105
g106
sg47
g1
(g49
g3
NtRp779
(dp780
g52
Nsg53
g1
(g54
g55
I7580
tRp781
sg57
g1
(g54
g55
I7512
tRp782
sg59
I1
sg60
Nsbsg111
S'gene'
p783
sg113
(dp784
S'db_xref'
p785
(lp786
S'GeneID:6775081'
p787
asS'gene'
p788
(lp789
S'trnD'
p790
assbag1
(g99
g3
NtRp791
(dp792
g102
(lp793
sg104
S''
sg105
g106
sg47
g1
(g49
g3
NtRp794
(dp795
g52
Nsg53
g1
(g54
g55
I7580
tRp796
sg57
g1
(g54
g55
I7512
tRp797
sg59
I1
sg60
Nsbsg111
S'tRNA'
p798
sg113
(dp799
S'db_xref'
p800
(lp801
S'GeneID:6775081'
p802
asS'product'
p803
(lp804
S'tRNA-Asp'
p805
asS'gene'
p806
(lp807
S'trnD'
p808
assbag1
(g99
g3
NtRp809
(dp810
g102
(lp811
sg104
S''
sg105
g106
sg47
g1
(g49
g3
NtRp812
(dp813
g52
Nsg53
g1
(g54
g55
I8264
tRp814
sg57
g1
(g54
g55
I7580
tRp815
sg59
I1
sg60
Nsbsg111
S'gene'
p816
sg113
(dp817
S'db_xref'
p818
(lp819
S'GeneID:6775079'
p820
asS'gene'
p821
(lp822
S'COX2'
p823
assbag1
(g99
g3
NtRp824
(dp825
g102
(lp826
sg104
S''
sg105
g106
sg47
g1
(g49
g3
NtRp827
(dp828
g52
Nsg53
g1
(g54
g55
I8264
tRp829
sg57
g1
(g54
g55
I7580
tRp830
sg59
I1
sg60
Nsbsg111
S'CDS'
p831
sg113
(dp832
S'product'
p833
(lp834
S'cytochrome c oxidase subunit II'
p835
asS'codon_start'
p836
(lp837
S'1'
asS'transl_table'
p838
(lp839
S'2'
asS'db_xref'
p840
(lp841
S'GI:196123582'
p842
aS'GeneID:6775079'
p843
asS'translation'
p844
(lp845
S'MAHAAQVGLQDATSPIMEELIIFHDHALMIIFLICFLVLYALFLTLTTKLTNTSISDAQEMETVWTILPAIILVLIALPSLRILYMTDEVNDPSFTIKSIGHQWYWTYEYTDYGGLIFNSYMLPPLFLEPGDLRLLDVDNRVVLPVEAPIRMMITSQDVLHSWAVPTLGLKTDAIPGRLNQTTFTATRPGVYYGQCSEICGANHSFMPIVLELIPLKIFEMGPVFTL'
p846
asS'gene'
p847
(lp848
S'COX2'
p849
asS'protein_id'
p850
(lp851
S'YP_002124305.1'
p852
assbag1
(g99
g3
NtRp853
(dp854
g102
(lp855
sg104
S''
sg105
g106
sg47
g1
(g49
g3
NtRp856
(dp857
g52
Nsg53
g1
(g54
g55
I8359
tRp858
sg57
g1
(g54
g55
I8289
tRp859
sg59
I1
sg60
Nsbsg111
S'gene'
p860
sg113
(dp861
S'db_xref'
p862
(lp863
S'GeneID:6775078'
p864
asS'gene'
p865
(lp866
S'trnK'
p867
assbag1
(g99
g3
NtRp868
(dp869
g102
(lp870
sg104
S''
sg105
g106
sg47
g1
(g49
g3
NtRp871
(dp872
g52
Nsg53
g1
(g54
g55
I8359
tRp873
sg57
g1
(g54
g55
I8289
tRp874
sg59
I1
sg60
Nsbsg111
S'tRNA'
p875
sg113
(dp876
S'db_xref'
p877
(lp878
S'GeneID:6775078'
p879
asS'product'
p880
(lp881
S'tRNA-Lys'
p882
asS'gene'
p883
(lp884
S'trnK'
p885
assbag1
(g99
g3
NtRp886
(dp887
g102
(lp888
sg104
S''
sg105
g106
sg47
g1
(g49
g3
NtRp889
(dp890
g52
Nsg53
g1
(g54
g55
I8567
tRp891
sg57
g1
(g54
g55
I8360
tRp892
sg59
I1
sg60
Nsbsg111
S'gene'
p893
sg113
(dp894
S'db_xref'
p895
(lp896
S'GeneID:6775077'
p897
asS'gene'
p898
(lp899
S'ATP8'
p900
assbag1
(g99
g3
NtRp901
(dp902
g102
(lp903
sg104
S''
sg105
g106
sg47
g1
(g49
g3
NtRp904
(dp905
g52
Nsg53
g1
(g54
g55
I8567
tRp906
sg57
g1
(g54
g55
I8360
tRp907
sg59
I1
sg60
Nsbsg111
S'CDS'
p908
sg113
(dp909
S'product'
p910
(lp911
S'ATP synthase F0 subunit 8'
p912
asS'codon_start'
p913
(lp914
S'1'
asS'transl_table'
p915
(lp916
S'2'
asS'db_xref'
p917
(lp918
S'GI:196123583'
p919
aS'GeneID:6775077'
p920
asS'translation'
p921
(lp922
S'MPQLNTTVWPTMIIPMLLTLFLITQLKMLNTNYHLPPSPKPMKMKNYNKPWEPKWTKICSLHSLPPQS'
p923
asS'gene'
p924
(lp925
S'ATP8'
p926
asS'protein_id'
p927
(lp928
S'YP_002124306.1'
p929
assbag1
(g99
g3
NtRp930
(dp931
g102
(lp932
sg104
S''
sg105
g106
sg47
g1
(g49
g3
NtRp933
(dp934
g52
Nsg53
g1
(g54
g55
I9202
tRp935
sg57
g1
(g54
g55
I8521
tRp936
sg59
I1
sg60
Nsbsg111
S'gene'
p937
sg113
(dp938
S'db_xref'
p939
(lp940
S'GeneID:6775074'
p941
asS'gene'
p942
(lp943
S'ATP6'
p944
assbag1
(g99
g3
NtRp945
(dp946
g102
(lp947
sg104
S''
sg105
g106
sg47
g1
(g49
g3
NtRp948
(dp949
g52
Nsg53
g1
(g54
g55
I9202
tRp950
sg57
g1
(g54
g55
I8521
tRp951
sg59
I1
sg60
Nsbsg111
S'CDS'
p952
sg113
(dp953
S'product'
p954
(lp955
S'ATP synthase F0 subunit 6'
p956
asS'codon_start'
p957
(lp958
S'1'
asS'transl_table'
p959
(lp960
S'2'
asS'db_xref'
p961
(lp962
S'GI:196123584'
p963
aS'GeneID:6775074'
p964
asS'translation'
p965
(lp966
S'MNENLFASFIAPTILGLPAAVLIILFPPLLIPTSKYLINNRLITTQQWLIKLTSKQMMAMHNTKGRTWSLMLVSLIIFITTTNLLGLLPHSFTPTTQLSMNLAMAIPLWAGAVIMGFRSKIKNALAHFLPQGTPTPLIPMLVIIETISLLIQPVALAVRLTANITAGHLLMHLIGNATLAMSTINLPSTLIIFTILILLTILEIAVALIQAYVFTLLVSLYLHDNT'
p967
asS'gene'
p968
(lp969
S'ATP6'
p970
asS'protein_id'
p971
(lp972
S'YP_002124307.1'
p973
assbag1
(g99
g3
NtRp974
(dp975
g102
(lp976
sg104
S''
sg105
g106
sg47
g1
(g49
g3
NtRp977
(dp978
g52
Nsg53
g1
(g54
g55
I9982
tRp979
sg57
g1
(g54
g55
I9201
tRp980
sg59
I1
sg60
Nsbsg111
S'gene'
p981
sg113
(dp982
S'db_xref'
p983
(lp984
S'GeneID:6775073'
p985
asS'gene'
p986
(lp987
S'COX3'
p988
assbag1
(g99
g3
NtRp989
(dp990
g102
(lp991
sg104
S''
sg105
g106
sg47
g1
(g49
g3
NtRp992
(dp993
g52
Nsg53
g1
(g54
g55
I9982
tRp994
sg57
g1
(g54
g55
I9201
tRp995
sg59
I1
sg60
Nsbsg111
S'CDS'
p996
sg113
(dp997
S'product'
p998
(lp999
S'cytochrome c oxidase subunit III'
p1000
asS'transl_except'
p1001
(lp1002
S'(pos:9982,aa:TERM)'
p1003
asS'codon_start'
p1004
(lp1005
S'1'
asS'transl_table'
p1006
(lp1007
S'2'
asS'note'
p1008
(lp1009
S"TAA stop codon is completed by the addition of 3' A residues to the mRNA"
p1010
asS'db_xref'
p1011
(lp1012
S'GI:196123585'
p1013
aS'GeneID:6775073'
p1014
asS'translation'
p1015
(lp1016
S'MTHQSHAYHMVKPSPWPLTGALSALLMTSGLAMWFHFHSTTLLMLGLLTNTLTMYQWWRDVTRESTYQGHHTPPVQKGLRYGMVLFITSEVFFFAGFFWAFYHSSLAPTPQLGGHWPPTGITPLNPLEVPLLNTSVLLASGVSITWAHHSLMENNRNQMIQALLITILLGLYFTLLQASEYFESPFTISDGIYGSTFFVATGFHGLHVIIGSTFLTICFIRQLMFHFTSKHHFGFEAAAWYWHFVDVVWLFLYVSIYWWG'
p1017
asS'gene'
p1018
(lp1019
S'COX3'
p1020
asS'protein_id'
p1021
(lp1022
S'YP_002124308.1'
p1023
assbag1
(g99
g3
NtRp1024
(dp1025
g102
(lp1026
sg104
S''
sg105
g106
sg47
g1
(g49
g3
NtRp1027
(dp1028
g52
Nsg53
g1
(g54
g55
I10053
tRp1029
sg57
g1
(g54
g55
I9985
tRp1030
sg59
I1
sg60
Nsbsg111
S'gene'
p1031
sg113
(dp1032
S'db_xref'
p1033
(lp1034
S'GeneID:6775075'
p1035
asS'gene'
p1036
(lp1037
S'trnG'
p1038
assbag1
(g99
g3
NtRp1039
(dp1040
g102
(lp1041
sg104
S''
sg105
g106
sg47
g1
(g49
g3
NtRp1042
(dp1043
g52
Nsg53
g1
(g54
g55
I10053
tRp1044
sg57
g1
(g54
g55
I9985
tRp1045
sg59
I1
sg60
Nsbsg111
S'tRNA'
p1046
sg113
(dp1047
S'db_xref'
p1048
(lp1049
S'GeneID:6775075'
p1050
asS'product'
p1051
(lp1052
S'tRNA-Gly'
p1053
asS'gene'
p1054
(lp1055
S'trnG'
p1056
assbag1
(g99
g3
NtRp1057
(dp1058
g102
(lp1059
sg104
S''
sg105
g106
sg47
g1
(g49
g3
NtRp1060
(dp1061
g52
Nsg53
g1
(g54
g55
I10399
tRp1062
sg57
g1
(g54
g55
I10053
tRp1063
sg59
I1
sg60
Nsbsg111
S'gene'
p1064
sg113
(dp1065
S'db_xref'
p1066
(lp1067
S'GeneID:6775076'
p1068
asS'gene'
p1069
(lp1070
S'ND3'
p1071
assbag1
(g99
g3
NtRp1072
(dp1073
g102
(lp1074
sg104
S''
sg105
g106
sg47
g1
(g49
g3
NtRp1075
(dp1076
g52
Nsg53
g1
(g54
g55
I10399
tRp1077
sg57
g1
(g54
g55
I10053
tRp1078
sg59
I1
sg60
Nsbsg111
S'CDS'
p1079
sg113
(dp1080
S'product'
p1081
(lp1082
S'NADH dehydrogenase subunit 3'
p1083
asS'transl_except'
p1084
(lp1085
S'(pos:10399,aa:TERM)'
p1086
asS'codon_start'
p1087
(lp1088
S'1'
asS'transl_table'
p1089
(lp1090
S'2'
asS'note'
p1091
(lp1092
S"TAA stop codon is completed by the addition of 3' A residues to the mRNA"
p1093
asS'db_xref'
p1094
(lp1095
S'GI:196123586'
p1096
aS'GeneID:6775076'
p1097
asS'translation'
p1098
(lp1099
S'MNFALILMINTLLALLLMIITFWLPQLNGYMEKSTPYECGFDPMSPARVPFSMKFFLVAITFLLFDLEIALLLPLPWALQTTNLPLMVTSSLLLIIILALSLAYEWLQKGLDWAE'
p1100
asS'gene'
p1101
(lp1102
S'ND3'
p1103
asS'protein_id'
p1104
(lp1105
S'YP_002124309.1'
p1106
assbag1
(g99
g3
NtRp1107
(dp1108
g102
(lp1109
sg104
S''
sg105
g106
sg47
g1
(g49
g3
NtRp1110
(dp1111
g52
Nsg53
g1
(g54
g55
I10464
tRp1112
sg57
g1
(g54
g55
I10399
tRp1113
sg59
I1
sg60
Nsbsg111
S'gene'
p1114
sg113
(dp1115
S'db_xref'
p1116
(lp1117
S'GeneID:6775070'
p1118
asS'gene'
p1119
(lp1120
S'trnR'
p1121
assbag1
(g99
g3
NtRp1122
(dp1123
g102
(lp1124
sg104
S''
sg105
g106
sg47
g1
(g49
g3
NtRp1125
(dp1126
g52
Nsg53
g1
(g54
g55
I10464
tRp1127
sg57
g1
(g54
g55
I10399
tRp1128
sg59
I1
sg60
Nsbsg111
S'tRNA'
p1129
sg113
(dp1130
S'db_xref'
p1131
(lp1132
S'GeneID:6775070'
p1133
asS'product'
p1134
(lp1135
S'tRNA-Arg'
p1136
asS'gene'
p1137
(lp1138
S'trnR'
p1139
assbag1
(g99
g3
NtRp1140
(dp1141
g102
(lp1142
sg104
S''
sg105
g106
sg47
g1
(g49
g3
NtRp1143
(dp1144
g52
Nsg53
g1
(g54
g55
I10761
tRp1145
sg57
g1
(g54
g55
I10464
tRp1146
sg59
I1
sg60
Nsbsg111
S'gene'
p1147
sg113
(dp1148
S'db_xref'
p1149
(lp1150
S'GeneID:6775071'
p1151
asS'gene'
p1152
(lp1153
S'ND4L'
p1154
assbag1
(g99
g3
NtRp1155
(dp1156
g102
(lp1157
sg104
S''
sg105
g106
sg47
g1
(g49
g3
NtRp1158
(dp1159
g52
Nsg53
g1
(g54
g55
I10761
tRp1160
sg57
g1
(g54
g55
I10464
tRp1161
sg59
I1
sg60
Nsbsg111
S'CDS'
p1162
sg113
(dp1163
S'product'
p1164
(lp1165
S'NADH dehydrogenase subunit 4L'
p1166
asS'codon_start'
p1167
(lp1168
S'1'
asS'transl_table'
p1169
(lp1170
S'2'
asS'db_xref'
p1171
(lp1172
S'GI:196123587'
p1173
aS'GeneID:6775071'
p1174
asS'translation'
p1175
(lp1176
S'MPLIYMNIMLAFTISLLGMLVYRSHLMSSLLCLEGMMLSLFIMATLMTLNTHSLLANIVPIAMLVFAACEAAVGLALLVSISNTYGLDYVHNLSLLQC'
p1177
asS'gene'
p1178
(lp1179
S'ND4L'
p1180
asS'protein_id'
p1181
(lp1182
S'YP_002124310.1'
p1183
assbag1
(g99
g3
NtRp1184
(dp1185
g102
(lp1186
sg104
S''
sg105
g106
sg47
g1
(g49
g3
NtRp1187
(dp1188
g52
Nsg53
g1
(g54
g55
I12132
tRp1189
sg57
g1
(g54
g55
I10754
tRp1190
sg59
I1
sg60
Nsbsg111
S'gene'
p1191
sg113
(dp1192
S'db_xref'
p1193
(lp1194
S'GeneID:6775072'
p1195
asS'gene'
p1196
(lp1197
S'ND4'
p1198
assbag1
(g99
g3
NtRp1199
(dp1200
g102
(lp1201
sg104
S''
sg105
g106
sg47
g1
(g49
g3
NtRp1202
(dp1203
g52
Nsg53
g1
(g54
g55
I12132
tRp1204
sg57
g1
(g54
g55
I10754
tRp1205
sg59
I1
sg60
Nsbsg111
S'CDS'
p1206
sg113
(dp1207
S'product'
p1208
(lp1209
S'NADH dehydrogenase subunit 4'
p1210
asS'transl_except'
p1211
(lp1212
S'(pos:12132,aa:TERM)'
p1213
asS'codon_start'
p1214
(lp1215
S'1'
asS'transl_table'
p1216
(lp1217
S'2'
asS'note'
p1218
(lp1219
S"TAA stop codon is completed by the addition of 3' A residues to the mRNA"
p1220
asS'db_xref'
p1221
(lp1222
S'GI:196123588'
p1223
aS'GeneID:6775072'
p1224
asS'translation'
p1225
(lp1226
S'MLKLIVPTIMLLPLTWLSKKHMIWINTTTHSLIISIIPLLFFNQINNNLFSCSPTFSSDPLTTPLLMLTTWLLPLTIMASQRHLSSEPLSRKKLYLSMLISLQISLIMTFTATELIMFYIFFETTLIPTLAIITRWGNQPERLNAGTYFLFYTLVGSLPLLIALIYTHNTLGSLNILLLTLTAQELSNSWANNLMWLAYTMAFMVKMPLYGLHLWLPKAHVEAPIAGSMVLAAVLLKLGGYGMMRLTLILNPLTKHMAYPFLVLSLWGMIMTSSICLRQTDLKSLIAYSSISHMALVVTAILIQTPWSFTGAVILMIAHGLTSSLLFCLANSNYERTHSRIMILSQGLQTLLPLMAFWWLLASLANLALPPTINLLGELSVLVTTFSWSNITLLLTGLNMLVTALYSLYMFTTTQWGSLTHHINNMKPSFTRENTLMFMHLSPILLLSLNPDIITGFSS'
p1227
asS'gene'
p1228
(lp1229
S'ND4'
p1230
asS'protein_id'
p1231
(lp1232
S'YP_002124311.1'
p1233
assbag1
(g99
g3
NtRp1234
(dp1235
g102
(lp1236
sg104
S''
sg105
g106
sg47
g1
(g49
g3
NtRp1237
(dp1238
g52
Nsg53
g1
(g54
g55
I12201
tRp1239
sg57
g1
(g54
g55
I12132
tRp1240
sg59
I1
sg60
Nsbsg111
S'gene'
p1241
sg113
(dp1242
S'db_xref'
p1243
(lp1244
S'GeneID:6775069'
p1245
asS'gene'
p1246
(lp1247
S'trnH'
p1248
assbag1
(g99
g3
NtRp1249
(dp1250
g102
(lp1251
sg104
S''
sg105
g106
sg47
g1
(g49
g3
NtRp1252
(dp1253
g52
Nsg53
g1
(g54
g55
I12201
tRp1254
sg57
g1
(g54
g55
I12132
tRp1255
sg59
I1
sg60
Nsbsg111
S'tRNA'
p1256
sg113
(dp1257
S'db_xref'
p1258
(lp1259
S'GeneID:6775069'
p1260
asS'product'
p1261
(lp1262
S'tRNA-His'
p1263
asS'gene'
p1264
(lp1265
S'trnH'
p1266
assbag1
(g99
g3
NtRp1267
(dp1268
g102
(lp1269
sg104
S''
sg105
g106
sg47
g1
(g49
g3
NtRp1270
(dp1271
g52
Nsg53
g1
(g54
g55
I12260
tRp1272
sg57
g1
(g54
g55
I12201
tRp1273
sg59
I1
sg60
Nsbsg111
S'gene'
p1274
sg113
(dp1275
S'db_xref'
p1276
(lp1277
S'GeneID:6775068'
p1278
asS'gene'
p1279
(lp1280
S'trnS'
p1281
assbag1
(g99
g3
NtRp1282
(dp1283
g102
(lp1284
sg104
S''
sg105
g106
sg47
g1
(g49
g3
NtRp1285
(dp1286
g52
Nsg53
g1
(g54
g55
I12260
tRp1287
sg57
g1
(g54
g55
I12201
tRp1288
sg59
I1
sg60
Nsbsg111
S'tRNA'
p1289
sg113
(dp1290
S'db_xref'
p1291
(lp1292
S'GeneID:6775068'
p1293
asS'product'
p1294
(lp1295
S'tRNA-Ser'
p1296
asS'gene'
p1297
(lp1298
S'trnS'
p1299
assbag1
(g99
g3
NtRp1300
(dp1301
g102
(lp1302
sg104
S''
sg105
g106
sg47
g1
(g49
g3
NtRp1303
(dp1304
g52
Nsg53
g1
(g54
g55
I12331
tRp1305
sg57
g1
(g54
g55
I12260
tRp1306
sg59
I1
sg60
Nsbsg111
S'gene'
p1307
sg113
(dp1308
S'db_xref'
p1309
(lp1310
S'GeneID:6775067'
p1311
asS'gene'
p1312
(lp1313
S'trnL'
p1314
assbag1
(g99
g3
NtRp1315
(dp1316
g102
(lp1317
sg104
S''
sg105
g106
sg47
g1
(g49
g3
NtRp1318
(dp1319
g52
Nsg53
g1
(g54
g55
I12331
tRp1320
sg57
g1
(g54
g55
I12260
tRp1321
sg59
I1
sg60
Nsbsg111
S'tRNA'
p1322
sg113
(dp1323
S'db_xref'
p1324
(lp1325
S'GeneID:6775067'
p1326
asS'product'
p1327
(lp1328
S'tRNA-Leu'
p1329
asS'gene'
p1330
(lp1331
S'trnL'
p1332
assbag1
(g99
g3
NtRp1333
(dp1334
g102
(lp1335
sg104
S''
sg105
g106
sg47
g1
(g49
g3
NtRp1336
(dp1337
g52
Nsg53
g1
(g54
g55
I14143
tRp1338
sg57
g1
(g54
g55
I12331
tRp1339
sg59
I1
sg60
Nsbsg111
S'gene'
p1340
sg113
(dp1341
S'db_xref'
p1342
(lp1343
S'GeneID:6775066'
p1344
asS'gene'
p1345
(lp1346
S'ND5'
p1347
assbag1
(g99
g3
NtRp1348
(dp1349
g102
(lp1350
sg104
S''
sg105
g106
sg47
g1
(g49
g3
NtRp1351
(dp1352
g52
Nsg53
g1
(g54
g55
I14143
tRp1353
sg57
g1
(g54
g55
I12331
tRp1354
sg59
I1
sg60
Nsbsg111
S'CDS'
p1355
sg113
(dp1356
S'product'
p1357
(lp1358
S'NADH dehydrogenase subunit 5'
p1359
asS'codon_start'
p1360
(lp1361
S'1'
asS'transl_table'
p1362
(lp1363
S'2'
asS'db_xref'
p1364
(lp1365
S'GI:196123589'
p1366
aS'GeneID:6775066'
p1367
asS'translation'
p1368
(lp1369
S'MTMHTTMTTLTLTSLIPPILTTLINPNKKNSYPHYVKSIVASTFIISLFPTTMFMCLDQEVIISNWHWATTQTTQLSLSFKLDYFSMMFIPVALFVTWSIMEFSLWYMNSDPNINQFFKYLLIFLITMLILVTANNLFQLFIGWEGVGIMSFLLISWWYARADANTAAIQAILYNRIGDIGFILALAWFILHSNSWDPQQMALLNANPSLTPLLGLLLAAAGKSAQLGLHPWLPSAMEGPTPVSALLHSSTMVVAGVFLLIRFHPLAENSPLIQTLTLCLGAITTLFAAVCALTQNDIKKIVAFSTSSQLGLMVVTIGINQPHLAFLHICTHAFFKAMLFMCSGSIIHNLNNEQDIRKMGGLLKTMPLTSTSLTIGSLALAGMPFLTGFYSKDHIIETANMSYTNAWALSITLIATSLTSAYSTRMILLTLTGQPRFPTLTNINENNPTLLNPIKRLAAGSLFAGFLITNNISPASPFQTTIPLYLKLAALAVTFLGLLTALDLNYLTNKLKMKTPLYTFYFSNMLGFYPSITHRTIPYLGLLTSQNLPLLLLDLTWLEKLLPKTISQHQISASITTSTQKGMIKLYFLSFFFPLILTLLLIM'
p1370
asS'gene'
p1371
(lp1372
S'ND5'
p1373
asS'protein_id'
p1374
(lp1375
S'YP_002124312.1'
p1376
assbag1
(g99
g3
NtRp1377
(dp1378
g102
(lp1379
sg104
S''
sg105
g106
sg47
g1
(g49
g3
NtRp1380
(dp1381
g52
Nsg53
g1
(g54
g55
I14201
tRp1382
sg57
g1
(g54
g55
I14098
tRp1383
sg59
I1
sg60
Nsbsg111
S'STS'
p1384
sg113
(dp1385
S'db_xref'
p1386
(lp1387
S'UniSTS:273324'
p1388
asS'standard_name'
p1389
(lp1390
S'PMC55343P12'
p1391
assbag1
(g99
g3
NtRp1392
(dp1393
g102
(lp1394
sg104
S''
sg105
g106
sg47
g1
(g49
g3
NtRp1395
(dp1396
g52
Nsg53
g1
(g54
g55
I14668
tRp1397
sg57
g1
(g54
g55
I14143
tRp1398
sg59
I-1
sg60
Nsbsg111
S'gene'
p1399
sg113
(dp1400
S'db_xref'
p1401
(lp1402
S'GeneID:6775063'
p1403
asS'gene'
p1404
(lp1405
S'ND6'
p1406
assbag1
(g99
g3
NtRp1407
(dp1408
g102
(lp1409
sg104
S''
sg105
g106
sg47
g1
(g49
g3
NtRp1410
(dp1411
g52
Nsg53
g1
(g54
g55
I14668
tRp1412
sg57
g1
(g54
g55
I14143
tRp1413
sg59
I-1
sg60
Nsbsg111
S'CDS'
p1414
sg113
(dp1415
S'product'
p1416
(lp1417
S'NADH dehydrogenase subunit 6'
p1418
asS'codon_start'
p1419
(lp1420
S'1'
asS'transl_table'
p1421
(lp1422
S'2'
asS'db_xref'
p1423
(lp1424
S'GI:196123590'
p1425
aS'GeneID:6775063'
p1426
asS'translation'
p1427
(lp1428
S'MMYALFLLSVGLVMGFVGFSSKPSPIYGGLVLIVSGVVGCVIILNFGGGYMGLMVFLIYLGGMMVVFGYTTAMAIEEYPEAWGSGVEVLVSVLVGLAMEVGLVLWVKEYDGVVVVVNFNSVGSWMIYEGEGSGLIREDPIGAGALYDYGRWLVVVTGWTLFVGVYVVIEIARGN'
p1429
asS'gene'
p1430
(lp1431
S'ND6'
p1432
asS'protein_id'
p1433
(lp1434
S'YP_002124313.1'
p1435
assbag1
(g99
g3
NtRp1436
(dp1437
g102
(lp1438
sg104
S''
sg105
g106
sg47
g1
(g49
g3
NtRp1439
(dp1440
g52
Nsg53
g1
(g54
g55
I14737
tRp1441
sg57
g1
(g54
g55
I14668
tRp1442
sg59
I-1
sg60
Nsbsg111
S'gene'
p1443
sg113
(dp1444
S'db_xref'
p1445
(lp1446
S'GeneID:6775064'
p1447
asS'gene'
p1448
(lp1449
S'trnE'
p1450
assbag1
(g99
g3
NtRp1451
(dp1452
g102
(lp1453
sg104
S''
sg105
g106
sg47
g1
(g49
g3
NtRp1454
(dp1455
g52
Nsg53
g1
(g54
g55
I14737
tRp1456
sg57
g1
(g54
g55
I14668
tRp1457
sg59
I-1
sg60
Nsbsg111
S'tRNA'
p1458
sg113
(dp1459
S'db_xref'
p1460
(lp1461
S'GeneID:6775064'
p1462
asS'product'
p1463
(lp1464
S'tRNA-Glu'
p1465
asS'gene'
p1466
(lp1467
S'trnE'
p1468
assbag1
(g99
g3
NtRp1469
(dp1470
g102
(lp1471
sg104
S''
sg105
g106
sg47
g1
(g49
g3
NtRp1472
(dp1473
g52
Nsg53
g1
(g54
g55
I15876
tRp1474
sg57
g1
(g54
g55
I14741
tRp1475
sg59
I1
sg60
Nsbsg111
S'gene'
p1476
sg113
(dp1477
S'db_xref'
p1478
(lp1479
S'GeneID:6775065'
p1480
asS'gene'
p1481
(lp1482
S'CYTB'
p1483
assbag1
(g99
g3
NtRp1484
(dp1485
g102
(lp1486
sg104
S''
sg105
g106
sg47
g1
(g49
g3
NtRp1487
(dp1488
g52
Nsg53
g1
(g54
g55
I15876
tRp1489
sg57
g1
(g54
g55
I14741
tRp1490
sg59
I1
sg60
Nsbsg111
S'CDS'
p1491
sg113
(dp1492
S'product'
p1493
(lp1494
S'cytochrome b'
p1495
asS'transl_except'
p1496
(lp1497
S'(pos:15876,aa:TERM)'
p1498
asS'codon_start'
p1499
(lp1500
S'1'
asS'transl_table'
p1501
(lp1502
S'2'
asS'note'
p1503
(lp1504
S"TAA stop codon is completed by the addition of 3' A residues to the mRNA"
p1505
asS'db_xref'
p1506
(lp1507
S'GI:196123591'
p1508
aS'GeneID:6775065'
p1509
asS'translation'
p1510
(lp1511
S'MTPMRKINPLMKLINHSFIDLPTPSNISAWWNFGSLLGACLILQITTGLFLAMHYSPDASTAFSSIAHITRDVNYGWIIRYLHANGASMFFICLFLHIGRGLYYGSFLYSKTWNIGIILLLATMATAFMGYVLPWGQMSFWGATVITNLLSAIPYIGTDLVQWIWGGYSVDSPTLTRFFTFHFILPFIIAALAALHLLFLHETGSNNPLGITSHSDKITFHPYYTIKDALGLFLFLLSLMTLTLLSPDLLGDPDNYTLANPLNTPPHIKPEWYFLFAYTILRSVPNKLGGVLALLLSILILAMIPILHVSKQQSMMFRPLSQSLYWLLAADLLILTWIGGQPVSYPFIIIGQVASVLYFTTILILMPTISLIENKMLK'
p1512
asS'gene'
p1513
(lp1514
S'CYTB'
p1515
asS'protein_id'
p1516
(lp1517
S'YP_002124314.1'
p1518
assbag1
(g99
g3
NtRp1519
(dp1520
g102
(lp1521
sg104
S''
sg105
g106
sg47
g1
(g49
g3
NtRp1522
(dp1523
g52
Nsg53
g1
(g54
g55
I15948
tRp1524
sg57
g1
(g54
g55
I15882
tRp1525
sg59
I1
sg60
Nsbsg111
S'gene'
p1526
sg113
(dp1527
S'db_xref'
p1528
(lp1529
S'GeneID:6775062'
p1530
asS'gene'
p1531
(lp1532
S'trnT'
p1533
assbag1
(g99
g3
NtRp1534
(dp1535
g102
(lp1536
sg104
S''
sg105
g106
sg47
g1
(g49
g3
NtRp1537
(dp1538
g52
Nsg53
g1
(g54
g55
I15948
tRp1539
sg57
g1
(g54
g55
I15882
tRp1540
sg59
I1
sg60
Nsbsg111
S'tRNA'
p1541
sg113
(dp1542
S'db_xref'
p1543
(lp1544
S'GeneID:6775062'
p1545
asS'product'
p1546
(lp1547
S'tRNA-Thr'
p1548
asS'gene'
p1549
(lp1550
S'trnT'
p1551
assbag1
(g99
g3
NtRp1552
(dp1553
g102
(lp1554
sg104
S''
sg105
g106
sg47
g1
(g49
g3
NtRp1555
(dp1556
g52
Nsg53
g1
(g54
g55
I16018
tRp1557
sg57
g1
(g54
g55
I15949
tRp1558
sg59
I-1
sg60
Nsbsg111
S'gene'
p1559
sg113
(dp1560
S'db_xref'
p1561
(lp1562
S'GeneID:6775089'
p1563
asS'gene'
p1564
(lp1565
S'trnP'
p1566
assbag1
(g99
g3
NtRp1567
(dp1568
g102
(lp1569
sg104
S''
sg105
g106
sg47
g1
(g49
g3
NtRp1570
(dp1571
g52
Nsg53
g1
(g54
g55
I16018
tRp1572
sg57
g1
(g54
g55
I15949
tRp1573
sg59
I-1
sg60
Nsbsg111
S'tRNA'
p1574
sg113
(dp1575
S'db_xref'
p1576
(lp1577
S'GeneID:6775089'
p1578
asS'product'
p1579
(lp1580
S'tRNA-Pro'
p1581
asS'gene'
p1582
(lp1583
S'trnP'
p1584
assbasS'_seq'
p1585
g1
(cBio.Seq
Seq
p1586
g3
NtRp1587
(dp1588
S'alphabet'
p1589
g1
(cBio.Alphabet.IUPAC
IUPACAmbiguousDNA
p1590
g3
NtRp1591
sS'_data'
p1592
S'GATCACAGGTCTATCACCCTATTAACCACTCACGGGAGCTCTCCATGCATTTGGTATTTTCGTCTGGGGGGTGTGCACGCGATAGCATTGCGAGACGCTGGAGCCGGAGCACCCTATGTCGCAGTATCTGTCTTTGATTCCTGCCCCATTCCATTATTTATCGCACCTACGTTCAATATTACAGGCGAGCATACTTACTGAAGTGTGTTAATTAATTAATGCTTGTAGGACATAATAATAACGACTAAATGTCTGCACAGCTGCTTTCCACACAGACATCATAACAAAAAATTTCCACCAAACCCCCCCTCCCCCGCTTCTGGCCACAGCACTTAAACACATCTCTGCCAAACCCCAAAAACAAAGAACCCTAACACCAGCCTAACCAGATTTCAAATTTTATCTTTTGGCGGTATACACTTTTAACAGTCACCCCCTAACTAACACATTATTTTCCCCTCCCACTCCCATACTACTAATCTCATCAATACAACCCCCGCCCATCCTACCCAGCACACACCGCTGCTAACCCCATACCCCGAGCCAACCAAACCCCAAAGACACCCCCCACAGTTTATGTAGCTTACCTCCTCAAAGCAATACACTGAAAATGTTTAGACGGGCTCACATCACCCCATAAACAAATAGGTTTGGTCCTAGCCTTTCTATTAGCTCTTAGTAAGATTACACATGCAAGCATCCCCATTCCAGTGAGTTCACCCTCTAAATCACCACGATCAAAAGGGACAAGCATCAAGCACGCAACAATGCAGCTCAAAACGCTTAGCCTAGCCACACCCCCACGGGAAACAGCAGTGATAAGCCTTTAGCAATAAACGAAAGTTTAACTAAGCTATACTAACCCCAGGGTTGGTCAATTTCGTGCCAGCCACCGCGGTCACACGATTAACCCAAGTCAATAGAAGCCGGCGTAAAGAGTGTTTTAGATCACCCCCTCCCCAATAAAGCTAAAACTCACCTGAGTTGTAAAAAACTCCAGTTGACACAAAATAAACTACGAAAGTGGCTTTAACATATCTGAACACACAATAGCTAAGACCCAAACTGGGATTAGATACCCCACTATGCTTAGCCCTAAACCTCAACAGTTAAATCAACAAAACTGCTCGCCAGAACACTACGAGCCACAGCTTAAAACTCAAAGGACCTGGCGGTGCTTCATATCCCTCTAGAGGAGCCTGTTCTGTAATCGATAAACCCCGATCAACCTCACCACCTCTTGCTCAGCCTATATACCGCCATCTTCAGCAAACCCTGATGAAGGCTACAAAGTAAGCGCAAGTACCCACGTAAAGACGTTAGGTCAAGGTGTAGCCCATGAGGTGGCAAGAAATGGGCTACATTTTCTACCCCAGAAAACTACGATAGCCCTTATGAAACCTAAGGGTCGAAGGTGGATTTAGCAGTAAACTGAGAGTAGAGTGCTTAGTTGAACAGGGCCCTGAAGCGCGTACACACCGCCCGTCACCCTCCTCAAGTATACTTCAAAGGACATTTAACTAAAACCCCTACGCATTTATATAGAGGAGACAAGTCGTAACATGGTAAGTGTACTGGAAAGTGCACTTGGACGAACCAGAGTGTAGCTTAACACAAAGCACCCAACTTACACTTAGGAGATTTCAACTTAACTTGACCGCTCTGAGCTAAACCTAGCCCCAAACCCACTCCACCTTACTACCAAACAACCTTAGCCAAACCATTTACCCAAATAAAGTATAGGCGATAGAAATTGAAACCTGGCGCAATAGATGTAGTACCGCAAGGGAAAGATGAAAAATTATAACCAAGCATAATATAGCAAGGACTAACCCCTATACCTTCTGCATAATGAATTAACTAGAAATAACTTTGCAAGGAGAGCCAAAGCTAAGACCCCCGAAACCAGACGAGCTACCTAAGAACAGCTAAAAGAGCACACCCGTCTATGTAGCAAAATAGTGGGAAGATTTATAGGTAGAGGCGACAAACCTACCGAGCCTGGTGATAGCTGGTTGTCCAAGATAGAATCTTAGTTCAACTTTAAATTTACCCACAGAACCCTCTAAATCCCCTTGTAAATTTAACTGTTAGTCCAAAGAGGAACAGCTCTTTGGACACTAGGAAAAAACCTTGTAGAGAGAGTAAAAAATTTAACACCCATAGTAGGCCTAAAAGCAGCCACCAATTAAGAAAGCGTTCAAGCTCAACACCCACTACCTAAAAAATCCCAAACATATAACTGAACTCCTCACACCCAATTGGACCAATCTATCACCCTATAGAAGAACTAATGTTAGTATAAGTAACATGAAAACATTCTCCTCCGCATAAGCCTGCGTCAGATTAAAACACTGAACTGACAATTAACAGCCCAATATCTACAATCAACCAACAAGTCATTATTACCCTCACTGTCAACCCAACACAGGCATGCTCATAAGGAAAGGTTAAAAAAAGTAAAAGGAACTCGGCAAATCTTACCCCGCCTGTTTACCAAAAACATCACCTCTAGCATTACCAGTATTAGAGGCACCGCCTGCCCAGTGACACATGTTTAACGGCCGCGGTACCCTAACCGTGCAAAGGTAGCATAATCACTTGTTCCTTAAATAGGGACCTGTATGAATGGCTCCACGAGGGTTCAGCTGTCTCTTACTTTTAACCAGTGAAATTGACCTGCCCGTGAAGAGGCGGGCATAACACAGCAAGACGAGAAGACCCTATGGAGCTTTAATTTATTAATGCAAACAGTACCTAACAAACCCACAGGTCCTAAACTACCAAACCTGCATTAAAAATTTCGGTTGGGGCGACCTCGGAGCACAACCCAACCTCCGAGCAGTACATGCTAAGACCTCACCAGTCAAAGCGAACTACCATACTCAATTGATCCAATAACTTGACCAACGGAACAAGTTACCCTAGGGATAACAGCGCAATCCTATTCTAGAGTCCATATCAACAATAGGGTTTACGACCTCGATGTTGGATCAGGACATCCCAATGGTGCAGCCGCTATTAAAGGTTCGTTTGTTCAACGATTAAAGTCCTACGTGATCTGAGTTCAGACCGGAGTAATCCAGGTCGGTTTCTATCTACTTCAAATTCCTCCCTGTACGAAAGGACAAGAGAAATAAGGCCTACTTCACAAAGCGCCTTCCCCCGTAAATGATATCATCTCAACTTAGTATTATACCCACACCCACCCAAGAACAGGGTTTGTTAAGATGGCAGAGCCCGGTAATCGCATAAAACTTAAAACTTTACAGTCAGAGGTTCAATTCCTCTTCTTAACAACACACCCATGGCCAACCTCCTACTCCTCGTTGTACCCATTCTAATCGCAATGGCATTCCTAATGCTTACCGAACGAAAAATTCTAGGCTATATGCAACTACGCAAAGGTCCCAACGTTGTAGGCCCCTACGGGCTACTACAACCCTTCGCTGACGCCATAAAACTCTTCACCAAAGAACCCCTAAAACCCGCCACATCCACCATCACCCTCTACATCACCGCCCCGACCTTAGCTCTCACCATCGCTCTTCTACTATGAACCCCCCTCCCCATACCCAACCCCCTGGTTAACCTCAACCTAGGCCTCCTATTTATTCTAGCCACCTCTAGCCTAGCCGTTTACTCAATCCTCTGATCAGGGTGAGCATCAAACTCAAACTACGCCCTGATCGGCGCACTGCGAGCAGTAGCCCAAACAATCTCATATGAAGTCACCCTAGCCATCATTCTACTATCAACATTACTAATAAGTGGCTCCTTTAACCTCTCCACCCTTATCACAGCACAAGAACACCTCTGATTACTCCTGCCATCATGACCCTTGGCCATAATATGATTTATCTCCACACTAGCAGAGACCAACCGAACCCCCTTCGACCTTGCTGAAGGGGAATCCGAACTAGTCTCAGGCTTTAACATCGAATACGCCGCAGGCCCCTTCGCCCTATTCTTCATAGCCGAATACACAAACATTATTATAATAAACACCCTCACCACTACAATCTTCCTAGGAACAACATATAACGCACTCTCCCCTGAACTCTACACAACATATTTTGTCACCAAGACCCTACTTCTGACCTCCCTGTTCTTATGAATTCGAACAGCATACCCCCGATTCCGCTACGACCAACTCATACACCTCCTATGAAAAAACTTCCTACCACTCACCCTAGCACTACTTATATGATATGTCTCCATACCCATTACAATCTCCAGCATTCCCCCTCAAACCTAAGAAATATGTCTGATAAAAGAGTTACTTTGATAGAGTAAATAATAGGAGTTTAAACCCCCTTATTTCTAGGACTATGAGAATCGAACCCATCCCTGAGAATCCAAAATTCTCCGTGCCACCTATCACACCCCATCCTAAAGTAAGGTCAGCTAAATAAGCTATCGGGCCCATACCCCGAAAATGTTGGTTATACCCTTCCCGTACTAATTAATCCCCTGGCCCAACCCGTCATCTACTCTACCATCTTTGCAGGCACACTCATCACAGCACTAAGCTCGCACTGATTTTTTACCTGAGTGGGCCTAGAAATAAACATGCTAGCTTTTATTCCAGTTCTAACCAAAAAAATAAACCCTCGTTCCACAGAAGCTGCCATCAAGTATTTCCTCACGCAAGCAACCGCATCCATAATCCTTCTAATAGCTATCCTCTTCAACAATATACTCTCCGGACAATGAACCATAACCAATACTACCAATCAATACTCATCATTAATAATCATAATGGCTATAGCAATAAAACTAGGAATAGCCCCCTTTCACTTCTGAGTCCCAGAGGTTACCCAAGGCACCCCTCTGACATCCGGCCTGCTCCTTCTCACATGACAAAAACTAGCCCCCATCTCAATCATATACCAAATTTCTCCCTCACTAAACGTAAGCCTCCTCCTCACTCTTTCAATCTTATCCATCATAGCAGGCAGTTGAGGTGGATTAAACCAAACCCAGCTACGCAAAATCTTAGCATACTCCTCAATTACCCACATAGGATGAATAATAGCAGTTCTACCGTACAACCCTAACATAACCATTCTTAATTTAACTATTTATATTATCCTAACTACTACCGCATTCCTACTACTCAACTTAAACTCCAGCACCACGACCCTACTACTATCTCGCACCTGAAACAAGCTAACATGACTAACACCCTTAATTCCATCCACCCTCCTCTCCCTAGGAGGCCTGCCCCCGCTAACCGGCTTTTTGCCCAAATGGGCCATTATCGAAGAATTCACAAAAAACAATAGCCTCATCATCCCCACCATCATAGCCACCATCACCCTCCTTAACCTCTACTTCTACCTACGCCTAATCTACTCCACCTCAATCACACTACTCCCTATATCTAACAACGTAAAAATAAAATGACAGTTTGAACATACAAAACCCACCCCATTCCTCCCCACACTCATCACCCTTACCACACTACTCCTACCTATCTCCCCTTTTATACTAATAGTCTTATAGAAATTTAGGTTAAATACAGACCAAGAGCCTTCAAAGCCCTCAGTAAGTTGCAATACTTAATTTCTGCAACAGCTAAGGACTGCAAAACCCCACTCTGCATCAACTGAACGCAAATCAGCCACTTTAATTAAGCTAAGCCCTTACTAGACCAATGGGACTCAAACCCACAAACACTTAGTTAACAGCTAAGCACCCTAATCAACTGGCTTCAATCTACTTCTCCCGCCGCCGGGAAAAAAGGCGGGAGAAGCCCCGGCAGGTTTGAAGCTGCTTCTTCGAATTTGCAATTCAATATGAAAATCACCTCAGAGCTGGTAAAAAGAGGCTTAACCCCTGTCTTTAGATTTACAGTCCAATGCTTCACTCAGCCATTTTACCTCACCCCCACTGATGTTCGCCGACCGTTGACTATTCTCTACAAACCACAAAGACATTGGAACACTATACCTACTATTCGGCGCATGAGCTGGAGTCCTAGGCACAGCTCTAAGCCTCCTTATTCGAGCCGAACTGGGCCAGCCAGGCAACCTTCTAGGTAACGACCACATCTACAACGTTATCGTCACAGCCCATGCATTTGTAATAATCTTCTTCATAGTAATACCCATCATAATCGGGGGCTTTGGCAACTGACTAGTTCCCTTAATAATCGGTGCCCCCGATATGGCGTTTCCCCGCATAAACAATATAAGCTTCTGACTCTTACCTCCCTCTCTCCTACTCCTGCTCGCATCTGCTATAGTGGAAGCCGGCGCAGGAACAGGTTGAACAGTCTACCCTCCCTTAGCAGGGAACTACTCCCACCCTGGAGCCTCCGTAGACCTAACCATCTTCTCCTTACACCTAGCAGGTGTCTCCTCTATCTTAGGGGCCATCAATTTCATCACAACAATTATTAATATAAAACCCCCTGCCATAACCCAATACCAAACGCCCCTTTTCGTCTGATCCGTCCTAATCACAGCAGTCCTACTTCTCCTATCTCTCCCAGTCCTAGCTGCTGGCATCACTATACTACTAACAGACCGCAACCTCAACACCACCTTCTTCGACCCCGCCGGAGGAGGAGACCCCATTCTATACCAACACCTATTCTGATTTTTCGGCCACCCTGAAGTTTATATTCTCATCCTACCAGGCTTCGGAATAATCTCCCATATTGTAACTTACTACTCCGGAAAAAAAGAACCATTTGGATACATAGGTATGGTCTGAGCTATGATATCAATTGGCTTCCTAGGGTTTATCGTGTGAGCACACCATATATTTACAGTAGGAATAGACGTAGACACACGAGCATATTTCACCTCCGCTACCATAATCATCGCTATCCCCACCGGCGTCAAAGTATTTAGCTGACTCGCCACACTCCACGGAAGCAATATGAAATGATCTGCTGCAGTGCTCTGAGCCCTAGGATTCATCTTTCTTTTCACCGTAGGTGGCCTGACTGGCATTGTATTAGCAAACTCATCACTAGACATCGTACTACACGACACGTACTACGTTGTAGCTCACTTCCACTATGTCCTATCAATAGGAGCTGTATTTGCCATCATAGGAGGCTTCATTCACTGATTTCCCCTATTCTCCGGCTACACCCTAGACCAAACTTACGCCAAAATCCATTTCACTATCATATTCATCGGCGTAAATCTAACTTTCTTCCCACAACACTTTCTCGGCCTATCCGGAATGCCCCGACGTTACTCGGACTACCCCGATGCATACACCACATGAAATATCCTATCATCTGTAGGCTCATTCATTTCTCTAACAGCAGTAATATTAATAATTTTCATGATTTGAGAAGCCTTCGCTTCGAAGCGAAAAGTCCTAATAGTAGAAGAACCCTCCATAAACCTGGAGTGACTATATGGATGCCCCCCACCCTACCACACATTCGAAGAGCCCGTATACATAAAATCTAGACAAAAAAGGAAGGAATCGAACCCCCCAAAGCTGGTTTCAAGCCAACCCCATGGCCTCCATGACTTTTTCAAAAAGATATTAGAAAAACCATTTCATAACTTTGTCAAAGTTAAATTATAGGCTAAATCCTATATATCTTAATGGCACATGCAGCGCAAGTAGGTCTACAAGACGCTACTTCCCCTATCATAGAAGAGCTTATCATCTTTCATGATCACGCCCTCATAATCATTTTCCTTATCTGCTTCCTAGTCCTGTATGCCCTTTTCCTAACACTCACAACAAAACTAACTAATACTAGCATCTCAGACGCTCAGGAAATAGAAACCGTCTGAACTATCCTGCCCGCCATCATCCTAGTCCTCATCGCCCTCCCATCCCTACGCATCCTTTACATAACAGACGAGGTCAACGACCCCTCCTTTACCATCAAATCAATTGGCCATCAATGGTACTGAACCTACGAGTACACCGACTACGGCGGACTAATCTTCAACTCCTACATACTTCCCCCATTATTCCTAGAACCAGGCGACCTGCGACTCCTTGACGTTGACAATCGAGTAGTACTCCCGGTTGAAGCCCCCATTCGTATAATAATTACATCACAAGACGTCTTACACTCATGAGCTGTCCCCACATTAGGCTTAAAAACAGATGCAATTCCCGGACGTCTAAACCAAACCACTTTCACCGCTACACGACCGGGGGTATACTACGGTCAATGCTCTGAAATCTGTGGAGCAAACCACAGTTTCATGCCCATCGTCCTAGAATTAATTCCCCTAAAAATCTTTGAAATAGGGCCCGTATTTACCCTATAGCACCCCCTCTACCCCCTCTAGAGCCCACTGTAAAGCTAACTTAGCATTAACCTTTTAAGTTAAAGATTAAGAGAACCAGCACCTCTTTACAGTGAGATGCCCCAACTAAATACTACTGTATGGCCCACCATAATTATCCCCATACTCCTTACACTATTCCTCATCACCCAACTAAAAATATTAAATACAAATTACCACTTACCTCCCTCACCAAAGCCCATAAAAATAAAAAACTATAACAAACCCTGAGAACCAAAATGAACGAAAATCTGTTCGCTTCATTCATTGCCCCCACAATCCTAGGCCTACCCGCCGCAGTACTGATCATTCTATTTCCCCCTCTATTGATCCCCACCTCCAAATATCTCATCAACAACCGACTAATTACCACCCAACAATGACTAATCAAACTAACCTCAAAACAAATGATAGCCATACACAACACTAAGGGACGAACCTGATCTCTTATACTAGTATCCTTAATCATTTTTATTACCACAACTAACCTCCTCGGACTCCTGCCTCACTCATTTACACCAACCACCCAACTATCTATAAACCTAGCCATGGCCATCCCCTTATGAGCGGGCGCAGTGATTATAGGCTTTCGCTCTAAGATTAAAAATGCCCTAGCCCACTTCTTACCACAAGGCACACCTACACCCCTTATCCCTATACTAGTTATTATCGAAACCATCAGCCTACTCATTCAACCAGTAGCCCTGGCCGTACGCCTAACCGCTAACATTACTGCAGGTCACCTACTCATGCACCTAATTGGAAACGCCACCCTAGCAATATCAACCATTAACCTTCCCTCTACACTTATCATCTTCACAATTCTAATTCTACTGACTATCCTAGAAATCGCTGTCGCCTTAATCCAAGCCTACGTTTTCACACTTCTAGTAAGCCTCTACCTGCACGACAACACATAATGACCCACCAATCACATGCCTATCATATAGTAAAACCCAGCCCATGACCCCTAACAGGGGCCCTCTCAGCCCTCCTAATGACCTCCGGCCTAGCCATGTGATTTCACTTCCACTCCACAACCCTCCTCATACTAGGCTTACTAACCAACACACTAACCATATACCAATGATGGCGCGATGTAACACGAGAAAGCACATACCAAGGCCACCACACACCACCTGTCCAAAAAGGCCTTCGATACGGGATAGTCCTATTTATTACCTCAGAAGTTTTTTTCTTCGCAGGATTTTTCTGAGCCTTTTACCACTCCAGCCTAGCCCCTACCCCCCAACTAGGAGGGCACTGGCCCCCAACAGGCATCACCCCGCTAAATCCCCTAGAAGTCCCACTCCTAAACACATCCGTATTACTCGCATCAGGAGTATCAATCACCTGAGCTCACCATAGTCTAATAGAAAACAACCGAAACCAAATAATTCAAGCACTGCTTATTACAATTTTACTGGGTCTCTATTTTACCCTCCTACAAGCCTCAGAGTACTTCGAATCTCCCTTCACCATTTCCGACGGCATCTACGGCTCAACATTTTTTGTAGCCACAGGCTTCCACGGACTTCACGTCATTATTGGCTCAACTTTCCTCACTATCTGCTTCATCCGTCAACTAATATTTCACTTTACATCCAAACATCACTTTGGCTTCGAAGCCGCCGCCTGATACTGGCATTTTGTAGATGTGGTTTGACTATTTCTGTATGTCTCCATCTATTGATGAGGGTCTTACTCTTTTAGTATAAATAGTACCGTTAACTTCCAATTAACTAGTTTTGACAACATTCAAAAAAGAGTAATAAACTTCGCCTTAATTTTAATAATCAACACCCTCCTAGCCCTACTACTAATAATTATTACATTTTGACTACCACAACTCAACGGCTACATAGAAAAATCCACCCCTTACGAGTGCGGCTTCGACCCTATATCCCCCGCCCGCGTCCCTTTCTCCATAAAATTCTTCTTAGTAGCTATTACCTTCTTATTATTTGACCTAGAAATTGCCCTCCTTTTACCCTTACCATGAGCCCTACAAACAACTAATCTACCACTAATAGTTACGTCATCCCTCTTATTAATCATCATCCTAGCCCTAAGTCTGGCCTATGAATGACTACAAAAAGGATTAGACTGAGCCGAATTGGTATATAGTTTAAACAAAACGAATGATTTCGACTCATTAAATTATGATAATCATATTTACCAAATGCCCCTCATTTACATAAATATTATACTAGCATTTACCATCTCACTTCTGGGAATACTAGTGTATCGCTCACACCTCATATCCTCCCTACTATGCCTAGAAGGAATAATACTATCGCTGTTCATTATAGCTACTCTCATAACCCTCAACACCCACTCCCTCTTAGCCAATATTGTGCCTATTGCCATACTAGTTTTTGCCGCCTGCGAAGCAGCGGTAGGCCTAGCCCTACTAGTCTCAATCTCCAACACATATGGCCTAGACTACGTACATAACCTAAGCCTACTCCAATGCTAAAACTAATCGTCCCAACAATTATATTACTACCACTGACATGACTCTCCAAAAAACACATAATTTGAATCAACACAACCACCCACAGCCTAATTATTAGCATCATCCCCCTACTATTTTTTAACCAAATCAACAACAACCTATTTAGCTGCTCCCCAACCTTTTCCTCCGACCCCCTAACAACCCCCCTCCTAATACTAACTACCTGACTCCTACCCCTCACAATCATGGCAAGCCAACGCCACTTATCCAGTGAACCACTATCACGAAAAAAACTCTACCTCTCTATACTAATCTCCCTACAAATCTCCTTAATTATAACATTCACAGCCACAGAACTAATCATATTTTATATCTTCTTCGAAACCACACTTATCCCCACCTTGGCTATCATCACCCGATGAGGCAACCAGCCAGAACGCCTGAACGCAGGCACATACTTCCTATTCTACACCCTAGTAGGCTCCCTTCCCCTACTCATCGCACTAATTTACACTCACAACACCCTAGGCTCACTAAACATTCTACTACTCACTCTCACTGCCCAAGAACTATCAAACTCCTGAGCCAACAACTTAATATGACTAGCTTACACAATAGCTTTTATAGTAAAGATACCCCTTTACGGACTCCACTTATGACTCCCTAAAGCCCATGTCGAAGCCCCCATCGCTGGGTCAATAGTACTTGCCGCTGTACTCTTAAAACTAGGCGGCTATGGTATAATACGCCTCACACTCATTCTCAACCCCCTGACAAAACATATAGCCTACCCCTTCCTTGTACTATCCCTATGGGGCATAATTATAACAAGCTCCATCTGCCTGCGACAAACAGACCTAAAATCGCTCATTGCATATTCTTCAATCAGCCACATAGCCCTCGTAGTAACAGCCATTCTCATCCAAACCCCCTGAAGCTTCACCGGCGCAGTCATTCTCATAATCGCCCACGGACTTACATCCTCATTACTATTCTGCCTAGCAAACTCAAACTACGAACGCACCCACAGTCGCATCATAATCCTCTCTCAAGGACTTCAAACTCTACTCCCACTAATAGCTTTTTGATGACTTCTAGCAAGCCTCGCTAACCTCGCCTTACCCCCCACTATTAACCTACTGGGAGAACTCTCTGTGCTAGTAACCACATTCTCCTGATCAAATATCACTCTCCTACTTACAGGGCTCAACATACTAGTCACAGCCCTATACTCCCTCTACATATTTACCACAACACAATGGGGCTCACTCACCCACCACATTAACAACATAAAACCCTCATTCACACGAGAAAACACCCTCATATTCATACACCTATCCCCCATTCTCCTCCTATCCCTCAACCCCGACATCATTACCGGGTTTTCCTCTTGTAAATATAGTTTAACCAAAACATCAGATTGTGAATCTGACAACAGAGGCTCACGACCCCTTATTTACCGAGAAAGCTCACAAGAACTGCTAACTCATGCCCCCATGTCTAACAACATGGCTTTCTCAACTTTTAAAGGATAACAGCTATCCATTGGTCTTAGGCCCCAAAAATTTTGGTGCAACTCCAAATAAAAGTAATAACCATGCACACCACTATAACCACCCTGACCCTGACTTCCCTAATTCCCCCCATCCTTACCACCCTCATTAACCCTAACAAAAAAAACTCATACCCCCATTATGTAAAATCCATTGTCGCATCCACCTTTATTATTAGTCTCTTCCCCACAACAATATTCATGTGCCTAGACCAAGAAGTTATTATCTCGAACTGACACTGAGCCACAACCCAAACAACCCAGCTCTCCCTAAGCTTCAAACTAGACTACTTCTCCATAATATTCATCCCTGTAGCATTGTTCGTTACATGGTCCATCATAGAATTCTCACTGTGATATATAAACTCAGACCCAAACATTAATCAGTTCTTCAAATATCTACTCATTTTCCTAATTACCATACTAATCTTAGTTACCGCTAACAACCTATTCCAACTGTTCATCGGCTGAGAGGGCGTAGGAATTATATCCTTCTTGCTCATCAGTTGATGATACGCCCGAGCAGATGCCAACACAGCAGCCATTCAAGCAATCCTATACAACCGCATCGGCGATATCGGTTTCATCCTCGCCTTAGCATGATTTATCCTACACTCCAACTCATGAGACCCACAACAAATAGCCCTTCTAAACGCTAATCCAAGCCTCACCCCACTACTAGGCCTCCTCCTAGCAGCAGCAGGCAAATCAGCCCAATTAGGTCTCCACCCCTGACTCCCCTCAGCCATAGAAGGCCCCACCCCAGTCTCAGCCCTACTCCACTCAAGCACTATAGTCGTAGCAGGAGTCTTCTTACTCATCCGCTTCCACCCCCTAGCAGAAAATAGCCCACTAATCCAAACTCTAACACTATGCTTAGGCGCTATCACCACTCTATTCGCAGCAGTCTGCGCCCTTACACAAAATGACATCAAAAAAATCGTAGCCTTCTCCACTTCAAGTCAACTAGGGCTCATAGTAGTTACAATCGGCATCAACCAACCACACCTAGCATTCCTGCACATCTGTACCCACGCCTTCTTCAAAGCCATACTATTTATATGCTCCGGGTCCATCATCCACAACCTTAACAATGAACAAGATATTCGAAAAATAGGAGGACTACTCAAAACCATACCTCTCACTTCAACCTCCCTCACCATTGGCAGCCTAGCATTAGCAGGAATACCTTTCCTCACAGGTTTCTACTCCAAAGACCACATCATCGAAACCGCAAACATATCATACACAAACGCCTGAGCCCTATCTATTACTCTCATCGCTACCTCCCTGACAAGCGCCTATAGCACTCGAATAATTCTTCTCACCCTAACAGGTCAACCTCGCTTCCCCACCCTCACTAACATTAACGAAAATAACCCTACCCTACTAAACCCCATTAAACGCCTAGCAGCCGGAAGCCTATTCGCAGGATTTCTCATTACTAACAACATTTCCCCCGCATCCCCCTTCCAAACAACAATCCCCCTCTACCTAAAACTCGCAGCCCTCGCTGTCACTTTCCTAGGACTTCTAACAGCCCTAGACCTCAACTACCTAACCAACAAACTTAAAATAAAAACCCCACTATACACATTTTATTTCTCCAACATACTCGGGTTCTACCCTAGCATCACACACCGCACAATCCCCTATCTAGGCCTTCTTACGAGCCAAAACCTGCCCCTACTCCTCCTAGACCTAACCTGACTAGAAAAGCTATTACCTAAAACAATTTCACAGCACCAAATCTCCGCCTCCATCACCACCTCAACCCAAAAAGGCATAATTAAACTTTACTTCCTCTCTTTCTTCTTCCCACTCATCCTAACCCTACTCCTAATCATATAACCTATTCCCCCGAGCAATCTCAATTACAACATATACACCAACAAACAATGTTCAACCAGTAACTACTACTAATCAACGCCCATAATCATACAAAGCCCCCGCACCAATAGGATCCTCCCGAATCAACCCTGACCCCTCTCCTTCATAGATTATTCAGCTTCCTACACTATTAAAGTTTACCACAACCACCACCCCATCATACTCTTTCACCCACAGCACCAATCCTACCTCCATCGCTAACCCCACTAAAACACTCACCAAGACCTCAACCCCTGACCCCCATGCCTCAGGATACTCCTCAATAGCCATCGCTGTAGTATATCCAAAGACAACCATCATTCCCCCTAAATAAATTAAAAAAACTATTAAACCCATATAACCTCCCCCAAAATTCAGAATAATAACACACCCAACCACACCGCTAACAATCAATACTAAACCCCCATAAATAGGAGAAGGCTTAGAAGAAAACCCCACAAACCCCATTACTAAACCCACACTCAACAGAAACAAAGCATACATCATTATTCTCGCACGGACTACAACCACGACCAATGATATGAAAAACCATCGTTGTATTTCAACTACAAGAACACCAATGACCCCAATACGCAAAATTAACCCCCTAATAAAATTAATTAACCACTCATTCATCGACCTCCCCACCCCATCCAACATCTCCGCATGATGAAACTTCGGCTCACTCCTTGGCGCCTGCCTGATCCTCCAAATCACCACAGGACTATTCCTAGCCATGCACTACTCACCAGACGCCTCGACCGCCTTTTCATCAATCGCCCACATCACTCGAGACGTAAATTATGGCTGAATCATCCGCTACCTTCACGCCAATGGCGCCTCAATATTCTTTATCTGCCTCTTCCTACACATCGGACGAGGCCTATATTACGGATCATTTCTCTACTCAAAAACCTGAAACATCGGCATTATCCTCCTGCTTGCAACTATAGCAACAGCCTTCATAGGCTATGTCCTCCCATGAGGCCAAATATCATTCTGAGGGGCCACAGTAATTACAAACCTACTATCCGCCATCCCATACATTGGGACAGACCTGGTTCAGTGAATCTGAGGAGGCTACTCAGTAGACAGTCCCACCCTCACACGATTCTTTACCTTTCACTTTATCTTACCCTTCATTATTGCAGCCCTAGCAGCACTCCACCTCCTATTCTTGCACGAAACAGGATCAAACAACCCCCTAGGAATCACCTCCCATTCCGATAAAATCACCTTCCACCCTTACTACACAATCAAAGACGCCCTCGGCTTATTTCTCTTCCTTCTCTCCTTAATGACATTAACACTACTCTCACCAGACCTCCTAGGCGACCCAGACAATTATACCCTAGCCAACCCCTTAAACACCCCTCCCCACATCAAGCCCGAATGATATTTCCTATTCGCCTACACAATTCTCCGATCCGTCCCTAACAAACTAGGAGGCGTCCTTGCCCTACTACTATCCATCCTCATCCTGGCAATAATCCCCATCCTTCATGTATCCAAACAACAAAGCATAATATTTCGCCCACTAAGCCAATCACTTTATTGACTCCTAGCCGCAGACCTCCTCATTCTAACCTGAATCGGAGGACAACCAGTAAGCTACCCTTTTATCATCATTGGACAAGTAGCATCCGTACTATACTTCACAACAATCCTAATCCTAATACCAACCATCTCCCTAATTGAAAACAAAATACTCAAATGGGCCTGTCCTTGTAGTATAAACTAATACACCAGTCTTGTAAACCGGAGATGAAAACCTTTTTCCAAGGACAAATCAGAGAAAAAGTCTTTAACTCCACCATTAGCACCCAAAGCTAAGATTCTAATTTAAACTATTCTCTGTTCTTTCATGGGGGAGCAGATTTGGGTACCACCCAAGTATTGACTCACCCATCAGCAACCGCTATGTATTTCGTACATTACTGCCAGCCACCATGAATATTGTACAGTACCATAATTACTTGACTACCTGCAGTACATAAAAACCTAATCCACATCAACCCCCCCCCCCCATGCTTACAAGCAAGCACAGCAATCAACCTTCAACTGTCATACATCAACTACAACTCCAAAGACGCCCTTACACCCACTAGGATATCAACAAACCTACCCACCCTTGACAGTACATAGCACATAAAGTCATTTACCGTACATAGCACATTACAGTCAAATCCCTTCTCGCCCCCATGGATGACCCCCCTCAGATAGGGGTCCCTTGATCACCATCCTCCGTGAAATCAATATCCCGCACAAGAGTGCTACTCTCCTCGCTCCGGGCCCATAACACTTGGGGGTAGCTAAAGTGAACTGTATCCGACATCTGGTTCCTACTTCAGGGCCATAAAGCCTAAATAGCCCACACGTTCCCCTTAAATAAGACATCACGATG'
p1593
sbsS'_per_letter_annotations'
p1594
g1
(cBio.SeqRecord
_RestrictedDict
p1595
c__builtin__
dict
p1596
(dtRp1597
(dp1598
S'_length'
p1599
I16565
sbsg105
S'NC_011137.1'
p1600
sS'name'
p1601
S'NC_011137'
p1602
sb.