ccopy_reg
_reconstructor
p1
(cBio.SeqRecord
SeqRecord
p2
c__builtin__
object
p3
NtRp4
(dp5
S'dbxrefs'
p6
(lp7
S'Project:32313 BioProject:PRJNA32313'
p8
asS'description'
p9
S'Daboia russellii mitochondrion, complete genome.'
p10
sS'annotations'
p11
(dp12
S'comment'
p13
S'REVIEWED REFSEQ: This record has been curated by NCBI staff. The\nreference sequence was derived from EU913478.\nCOMPLETENESS: full length.'
p14
sS'sequence_version'
p15
I1
sS'source'
p16
S"mitochondrion Daboia russellii (Russell's viper)"
p17
sS'taxonomy'
p18
(lp19
S'Eukaryota'
p20
aS'Metazoa'
p21
aS'Chordata'
p22
aS'Craniata'
p23
aS'Vertebrata'
p24
aS'Euteleostomi'
p25
aS'Lepidosauria'
p26
aS'Squamata'
p27
aS'Scleroglossa'
p28
aS'Serpentes'
p29
aS'Colubroidea'
p30
aS'Viperidae'
p31
aS'Viperinae'
p32
aS'Daboia'
p33
asS'keywords'
p34
(lp35
S''
asS'references'
p36
(lp37
g1
(cBio.SeqFeature
Reference
p38
g3
NtRp39
(dp40
g13
S''
sS'title'
p41
S'The complete mitochondrial nucleotide sequence of Daboia russellii'
p42
sS'consrtm'
p43
S''
sS'journal'
p44
S'Unpublished'
p45
sS'location'
p46
(lp47
g1
(cBio.SeqFeature
FeatureLocation
p48
g3
NtRp49
(dp50
S'ref'
p51
NsS'_end'
p52
g1
(cBio.SeqFeature
ExactPosition
p53
c__builtin__
int
p54
I17246
tRp55
sS'_start'
p56
g1
(g53
g54
I0
tRp57
sS'_strand'
p58
NsS'ref_db'
p59
NsbasS'pubmed_id'
p60
S''
sS'authors'
p61
S'Chen,N. and Fu,X.Y.'
p62
sS'medline_id'
p63
S''
sbag1
(g38
g3
NtRp64
(dp65
g13
S''
sg41
S'Direct Submission'
p66
sg43
S'NCBI Genome Project'
p67
sg44
S'Submitted (22-OCT-2008) National Center for Biotechnology Information, NIH, Bethesda, MD 20894, USA'
p68
sg46
(lp69
g1
(g48
g3
NtRp70
(dp71
g51
Nsg52
g1
(g53
g54
I17246
tRp72
sg56
g1
(g53
g54
I0
tRp73
sg58
Nsg59
Nsbasg60
S''
sg61
S''
sg63
S''
sbag1
(g38
g3
NtRp74
(dp75
g13
S''
sg41
S'Direct Submission'
p76
sg43
S''
sg44
S'Submitted (20-JUL-2008) Department of Pharmacology, General Hospital of Guangzhou Military Command, No. 111, Liuhua Road, Guangzhou, Guangdong 510010, P. R. China'
p77
sg46
(lp78
g1
(g48
g3
NtRp79
(dp80
g51
Nsg52
g1
(g53
g54
I17246
tRp81
sg56
g1
(g53
g54
I0
tRp82
sg58
Nsg59
Nsbasg60
S''
sg61
S'Chen,N.'
p83
sg63
S''
sbasS'accessions'
p84
(lp85
S'NC_011391'
p86
asS'data_file_division'
p87
S'VRT'
p88
sS'date'
p89
S'14-APR-2009'
p90
sS'organism'
p91
S'Daboia russellii'
p92
sS'gi'
p93
S'209886939'
p94
ssS'features'
p95
(lp96
g1
(cBio.SeqFeature
SeqFeature
p97
g3
NtRp98
(dp99
S'sub_features'
p100
(lp101
sS'location_operator'
p102
S''
sS'id'
p103
S'<unknown id>'
p104
sg46
g1
(g48
g3
NtRp105
(dp106
g51
Nsg52
g1
(g53
g54
I17246
tRp107
sg56
g1
(g53
g54
I0
tRp108
sg58
I1
sg59
NsbsS'type'
p109
S'source'
p110
sS'qualifiers'
p111
(dp112
S'organelle'
p113
(lp114
S'mitochondrion'
p115
asS'specimen_voucher'
p116
(lp117
S'CIB093926'
p118
asS'mol_type'
p119
(lp120
S'genomic DNA'
p121
asS'organism'
p122
(lp123
S'Daboia russellii'
p124
asS'db_xref'
p125
(lp126
S'taxon:8707'
p127
assbag1
(g97
g3
NtRp128
(dp129
g100
(lp130
sg102
S''
sg103
g104
sg46
g1
(g48
g3
NtRp131
(dp132
g51
Nsg52
g1
(g53
g54
I63
tRp133
sg56
g1
(g53
g54
I0
tRp134
sg58
I1
sg59
Nsbsg109
S'tRNA'
p135
sg111
(dp136
S'anticodon'
p137
(lp138
S'(pos:32..34,aa:Phe,seq:gaa)'
p139
asS'product'
p140
(lp141
S'tRNA-Phe'
p142
assbag1
(g97
g3
NtRp143
(dp144
g100
(lp145
sg102
S''
sg103
g104
sg46
g1
(g48
g3
NtRp146
(dp147
g51
Nsg52
g1
(g53
g54
I971
tRp148
sg56
g1
(g53
g54
I63
tRp149
sg58
I1
sg59
Nsbsg109
S'rRNA'
p150
sg111
(dp151
S'note'
p152
(lp153
S'12S ribosomal RNA'
p154
asS'product'
p155
(lp156
S's-rRNA'
p157
assbag1
(g97
g3
NtRp158
(dp159
g100
(lp160
sg102
S''
sg103
g104
sg46
g1
(g48
g3
NtRp161
(dp162
g51
Nsg52
g1
(g53
g54
I1034
tRp163
sg56
g1
(g53
g54
I971
tRp164
sg58
I1
sg59
Nsbsg109
S'tRNA'
p165
sg111
(dp166
S'anticodon'
p167
(lp168
S'(pos:1002..1004,aa:Val,seq:tac)'
p169
asS'product'
p170
(lp171
S'tRNA-Val'
p172
assbag1
(g97
g3
NtRp173
(dp174
g100
(lp175
sg102
S''
sg103
g104
sg46
g1
(g48
g3
NtRp176
(dp177
g51
Nsg52
g1
(g53
g54
I2517
tRp178
sg56
g1
(g53
g54
I1034
tRp179
sg58
I1
sg59
Nsbsg109
S'rRNA'
p180
sg111
(dp181
S'note'
p182
(lp183
S'16S ribosomal RNA'
p184
asS'product'
p185
(lp186
S'l-rRNA'
p187
assbag1
(g97
g3
NtRp188
(dp189
g100
(lp190
sg102
S''
sg103
g104
sg46
g1
(g48
g3
NtRp191
(dp192
g51
Nsg52
g1
(g53
g54
I3478
tRp193
sg56
g1
(g53
g54
I2517
tRp194
sg58
I1
sg59
Nsbsg109
S'gene'
p195
sg111
(dp196
S'db_xref'
p197
(lp198
S'GeneID:6993629'
p199
asS'gene'
p200
(lp201
S'ND1'
p202
assbag1
(g97
g3
NtRp203
(dp204
g100
(lp205
sg102
S''
sg103
g104
sg46
g1
(g48
g3
NtRp206
(dp207
g51
Nsg52
g1
(g53
g54
I3478
tRp208
sg56
g1
(g53
g54
I2517
tRp209
sg58
I1
sg59
Nsbsg109
S'CDS'
p210
sg111
(dp211
S'product'
p212
(lp213
S'NADH dehydrogenase subunit 1'
p214
asS'transl_except'
p215
(lp216
S'(pos:3478,aa:TERM)'
p217
asS'codon_start'
p218
(lp219
S'1'
asS'transl_table'
p220
(lp221
S'2'
asS'note'
p222
(lp223
S"TAA stop codon is completed by the addition of 3' A residues to the mRNA"
p224
asS'db_xref'
p225
(lp226
S'GI:209886940'
p227
aS'GeneID:6993629'
p228
asS'translation'
p229
(lp230
S'MITTMLNIINPFLYILPILIAVAFLTLLERKLLGYMQLRKGPNLVGPMGLLQPIADGLKLIIKEASKPSMSSPILFTASPIMALSLSLISWTPLPMPTALANMNLGLMFIMAMSGMFTYAILWSGWSSNSKYPLMGTIRAVSQIISYEVTLGLIIISMATISGNYSLFSFMETQEHQWLILASWPLAMMWFTSTLAETNRAPFDLTEGESELVSGFNLEFSAGPFALLFLAEYSNILLMNTITVMIFMNPGTSNLELFTINLMTKTIILTSLFLWIRASYPRFRYDQLMHLLWKQYLPLTLSLCLLNLFTTSTFYGTPPQ'
p231
asS'gene'
p232
(lp233
S'ND1'
p234
asS'protein_id'
p235
(lp236
S'YP_002290792.1'
p237
assbag1
(g97
g3
NtRp238
(dp239
g100
(lp240
sg102
S''
sg103
g104
sg46
g1
(g48
g3
NtRp241
(dp242
g51
Nsg52
g1
(g53
g54
I3543
tRp243
sg56
g1
(g53
g54
I3478
tRp244
sg58
I1
sg59
Nsbsg109
S'tRNA'
p245
sg111
(dp246
S'anticodon'
p247
(lp248
S'(pos:3507..3509,aa:Ile,seq:gat)'
p249
asS'product'
p250
(lp251
S'tRNA-Ile'
p252
assbag1
(g97
g3
NtRp253
(dp254
g100
(lp255
sg102
S''
sg103
g104
sg46
g1
(g48
g3
NtRp256
(dp257
g51
Nsg52
g1
(g53
g54
I3632
tRp258
sg56
g1
(g53
g54
I3614
tRp259
sg58
I1
sg59
Nsbsg109
S'misc_feature'
p260
sg111
(dp261
S'note'
p262
(lp263
S'C-rich sequence'
p264
assbag1
(g97
g3
NtRp265
(dp266
g100
(lp267
sg102
S''
sg103
g104
sg46
g1
(g48
g3
NtRp268
(dp269
g51
Nsg52
g1
(g53
g54
I3697
tRp270
sg56
g1
(g53
g54
I3636
tRp271
sg58
I-1
sg59
Nsbsg109
S'tRNA'
p272
sg111
(dp273
S'anticodon'
p274
(lp275
S'(pos:complement(3664..3666),aa:Pro,seq:tgg)'
p276
asS'product'
p277
(lp278
S'tRNA-Pro'
p279
assbag1
(g97
g3
NtRp280
(dp281
g100
(lp282
sg102
S''
sg103
g104
sg46
g1
(g48
g3
NtRp283
(dp284
g51
Nsg52
g1
(g53
g54
I4714
tRp285
sg56
g1
(g53
g54
I3697
tRp286
sg58
I1
sg59
Nsbsg109
S'repeat_region'
p287
sg111
(dp288
S'note'
p289
(lp290
S'control region; may include an origin for replicating the heavy strand'
p291
assbag1
(g97
g3
NtRp292
(dp293
g100
(lp294
sg102
S''
sg103
g104
sg46
g1
(g48
g3
NtRp295
(dp296
g51
Nsg52
g1
(g53
g54
I3739
tRp297
sg56
g1
(g53
g54
I3719
tRp298
sg58
I1
sg59
Nsbsg109
S'misc_feature'
p299
sg111
(dp300
S'note'
p301
(lp302
S'C-rich sequence'
p303
assbag1
(g97
g3
NtRp304
(dp305
g100
(lp306
sg102
S''
sg103
g104
sg46
g1
(g48
g3
NtRp307
(dp308
g51
Nsg52
g1
(g53
g54
I4787
tRp309
sg56
g1
(g53
g54
I4714
tRp310
sg58
I1
sg59
Nsbsg109
S'tRNA'
p311
sg111
(dp312
S'anticodon'
p313
(lp314
S'(pos:4749..4751,aa:Leu,seq:taa)'
p315
asS'codon_recognized'
p316
(lp317
S'UUR'
p318
asS'product'
p319
(lp320
S'tRNA-Leu'
p321
assbag1
(g97
g3
NtRp322
(dp323
g100
(lp324
sg102
S''
sg103
g104
sg46
g1
(g48
g3
NtRp325
(dp326
g51
Nsg52
g1
(g53
g54
I4857
tRp327
sg56
g1
(g53
g54
I4787
tRp328
sg58
I-1
sg59
Nsbsg109
S'tRNA'
p329
sg111
(dp330
S'anticodon'
p331
(lp332
S'(pos:complement(4824..4826),aa:Gln,seq:ttg)'
p333
asS'product'
p334
(lp335
S'tRNA-Gln'
p336
assbag1
(g97
g3
NtRp337
(dp338
g100
(lp339
sg102
S''
sg103
g104
sg46
g1
(g48
g3
NtRp340
(dp341
g51
Nsg52
g1
(g53
g54
I4919
tRp342
sg56
g1
(g53
g54
I4857
tRp343
sg58
I1
sg59
Nsbsg109
S'tRNA'
p344
sg111
(dp345
S'anticodon'
p346
(lp347
S'(pos:4887..4889,aa:Met,seq:cat)'
p348
asS'product'
p349
(lp350
S'tRNA-Met'
p351
assbag1
(g97
g3
NtRp352
(dp353
g100
(lp354
sg102
S''
sg103
g104
sg46
g1
(g48
g3
NtRp355
(dp356
g51
Nsg52
g1
(g53
g54
I5949
tRp357
sg56
g1
(g53
g54
I4919
tRp358
sg58
I1
sg59
Nsbsg109
S'gene'
p359
sg111
(dp360
S'db_xref'
p361
(lp362
S'GeneID:6993630'
p363
asS'gene'
p364
(lp365
S'ND2'
p366
assbag1
(g97
g3
NtRp367
(dp368
g100
(lp369
sg102
S''
sg103
g104
sg46
g1
(g48
g3
NtRp370
(dp371
g51
Nsg52
g1
(g53
g54
I5949
tRp372
sg56
g1
(g53
g54
I4919
tRp373
sg58
I1
sg59
Nsbsg109
S'CDS'
p374
sg111
(dp375
S'product'
p376
(lp377
S'NADH dehydrogenase subunit 2'
p378
asS'transl_except'
p379
(lp380
S'(pos:5949,aa:TERM)'
p381
asS'codon_start'
p382
(lp383
S'1'
asS'transl_table'
p384
(lp385
S'2'
asS'note'
p386
(lp387
S"TAA stop codon is completed by the addition of 3' A residues to the mRNA"
p388
asS'db_xref'
p389
(lp390
S'GI:209886941'
p391
aS'GeneID:6993630'
p392
asS'translation'
p393
(lp394
S'MNPTSWTMITMSIFMSTTLITMTTHWLMAWTCLEINTLSMIPIISRTNHPRATEATTKYFLTQTLASITILFTTTLNALNTSNWEISLTTEPTTMKIITLALMMKMAAAPFHFWLPEVVQGATTLTALTILTWQKIAPLTILLTCHSNTNLTILTSSAILSILIGGLGGLNQTQMRKLMAFSSIAHTGWILATITLAPNISTLTFMIYTMTTMPIFLMMNLLSCTTIKDMGTTWPTSPYLMTAMLLTILSLTGLPPLTGFMPKWLILNKMIALNMTLEAILMAMFSLPSLYMYLRLTYILAMTMPPHPSSMLMKWRLTNKNYTMLPLTMTTMMMLLLPLSPSL'
p395
asS'gene'
p396
(lp397
S'ND2'
p398
asS'protein_id'
p399
(lp400
S'YP_002290793.1'
p401
assbag1
(g97
g3
NtRp402
(dp403
g100
(lp404
sg102
S''
sg103
g104
sg46
g1
(g48
g3
NtRp405
(dp406
g51
Nsg52
g1
(g53
g54
I6012
tRp407
sg56
g1
(g53
g54
I5949
tRp408
sg58
I1
sg59
Nsbsg109
S'tRNA'
p409
sg111
(dp410
S'anticodon'
p411
(lp412
S'(pos:5980..5982,aa:Trp,seq:tca)'
p413
asS'product'
p414
(lp415
S'tRNA-Trp'
p416
assbag1
(g97
g3
NtRp417
(dp418
g100
(lp419
sg102
S''
sg103
g104
sg46
g1
(g48
g3
NtRp420
(dp421
g51
Nsg52
g1
(g53
g54
I6077
tRp422
sg56
g1
(g53
g54
I6012
tRp423
sg58
I-1
sg59
Nsbsg109
S'tRNA'
p424
sg111
(dp425
S'anticodon'
p426
(lp427
S'(pos:complement(6045..6047),aa:Ala,seq:tgc)'
p428
asS'product'
p429
(lp430
S'tRNA-Ala'
p431
assbag1
(g97
g3
NtRp432
(dp433
g100
(lp434
sg102
S''
sg103
g104
sg46
g1
(g48
g3
NtRp435
(dp436
g51
Nsg52
g1
(g53
g54
I6150
tRp437
sg56
g1
(g53
g54
I6077
tRp438
sg58
I-1
sg59
Nsbsg109
S'tRNA'
p439
sg111
(dp440
S'anticodon'
p441
(lp442
S'(pos:complement(6115..6117),aa:Asn,seq:gtt)'
p443
asS'product'
p444
(lp445
S'tRNA-Asn'
p446
assbag1
(g97
g3
NtRp447
(dp448
g100
(lp449
sg102
S''
sg103
g104
sg46
g1
(g48
g3
NtRp450
(dp451
g51
Nsg52
g1
(g53
g54
I6187
tRp452
sg56
g1
(g53
g54
I6150
tRp453
sg58
I1
sg59
Nsbsg109
S'rep_origin'
p454
sg111
(dp455
S'note'
p456
(lp457
S'putative L-strand replication origin'
p458
assbag1
(g97
g3
NtRp459
(dp460
g100
(lp461
sg102
S''
sg103
g104
sg46
g1
(g48
g3
NtRp462
(dp463
g51
Nsg52
g1
(g53
g54
I6237
tRp464
sg56
g1
(g53
g54
I6184
tRp465
sg58
I-1
sg59
Nsbsg109
S'tRNA'
p466
sg111
(dp467
S'anticodon'
p468
(lp469
S'(pos:complement(6215..6217),aa:Cys,seq:gca)'
p470
asS'product'
p471
(lp472
S'tRNA-Cys'
p473
assbag1
(g97
g3
NtRp474
(dp475
g100
(lp476
sg102
S''
sg103
g104
sg46
g1
(g48
g3
NtRp477
(dp478
g51
Nsg52
g1
(g53
g54
I6298
tRp479
sg56
g1
(g53
g54
I6237
tRp480
sg58
I-1
sg59
Nsbsg109
S'tRNA'
p481
sg111
(dp482
S'anticodon'
p483
(lp484
S'(pos:complement(6267..6269),aa:Tyr,seq:gta)'
p485
asS'product'
p486
(lp487
S'tRNA-Tyr'
p488
assbag1
(g97
g3
NtRp489
(dp490
g100
(lp491
sg102
S''
sg103
g104
sg46
g1
(g48
g3
NtRp492
(dp493
g51
Nsg52
g1
(g53
g54
I7901
tRp494
sg56
g1
(g53
g54
I6299
tRp495
sg58
I1
sg59
Nsbsg109
S'gene'
p496
sg111
(dp497
S'db_xref'
p498
(lp499
S'GeneID:6993631'
p500
asS'gene'
p501
(lp502
S'COX1'
p503
assbag1
(g97
g3
NtRp504
(dp505
g100
(lp506
sg102
S''
sg103
g104
sg46
g1
(g48
g3
NtRp507
(dp508
g51
Nsg52
g1
(g53
g54
I7901
tRp509
sg56
g1
(g53
g54
I6299
tRp510
sg58
I1
sg59
Nsbsg109
S'CDS'
p511
sg111
(dp512
S'product'
p513
(lp514
S'cytochrome c oxidase subunit I'
p515
asS'codon_start'
p516
(lp517
S'1'
asS'transl_table'
p518
(lp519
S'2'
asS'db_xref'
p520
(lp521
S'GI:209886942'
p522
aS'GeneID:6993631'
p523
asS'translation'
p524
(lp525
S'MLITRWLFSTNHKDIGTLYLMFGAWSGLVGACLSILMRMELTQPGSLFGSDQIFNVLVTAHAFIMIVCMVMPIMIGGFGNWLIPLMIGTPDMAFPRMNNMSFWLLPPALLLLLSSSYMEAGAGTGWTVYPPLSGNLVHSGPSVDLAIFSLHLAGASSILGAINFITTCINMKPKSMPMFNFPLFVWSVMITAIMLLLALPVLAAAITMLLTDRNLNTSFFDPCGGGDPVLFQHLFWFFGHPEVYILILPGFGIVSSIITFYTGKKNTFGYTSMIWAMMSIAILGFVVWAHHMFTVGLDIDSRAYFTAATMIIAIPTGIKVFGWLATLTGGHIKWQTPIYWALGFIFLFTVGGMTGIILANSSLDIVLHDTYYVVAHFHYVLSMGAVFAIMGGLTHWFPLFTGYSLNQTLTKTQFWVMFLGVNMTFFPQHFLGLSGMPRRYSDFPDAFSLWNTVSSIGSTISLIAVLMSLFIVWEAMTCKRKPMIQLGKKTHIEWLYGTPPPYHTHTEPTFTPNNSYAPIREHMSNMQWPWPEK'
p526
asS'gene'
p527
(lp528
S'COX1'
p529
asS'protein_id'
p530
(lp531
S'YP_002290794.1'
p532
assbag1
(g97
g3
NtRp533
(dp534
g100
(lp535
sg102
S''
sg103
g104
sg46
g1
(g48
g3
NtRp536
(dp537
g51
Nsg52
g1
(g53
g54
I7959
tRp538
sg56
g1
(g53
g54
I7891
tRp539
sg58
I-1
sg59
Nsbsg109
S'tRNA'
p540
sg111
(dp541
S'anticodon'
p542
(lp543
S'(pos:complement(7928..7930),aa:Ser,seq:tga)'
p544
asS'codon_recognized'
p545
(lp546
S'UCN'
p547
asS'product'
p548
(lp549
S'tRNA-Ser'
p550
assbag1
(g97
g3
NtRp551
(dp552
g100
(lp553
sg102
S''
sg103
g104
sg46
g1
(g48
g3
NtRp554
(dp555
g51
Nsg52
g1
(g53
g54
I8023
tRp556
sg56
g1
(g53
g54
I7959
tRp557
sg58
I1
sg59
Nsbsg109
S'tRNA'
p558
sg111
(dp559
S'anticodon'
p560
(lp561
S'(pos:7991..7993,aa:Asp,seq:gtc)'
p562
asS'product'
p563
(lp564
S'tRNA-Asp'
p565
assbag1
(g97
g3
NtRp566
(dp567
g100
(lp568
sg102
S''
sg103
g104
sg46
g1
(g48
g3
NtRp569
(dp570
g51
Nsg52
g1
(g53
g54
I8708
tRp571
sg56
g1
(g53
g54
I8023
tRp572
sg58
I1
sg59
Nsbsg109
S'gene'
p573
sg111
(dp574
S'db_xref'
p575
(lp576
S'GeneID:6993632'
p577
asS'gene'
p578
(lp579
S'COX2'
p580
assbag1
(g97
g3
NtRp581
(dp582
g100
(lp583
sg102
S''
sg103
g104
sg46
g1
(g48
g3
NtRp584
(dp585
g51
Nsg52
g1
(g53
g54
I8708
tRp586
sg56
g1
(g53
g54
I8023
tRp587
sg58
I1
sg59
Nsbsg109
S'CDS'
p588
sg111
(dp589
S'product'
p590
(lp591
S'cytochrome c oxidase subunit II'
p592
asS'transl_except'
p593
(lp594
S'(pos:8708,aa:TERM)'
p595
asS'codon_start'
p596
(lp597
S'1'
asS'transl_table'
p598
(lp599
S'2'
asS'note'
p600
(lp601
S"TAA stop codon is completed by the addition of 3' A residues to the mRNA"
p602
asS'db_xref'
p603
(lp604
S'GI:209886943'
p605
aS'GeneID:6993632'
p606
asS'translation'
p607
(lp608
S'MPYAAQLSLQEAMGPTMEEVVFLHDHVLLLTCLMTMVILMFTITATMTTLTHNDPSEEVEQLEAAWTAAPIMILILTALPSVRSLYLMEEVFDPYLTIKATGHQWYWNYEYSDEIHISFDSYMLKTQDLQNGSPRLLEVDHRMVMPAGLQTRIVVTAEDVLHSWAIPSLGVKVDAIPGRLNQIPLATSRTGVFFGQCSEICGANHSFMPIAIEAIPLFYFEQWLSSEQ'
p609
asS'gene'
p610
(lp611
S'COX2'
p612
asS'protein_id'
p613
(lp614
S'YP_002290795.1'
p615
assbag1
(g97
g3
NtRp616
(dp617
g100
(lp618
sg102
S''
sg103
g104
sg46
g1
(g48
g3
NtRp619
(dp620
g51
Nsg52
g1
(g53
g54
I8770
tRp621
sg56
g1
(g53
g54
I8708
tRp622
sg58
I1
sg59
Nsbsg109
S'tRNA'
p623
sg111
(dp624
S'anticodon'
p625
(lp626
S'(pos:8737..8739,aa:Lys,seq:ttt)'
p627
asS'product'
p628
(lp629
S'tRNA-Lys'
p630
assbag1
(g97
g3
NtRp631
(dp632
g100
(lp633
sg102
S''
sg103
g104
sg46
g1
(g48
g3
NtRp634
(dp635
g51
Nsg52
g1
(g53
g54
I8935
tRp636
sg56
g1
(g53
g54
I8770
tRp637
sg58
I1
sg59
Nsbsg109
S'gene'
p638
sg111
(dp639
S'db_xref'
p640
(lp641
S'GeneID:6993633'
p642
asS'gene'
p643
(lp644
S'ATP8'
p645
assbag1
(g97
g3
NtRp646
(dp647
g100
(lp648
sg102
S''
sg103
g104
sg46
g1
(g48
g3
NtRp649
(dp650
g51
Nsg52
g1
(g53
g54
I8935
tRp651
sg56
g1
(g53
g54
I8770
tRp652
sg58
I1
sg59
Nsbsg109
S'CDS'
p653
sg111
(dp654
S'product'
p655
(lp656
S'ATP synthase F0 subunit 8'
p657
asS'codon_start'
p658
(lp659
S'1'
asS'transl_table'
p660
(lp661
S'2'
asS'db_xref'
p662
(lp663
S'GI:209886944'
p664
aS'GeneID:6993633'
p665
asS'translation'
p666
(lp667
S'MPQLDIVYICYTYLWTWFIITLMSQKMDLFKLTIKPKYPFLMKHQLSTSTLPWT'
p668
asS'gene'
p669
(lp670
S'ATP8'
p671
asS'protein_id'
p672
(lp673
S'YP_002290796.1'
p674
assbag1
(g97
g3
NtRp675
(dp676
g100
(lp677
sg102
S''
sg103
g104
sg46
g1
(g48
g3
NtRp678
(dp679
g51
Nsg52
g1
(g53
g54
I9606
tRp680
sg56
g1
(g53
g54
I8925
tRp681
sg58
I1
sg59
Nsbsg109
S'gene'
p682
sg111
(dp683
S'db_xref'
p684
(lp685
S'GeneID:6993634'
p686
asS'gene'
p687
(lp688
S'ATP6'
p689
assbag1
(g97
g3
NtRp690
(dp691
g100
(lp692
sg102
S''
sg103
g104
sg46
g1
(g48
g3
NtRp693
(dp694
g51
Nsg52
g1
(g53
g54
I9606
tRp695
sg56
g1
(g53
g54
I8925
tRp696
sg58
I1
sg59
Nsbsg109
S'CDS'
p697
sg111
(dp698
S'product'
p699
(lp700
S'ATP synthase F0 subunit 6'
p701
asS'codon_start'
p702
(lp703
S'1'
asS'transl_table'
p704
(lp705
S'2'
asS'db_xref'
p706
(lp707
S'GI:209886945'
p708
aS'GeneID:6993634'
p709
asS'translation'
p710
(lp711
S'MNMNMFEQFTSPELISIPTAPISLLIITLLVFHKPKLLSNRTTIFMVWLLKMFMLNMMNQLTPKGQKWAPILTSLFLMILLSNLMSLLPYTFTSTSQLSMNMAMAVPLWLATVILGLKDKPSISLAHLLPEGSPTPLIPFMIMIETVSLLMRPMALGVRLTANITAGHLLMTMVSSATINIINIYISASSLMLILLFLLTLLELAVACIQAYVFVLLTILYLQENS'
p712
asS'gene'
p713
(lp714
S'ATP6'
p715
asS'protein_id'
p716
(lp717
S'YP_002290797.1'
p718
assbag1
(g97
g3
NtRp719
(dp720
g100
(lp721
sg102
S''
sg103
g104
sg46
g1
(g48
g3
NtRp722
(dp723
g51
Nsg52
g1
(g53
g54
I10389
tRp724
sg56
g1
(g53
g54
I9605
tRp725
sg58
I1
sg59
Nsbsg109
S'gene'
p726
sg111
(dp727
S'db_xref'
p728
(lp729
S'GeneID:6993635'
p730
asS'gene'
p731
(lp732
S'COX3'
p733
assbag1
(g97
g3
NtRp734
(dp735
g100
(lp736
sg102
S''
sg103
g104
sg46
g1
(g48
g3
NtRp737
(dp738
g51
Nsg52
g1
(g53
g54
I10389
tRp739
sg56
g1
(g53
g54
I9605
tRp740
sg58
I1
sg59
Nsbsg109
S'CDS'
p741
sg111
(dp742
S'product'
p743
(lp744
S'cytochrome c oxidase subunit III'
p745
asS'transl_except'
p746
(lp747
S'(pos:10389,aa:TERM)'
p748
asS'codon_start'
p749
(lp750
S'1'
asS'transl_table'
p751
(lp752
S'2'
asS'note'
p753
(lp754
S"TAA stop codon is completed by the addition of 3' A residues to the mRNA"
p755
asS'db_xref'
p756
(lp757
S'GI:209886946'
p758
aS'GeneID:6993635'
p759
asS'translation'
p760
(lp761
S'MTHQLHQYHMVDPSPWPLTGAMGSLLMASGLALWFHTTSTIVLKLGLLVTFLTLIQWWRDVVRESTYQGHHTMGVQKNMRYGMILFITSEVFFFLGFFWTLYHVSLVPTPELGAEWPPTGISPLNPMDVPLLNTAVLLSSGATITWSHHTMMKGNKKEATYALLITIILGIYFTALQVSEYMDTPFTISDSVYGSLFFVATGFHGLHVMIGTSFLLICLIRLIKYHFTTTHHFGYEAAIWYWHFVDVVWLFLYISVYWWGS'
p762
asS'gene'
p763
(lp764
S'COX3'
p765
asS'protein_id'
p766
(lp767
S'YP_002290798.1'
p768
assbag1
(g97
g3
NtRp769
(dp770
g100
(lp771
sg102
S''
sg103
g104
sg46
g1
(g48
g3
NtRp772
(dp773
g51
Nsg52
g1
(g53
g54
I10448
tRp774
sg56
g1
(g53
g54
I10389
tRp775
sg58
I1
sg59
Nsbsg109
S'tRNA'
p776
sg111
(dp777
S'anticodon'
p778
(lp779
S'(pos:10419..10421,aa:Gly,seq:tcc)'
p780
asS'product'
p781
(lp782
S'tRNA-Gly'
p783
assbag1
(g97
g3
NtRp784
(dp785
g100
(lp786
sg102
S''
sg103
g104
sg46
g1
(g48
g3
NtRp787
(dp788
g51
Nsg52
g1
(g53
g54
I10791
tRp789
sg56
g1
(g53
g54
I10448
tRp790
sg58
I1
sg59
Nsbsg109
S'gene'
p791
sg111
(dp792
S'db_xref'
p793
(lp794
S'GeneID:6993636'
p795
asS'gene'
p796
(lp797
S'ND3'
p798
assbag1
(g97
g3
NtRp799
(dp800
g100
(lp801
sg102
S''
sg103
g104
sg46
g1
(g48
g3
NtRp802
(dp803
g51
Nsg52
g1
(g53
g54
I10791
tRp804
sg56
g1
(g53
g54
I10448
tRp805
sg58
I1
sg59
Nsbsg109
S'CDS'
p806
sg111
(dp807
S'product'
p808
(lp809
S'NADH dehydrogenase subunit 3'
p810
asS'transl_except'
p811
(lp812
S'(pos:10791,aa:TERM)'
p813
asS'codon_start'
p814
(lp815
S'1'
asS'transl_table'
p816
(lp817
S'2'
asS'note'
p818
(lp819
S"TAA stop codon is completed by the addition of 3' A residues to the mRNA"
p820
asS'db_xref'
p821
(lp822
S'GI:209886947'
p823
aS'GeneID:6993636'
p824
asS'translation'
p825
(lp826
S'MSLLIFIILAMATSILLYIINTYVPTKPDINKLSPYECGFDPLGNARSPISIQFFLVAILFILFDLEIILLLPIPWSMNTNPTNTSTLMASTLLITLTLGLLYEWLQGGLEWAE'
p827
asS'gene'
p828
(lp829
S'ND3'
p830
asS'protein_id'
p831
(lp832
S'YP_002290799.1'
p833
assbag1
(g97
g3
NtRp834
(dp835
g100
(lp836
sg102
S''
sg103
g104
sg46
g1
(g48
g3
NtRp837
(dp838
g51
Nsg52
g1
(g53
g54
I10854
tRp839
sg56
g1
(g53
g54
I10791
tRp840
sg58
I1
sg59
Nsbsg109
S'tRNA'
p841
sg111
(dp842
S'anticodon'
p843
(lp844
S'(pos:10821..10823,aa:Arg,seq:tcg)'
p845
asS'product'
p846
(lp847
S'tRNA-Arg'
p848
assbag1
(g97
g3
NtRp849
(dp850
g100
(lp851
sg102
S''
sg103
g104
sg46
g1
(g48
g3
NtRp852
(dp853
g51
Nsg52
g1
(g53
g54
I11145
tRp854
sg56
g1
(g53
g54
I10854
tRp855
sg58
I1
sg59
Nsbsg109
S'gene'
p856
sg111
(dp857
S'db_xref'
p858
(lp859
S'GeneID:6993637'
p860
asS'gene'
p861
(lp862
S'ND4L'
p863
assbag1
(g97
g3
NtRp864
(dp865
g100
(lp866
sg102
S''
sg103
g104
sg46
g1
(g48
g3
NtRp867
(dp868
g51
Nsg52
g1
(g53
g54
I11145
tRp869
sg56
g1
(g53
g54
I10854
tRp870
sg58
I1
sg59
Nsbsg109
S'CDS'
p871
sg111
(dp872
S'product'
p873
(lp874
S'NADH dehydrogenase subunit 4L'
p875
asS'codon_start'
p876
(lp877
S'1'
asS'transl_table'
p878
(lp879
S'2'
asS'db_xref'
p880
(lp881
S'GI:209886948'
p882
aS'GeneID:6993637'
p883
asS'translation'
p884
(lp885
S'MEVIKTIMTLTLMIIILSLSMQQKHLMLALMCIETSMLLLYTLLVLYASSSMTLSQTPMSIITLTISVCGAAVGLSLVVSTTRAHGNDFLNNLNLL'
p886
asS'gene'
p887
(lp888
S'ND4L'
p889
asS'protein_id'
p890
(lp891
S'YP_002290800.1'
p892
assbag1
(g97
g3
NtRp893
(dp894
g100
(lp895
sg102
S''
sg103
g104
sg46
g1
(g48
g3
NtRp896
(dp897
g51
Nsg52
g1
(g53
g54
I12482
tRp898
sg56
g1
(g53
g54
I11144
tRp899
sg58
I1
sg59
Nsbsg109
S'gene'
p900
sg111
(dp901
S'db_xref'
p902
(lp903
S'GeneID:6993638'
p904
asS'gene'
p905
(lp906
S'ND4'
p907
assbag1
(g97
g3
NtRp908
(dp909
g100
(lp910
sg102
S''
sg103
g104
sg46
g1
(g48
g3
NtRp911
(dp912
g51
Nsg52
g1
(g53
g54
I12482
tRp913
sg56
g1
(g53
g54
I11144
tRp914
sg58
I1
sg59
Nsbsg109
S'CDS'
p915
sg111
(dp916
S'product'
p917
(lp918
S'NADH dehydrogenase subunit 4'
p919
asS'codon_start'
p920
(lp921
S'1'
asS'transl_table'
p922
(lp923
S'2'
asS'db_xref'
p924
(lp925
S'GI:209886949'
p926
aS'GeneID:6993638'
p927
asS'translation'
p928
(lp929
S'MMKIIFSTMALIPTTLLLKPKLLYPASTSYMFLLALFSLTLLEPKSNTIMNLDNISSPLLLLSFWLLPLMSIASQHTMAKEPVQRQRVFLATITLLQLFISMTFAAYSLTLMYIMFEATLIPTLILITRWGQQAERLTAGTYFMLYTLSTSLPLLTAIIFMNNLTMTPTLFIQMINPLDQWTALLLWLASLTAFLAKMPIFGLHLWLPKAHVEAPIAGSMVLAAILLKLGGYGMIRIMQVLPTLKTDMFLPFMVLSLWGAILANLTCLQQTDLKSLIAYSSISHMGLVIAAILIQTQWSLSGAMALMISHGFTSSALFCLANTTYERIHTRILTLTRGLHNILPMATTWWLLTNLMNISMPPTMNFTGELLIMSSLFNWCPATMIILGLSILITATYSLHIFLSTQMGPMSLNNSTEPSHSREHLLMLLHISPLILISMKPELVM'
p930
asS'gene'
p931
(lp932
S'ND4'
p933
asS'protein_id'
p934
(lp935
S'YP_002290801.1'
p936
assbag1
(g97
g3
NtRp937
(dp938
g100
(lp939
sg102
S''
sg103
g104
sg46
g1
(g48
g3
NtRp940
(dp941
g51
Nsg52
g1
(g53
g54
I12542
tRp942
sg56
g1
(g53
g54
I12481
tRp943
sg58
I1
sg59
Nsbsg109
S'tRNA'
p944
sg111
(dp945
S'anticodon'
p946
(lp947
S'(pos:12512..12514,aa:His,seq:gtg)'
p948
asS'product'
p949
(lp950
S'tRNA-His'
p951
assbag1
(g97
g3
NtRp952
(dp953
g100
(lp954
sg102
S''
sg103
g104
sg46
g1
(g48
g3
NtRp955
(dp956
g51
Nsg52
g1
(g53
g54
I12599
tRp957
sg56
g1
(g53
g54
I12542
tRp958
sg58
I1
sg59
Nsbsg109
S'tRNA'
p959
sg111
(dp960
S'anticodon'
p961
(lp962
S'(pos:12562..12564,aa:Ser,seq:gct)'
p963
asS'codon_recognized'
p964
(lp965
S'AGY'
p966
asS'product'
p967
(lp968
S'tRNA-Ser'
p969
assbag1
(g97
g3
NtRp970
(dp971
g100
(lp972
sg102
S''
sg103
g104
sg46
g1
(g48
g3
NtRp973
(dp974
g51
Nsg52
g1
(g53
g54
I12670
tRp975
sg56
g1
(g53
g54
I12599
tRp976
sg58
I1
sg59
Nsbsg109
S'tRNA'
p977
sg111
(dp978
S'anticodon'
p979
(lp980
S'(pos:12632..12634,aa:Leu,seq:tag)'
p981
asS'codon_recognized'
p982
(lp983
S'CUN'
p984
asS'product'
p985
(lp986
S'tRNA-Leu'
p987
assbag1
(g97
g3
NtRp988
(dp989
g100
(lp990
sg102
S''
sg103
g104
sg46
g1
(g48
g3
NtRp991
(dp992
g51
Nsg52
g1
(g53
g54
I14444
tRp993
sg56
g1
(g53
g54
I12671
tRp994
sg58
I1
sg59
Nsbsg109
S'gene'
p995
sg111
(dp996
S'db_xref'
p997
(lp998
S'GeneID:6993639'
p999
asS'gene'
p1000
(lp1001
S'ND5'
p1002
assbag1
(g97
g3
NtRp1003
(dp1004
g100
(lp1005
sg102
S''
sg103
g104
sg46
g1
(g48
g3
NtRp1006
(dp1007
g51
Nsg52
g1
(g53
g54
I14444
tRp1008
sg56
g1
(g53
g54
I12671
tRp1009
sg58
I1
sg59
Nsbsg109
S'CDS'
p1010
sg111
(dp1011
S'product'
p1012
(lp1013
S'NADH dehydrogenase subunit 5'
p1014
asS'codon_start'
p1015
(lp1016
S'1'
asS'transl_table'
p1017
(lp1018
S'2'
asS'db_xref'
p1019
(lp1020
S'GI:209886950'
p1021
aS'GeneID:6993639'
p1022
asS'translation'
p1023
(lp1024
S'MDLITPTIILAIFFSLTLSIIKPSRPKDMKYTLALMFTISLIPLNSLLSHNNELTISILPLIITPTENINITILLDTLSLMFIPMALFITWSIIEFSIWYMSTDPNINKFIKYLIIFLITMMVIITSNNMYQLFIGWEGVGIMSFLLIGWWNSRSNANTAALQAIIYNRIGDVGLIFSTTWLITFSSMNFQELLIQYELPSIIPSIGLMAAAMGKSAQFGLHPWLPAAMEGPTPVSALLHSSTMVMAGVFLLIRLYPILHNNHDMKMTCLIIGAVTTMFAAAAATTQHDIKKIIALSTTSQLGLMMTMLGLGQPILAFLHMTLHSFFKALLFLCSGSFIHNLNNEQDLRMTGNLLKTMPMTSSFTIIASLSLMGMPFLSGFYSKDTMIEIMMNSYMNSWALMITLLATALSAAYSMQIILLILTGPSRTNPYYHKETKNIIPPLTRLTLLTIFIGSVTKLSTLQLTPTLTMPMITKLMALLMMILGITMSKDLSFINQPMPPQKPQTTNSLFDQLAFSNIPHRSMSAWMLKSGQQMSTELLDLWTLENYGPKGLSKTITQLILLSTQQKNMIKNYMSTFTFTLLILLILT'
p1025
asS'gene'
p1026
(lp1027
S'ND5'
p1028
asS'protein_id'
p1029
(lp1030
S'YP_002290802.1'
p1031
assbag1
(g97
g3
NtRp1032
(dp1033
g100
(lp1034
sg102
S''
sg103
g104
sg46
g1
(g48
g3
NtRp1035
(dp1036
g51
Nsg52
g1
(g53
g54
I14963
tRp1037
sg56
g1
(g53
g54
I14444
tRp1038
sg58
I-1
sg59
Nsbsg109
S'gene'
p1039
sg111
(dp1040
S'db_xref'
p1041
(lp1042
S'GeneID:6993640'
p1043
asS'gene'
p1044
(lp1045
S'ND6'
p1046
assbag1
(g97
g3
NtRp1047
(dp1048
g100
(lp1049
sg102
S''
sg103
g104
sg46
g1
(g48
g3
NtRp1050
(dp1051
g51
Nsg52
g1
(g53
g54
I14963
tRp1052
sg56
g1
(g53
g54
I14444
tRp1053
sg58
I-1
sg59
Nsbsg109
S'CDS'
p1054
sg111
(dp1055
S'product'
p1056
(lp1057
S'NADH dehydrogenase subunit 6'
p1058
asS'codon_start'
p1059
(lp1060
S'1'
asS'transl_table'
p1061
(lp1062
S'2'
asS'db_xref'
p1063
(lp1064
S'GI:209886951'
p1065
aS'GeneID:6993640'
p1066
asS'translation'
p1067
(lp1068
S'MFFMECVVYLVLVFVVFSVVVLGIVVMPYHGVVSMMGVSFLCCVIMVVIGRTYAALVMYIVYLGGLIVVFGYCVSVEKGSEVIMGISGVWYFLIIVSIGVVVGVLMIVFEGIQDLLVYTNWEDWVGLEVNGCSVFYFHGGVGLMICAWGLVVPLFTVLVVLDWSCKGGVRPF'
p1069
asS'gene'
p1070
(lp1071
S'ND6'
p1072
asS'protein_id'
p1073
(lp1074
S'YP_002290803.1'
p1075
assbag1
(g97
g3
NtRp1076
(dp1077
g100
(lp1078
sg102
S''
sg103
g104
sg46
g1
(g48
g3
NtRp1079
(dp1080
g51
Nsg52
g1
(g53
g54
I15025
tRp1081
sg56
g1
(g53
g54
I14963
tRp1082
sg58
I-1
sg59
Nsbsg109
S'tRNA'
p1083
sg111
(dp1084
S'anticodon'
p1085
(lp1086
S'(pos:complement(14993..14995),aa:Glu,seq:ttc)'
p1087
asS'product'
p1088
(lp1089
S'tRNA-Glu'
p1090
assbag1
(g97
g3
NtRp1091
(dp1092
g100
(lp1093
sg102
S''
sg103
g104
sg46
g1
(g48
g3
NtRp1094
(dp1095
g51
Nsg52
g1
(g53
g54
I16139
tRp1096
sg56
g1
(g53
g54
I15025
tRp1097
sg58
I1
sg59
Nsbsg109
S'gene'
p1098
sg111
(dp1099
S'db_xref'
p1100
(lp1101
S'GeneID:6993641'
p1102
asS'gene'
p1103
(lp1104
S'CYTB'
p1105
assbag1
(g97
g3
NtRp1106
(dp1107
g100
(lp1108
sg102
S''
sg103
g104
sg46
g1
(g48
g3
NtRp1109
(dp1110
g51
Nsg52
g1
(g53
g54
I16139
tRp1111
sg56
g1
(g53
g54
I15025
tRp1112
sg58
I1
sg59
Nsbsg109
S'CDS'
p1113
sg111
(dp1114
S'product'
p1115
(lp1116
S'cytochrome b'
p1117
asS'transl_except'
p1118
(lp1119
S'(pos:16139,aa:TERM)'
p1120
asS'codon_start'
p1121
(lp1122
S'1'
asS'transl_table'
p1123
(lp1124
S'2'
asS'note'
p1125
(lp1126
S"TAA stop codon is completed by the addition of 3' A residues to the mRNA"
p1127
asS'db_xref'
p1128
(lp1129
S'GI:209886952'
p1130
aS'GeneID:6993641'
p1131
asS'translation'
p1132
(lp1133
S'MSHHHILKPFNLLPVGSNISTWWNFGSMLLACLIIQTMTGFFLAIHYTANINLAFSSIVHITRDVPYGWIMQNSHAIGASLLFVCIYMHIARGLYYGSYLNKEVWLSGTTLLIILMATAFFGYVLPWGQMSFWAATVITNLLTAIPYLGTSLTTWLWGGFSINDPTLTRFFALHFILPFIIISLSSIHILLLHHEGSNNPLGTNSDIDKIPFHPYHSYKDSLMLTMLITAMLIILSFDPNMMNDPENFSKANPLVTPQHIKPEWYFLFAYGILRSVPNKLGGTLALIMSITILLTSPFTHTSTTRSMMFRPLMQLTFWTFTTIVIIITWTATKPVETPFTEISQLASILYFMFFISNPLLGLLENKISNYS'
p1134
asS'gene'
p1135
(lp1136
S'CYTB'
p1137
asS'protein_id'
p1138
(lp1139
S'YP_002290804.1'
p1140
assbag1
(g97
g3
NtRp1141
(dp1142
g100
(lp1143
sg102
S''
sg103
g104
sg46
g1
(g48
g3
NtRp1144
(dp1145
g51
Nsg52
g1
(g53
g54
I16206
tRp1146
sg56
g1
(g53
g54
I16139
tRp1147
sg58
I1
sg59
Nsbsg109
S'tRNA'
p1148
sg111
(dp1149
S'anticodon'
p1150
(lp1151
S'(pos:16176..16178,aa:Thr,seq:tgt)'
p1152
asS'product'
p1153
(lp1154
S'tRNA-Thr'
p1155
assbag1
(g97
g3
NtRp1156
(dp1157
g100
(lp1158
sg102
S''
sg103
g104
sg46
g1
(g48
g3
NtRp1159
(dp1160
g51
Nsg52
g1
(g53
g54
I17246
tRp1161
sg56
g1
(g53
g54
I16206
tRp1162
sg58
I1
sg59
Nsbsg109
S'repeat_region'
p1163
sg111
(dp1164
S'note'
p1165
(lp1166
S'control region; may include an origin for replicating the heavy strand'
p1167
assbag1
(g97
g3
NtRp1168
(dp1169
g100
(lp1170
sg102
S''
sg103
g104
sg46
g1
(g48
g3
NtRp1171
(dp1172
g51
Nsg52
g1
(g53
g54
I16268
tRp1173
sg56
g1
(g53
g54
I16248
tRp1174
sg58
I1
sg59
Nsbsg109
S'misc_feature'
p1175
sg111
(dp1176
S'note'
p1177
(lp1178
S'C-rich sequence'
p1179
assbasS'_seq'
p1180
g1
(cBio.Seq
Seq
p1181
g3
NtRp1182
(dp1183
S'alphabet'
p1184
g1
(cBio.Alphabet.IUPAC
IUPACAmbiguousDNA
p1185
g3
NtRp1186
sS'_data'
p1187
S'GTTGCTGTAGCTTAAAATAAAGCATAGCATTGAAAATGCTAAAATGGCCACCACCCATCAACACAAAGTCTTGGTCTTAAACCTCATATTGTCTAAATATTTGTTTATACATGCAAGCCTCTTCATAACGGTGAAACAGCCATACAAACCATATTGAGCTGATATCAGCTACAAGCAATGACATCAAGCATAAGCCACACCCCCACGGGCACACAGCAGTAGTTAATATTAGGCCATAAGTGTAAACTTGACCTAGCAAAATATATCTAGAGCCGGTTAATCTCGTGCCAGCGACCGCGGTTATACGATAGGCTCAGGACAATATAAACGGCGTAAAGCACGACTAAAATAAAGTACAATCCTTAGGATAGAAACCAACCCAGGCTGTAAAAAGCCATAAGCTTTAATAATTCATCCTAAGCCTAAACTCTTTTAACTCGATAAAGCCGGGACATAAACTAAGATTAGATACCTTACTATACCCTGCCACAACACACAATTAAAGTACTAATTGTTCGCCAAACAACTACGAGTAGTAACTTAAAACTTAAAAGACTTGACGGTGCTTCACCACAACCTAGAGGAGCCTGTCCATAACCGACAACCCACGATTAACCCCACCCTCTCTCGCCAACAGTCTATATACCACCGTCATAAGCTTACCTTGTAAAAGAAACAAAATGAGCTAAATAGCACTACGCTAAAACGACAGGTCGAGGTGTAACCCATGAGAGGGCAAAGATGGGCTACATTCTCCTACAGAGCATACGAATAACACTATGAATATAGTGACTGAAGGTGGATTTAGTAGTAAGATAGGAATAAAATACCAAACTGAACATAAAGCAATGAAGTGCGTACACACCGCCCGTCATCCCTGCCCATATATAACTAATCTACATAAACCCCTCCCAATACTTACCCAGGGCAAGTCGTAACATGGTAAGTGTACTGGAAAGTGCACTTAGAAACAAAAAGTAGCTTACACAAAGCATTCGACCTACACTCGAAAGACATTCTTACAATCTTTTTGAGCTGACTATACAACCAATCACAAACATATATTTACCCACCAAACAAACCATTTGATAAACCTAGTAGTTGTGATCGAACAGTAAACAGTCAAAACAAAGTACCGCAAGGGAAACCCCCCAAGCAACTAACAGCAAAGATTAACCCTTGTACCTTTTGCATCATGGTTTAGCAAGATAATCAGGGCAAGAAGACTCACAGCCCCTTCCCCGAAACCGGATGAGCTATTTTCAAGCAGTCTAATGGACCCATCCGTCTCTGTAGCAAAAGAGTGGAAAGACTTAAAAATAGAAGTGAAACGCTTACCGAATCCGGAGATAGCTGGCTACCCCAAATAGAATCTAAGTTCTACTTTAGATTAAAATTATACCTAGTTATTAACTAAAGTAAATCAATAGAGGTACAGCCCTATTGATACAGGATACAACCTTAATTTGAAAGATAATTTTTCTACCTCCTCCCCGTAGGCCTTAAAGCAGCTACCCATAAAAATATCGTCAAAGAATTACTCAATATAAACCCATAATTAAAACCACCCTTCAAAATCACTAAAGGTGAACCTACCTAAGTAGGTACCATTATGCTAAAACTAATAATATGACTACATCTCTCAACGCATCCCTCCACTAGACACAGAAAATCTACTAGTCATTAACAGACCATAAGAGGTAAAAAACCAACCAATATCCACCTTTAATACAACTGTGACCCCAACACAGGGGCGTTAAAAAGAAAGATTAACCGTTATAAAAGGAACTCGGCAACCATGGACTCCAACTGTTTAACAAAAACATTACCTTTAGCTAAAACAAATATTAAAGGCAACGCCTGCCCAGTGAATAATTAAACGGCCGCGGTATCCTAACCGTGCAAAGGTAGCATAATCATTTGTCTATTAATCGTAGACTCGTATGAATGGCAAAATGAGAGCCCGACTGTCTCTTATAACAAATCAATTAAACTGATCTCTCAGTACAAAAGCTGAGATTCTCACATAAGACCAGAAGACCCTGTGAAGCTTTAACTAAACTATTAAACCCCTTAATAACTATGTTTCGGTTGGGGCGACCTTGGAACAAAAAAGAACTTCCAAATACATGACCTTCTCACACCAAGGCAAACAAGCCACATTTAGACCCAGAACTTTCTGATAAATGAACCAAGTTACTCCAGGGATAACAGCGCTATCTTCTTCAAGAGCCCATATCAAAAAGAAGGTTTACGACCTCGATGTTGGATCAGGACATCCTAGCAATGCAACCGTTACTAAGGGTTCGTTTGTTCAACGATTAATAGTCCTACGTGATCTGAGTTCAGACCGGAGCAATCCAGGTCAGTCTCTATCTATGAATAGCCATACCTAGTACGAAAGGACCGGCATAGCAAAGCCTATACTCAAAGCACGCTTTAACCACAAAATATAATTAAATATTAAACCATTTAACACCATAACCTAGACCAGGTTAATTAAGGACCATACCCTTAATAATTACAACAATACTTAACATCATCAACCCCTTTCTCTACATCCTCCCCATTCTTATTGCAGTAGCCTTTCTTACCCTACTCGAACGTAAACTCTTAGGGTATATACAGCTACGAAAAGGACCCAACCTAGTAGGTCCTATAGGTCTTCTCCAACCCATTGCAGACGGTCTAAAACTAATCATTAAAGAAGCATCAAAGCCCTCCATATCATCACCTATCCTATTCACCGCTTCCCCCATCATAGCTCTATCCTTATCATTAATCTCATGAACACCTCTCCCCATACCAACAGCATTAGCTAACATAAACCTAGGCCTTATATTCATCATAGCCATATCCGGCATATTTACATACGCCATTCTATGATCTGGGTGATCTTCAAATTCAAAATACCCCTTAATAGGAACAATCCGGGCTGTATCACAAATTATCTCCTACGAGGTGACCCTAGGACTAATCATCATCTCAATAGCCACTATTTCAGGTAACTACTCTCTATTCTCCTTCATAGAAACTCAAGAACACCAATGACTAATTCTAGCATCATGACCCCTAGCCATGATATGATTTACATCCACCCTAGCAGAAACCAACCGTGCACCTTTCGACTTAACAGAGGGAGAGTCCGAACTAGTCTCAGGCTTCAACCTAGAATTCTCAGCAGGACCATTCGCCCTCTTATTCCTAGCAGAATATTCAAATATCCTTCTAATAAACACTATCACCGTCATAATTTTTATAAACCCAGGAACCTCTAACCTAGAGCTATTCACAATTAACCTTATAACAAAGACAATCATCCTTACATCCCTATTCCTATGAATTCGCGCCTCATACCCACGCTTTCGATACGACCAACTCATACACCTTCTATGAAAACAATACCTCCCACTCACCTTATCCCTATGCCTTCTTAACCTATTTACCACATCTACATTTTATGGGACACCCCCCCAATGGAAGCGTGCCTGAAAAAGGACTACCTTGATAGAGTAGACATGGGAACCACAAACCCCGCTCCCAAACAAAGAGACACCACCCCAGCAGTACTCCTACTTTAAACCACTCTTTGTAAAAAATAACTCCTAGGACGACCCCCCCCTACCCCCCCCAGCCTCAAAAAGGGATACCCACCTCTGGCCCCCAAAGCCAGTATTCTTACTTAAACTACTCTTTGTAAAAAATAACTCCTAGGACGACCCCCCCCCTACCCCCCCCCACAAATTTAACCCGAAAATCGACTATATATGTACCTCTTCATATACATGTCCTATTTATTGCTATGTATAATAATACATTAATCGTTTTGCCCCATGGATAATAAGCCGGAAATAAACTTTAATTATTTATATAGTAATCTGGTTCATTAACATATTATTCCTAGCCCCATTTTCTGGTCGTTCCATTAATAAAGGTTGAATATTATTAATAACCATGACTATCCTGATCAAACCGGTGTCCCATGATTTAACCCTTCCCGTGAAACCCTCTATCCTTCCACTTCAAGCACACAGTCCTGCTTTTCACGTCCATATATTGTAACTCCTCCCATTATGCCCTTTAACAGGCCACTGGTTACACCTTCAAGTTCATCTCAACGGTCCGGAACCACCCCTCCCTACTAGCTTTTTCCAAGGCCTCTGGCTTCACCCCTTATCCTGGTGCATTCTGCCTCATGTTCTGATCACGTATGCCTGTTCCACCCCTGGTTGCCTTTTTTTATCTGTGGCTTTCATCTGACACCCATCTATGCTCGTTACCGGTCACCCCTTAATCGGGGATGTAATGCTATTAGTCCAGGTGGAGCCCTACCCTTGGTCGTGCACTTTTCCCTAGAGGGATACATTTCCTTAATGCTTGTCTGACATACTTTTTTAGAGACTTAAAAATATCATTATTTTTATTATAAAATTCCCGTTCGAAATTAAAAATTTCACCAATTTTTTAAAATTTTACCAAAATCAATACCACTTTTCCATACTAAAAATACAAACCCAAAATCCTATAGTAAATTATTTTTTTAGAAACACTTTTTATGCATTTTACCCGACCTACATTATAAAAAACACGAAGTAATTTTCACTAACCCGGTATATGACTTCTTTTTTTTTTTCGCCAATTCATGAGTGCAATCACCTGCAATAAGACACAGCCAACTTTGCCTATATTTCACTTACTCCCCGAATTTCCATATATTAAGGTAGCAAAGCACGGCCATGCAACAGGCTTAAAACCTCAACACAGATGTTCAAATCATCTCCTTAATACTAGAAAATCAAGACTCGAACTTGAACCTAGAAGCTCAAAACTTCTAATACTACTCTATAATATTTTCTAAGTAAAGTCAGCTAACAAGCTATCGGGCCCATACCCCGAAAATGTCCATCAGACCTCTACTAATTAACCCCACATCATGAACTATAATTACCATAAGCATCTTCATAAGCACCACCCTAATCACTATAACAACACACTGACTAATAGCCTGAACATGCCTAGAAATTAACACCCTCTCCATAATCCCTATTATTTCACGAACTAACCACCCTCGGGCAACAGAAGCAACAACAAAATACTTTCTCACACAAACCTTAGCCTCTATTACTATCCTATTCACAACAACATTAAATGCCCTAAACACCTCCAACTGAGAAATCAGCCTTACAACAGAACCAACAACAATAAAAATCATCACCCTAGCACTAATAATAAAAATAGCTGCAGCACCATTCCACTTCTGATTACCAGAAGTAGTTCAAGGCGCTACTACTCTCACTGCCCTAACAATTCTAACCTGACAGAAAATTGCCCCTCTCACAATTCTATTAACCTGCCACTCCAACACAAACCTTACAATTCTAACCTCATCAGCAATCCTATCTATCCTAATCGGAGGACTCGGTGGCCTTAATCAAACCCAAATACGTAAACTAATAGCCTTTTCATCAATCGCCCACACTGGATGAATTCTAGCTACCATTACCTTAGCACCAAACATCTCCACTTTAACCTTCATAATCTACACAATAACCACAATACCTATTTTTCTCATAATAAACCTTCTATCATGTACTACAATCAAGGATATAGGAACCACATGACCCACTTCCCCCTACCTCATAACAGCTATACTCCTTACAATCCTATCCCTTACAGGTCTTCCTCCACTTACAGGATTCATACCAAAATGACTTATTCTAAATAAAATAATCGCCCTAAACATAACCCTAGAAGCCATCCTAATAGCCATATTCTCCCTACCAAGCCTATACATATACCTACGACTCACATACATCTTAGCCATAACTATACCTCCCCACCCCTCATCTATATTAATAAAATGACGACTAACCAACAAAAACTATACCATACTCCCACTCACCATAACAACTATAATAATACTTCTTCTTCCCCTCTCACCAAGCCTATAGAAACTTAAGTTATATAAACTAGAGGCCTTCAAAGCCCCCAAAAAAGTCACTTTAGTTTCTGTAGAGTTTGCAGCCTCACTACATCTTCTGATTGCAACACAGACATTTTAACTAAACTAAAACTCTCTAGACTAGTAGGCCTCGATCCTACAAAAAACTAATTAACAGCTAGTCACCCAAACCGACGGGCTTTAATCTACTTCTCCGTTTTTGGCCGGGGAGAAAAAACGGAGAAGCCCCGGGCAACTGCCGGAGGTCAGATTTGCAGCCTGACATTATCGGGGCCTGGTAGCAAGTATTACCTATGTGTAAATTTACAGTTTACCGCTTTAATCAGCCATACTACCTGTGTTAATCACCCGTTGATTATTCTCAACAAACCACAAAGATATCGGAACCCTATATTTAATATTTGGCGCTTGATCTGGGTTAGTCGGAGCCTGCTTAAGCATCCTGATACGAATAGAGCTTACTCAGCCTGGATCCTTATTTGGTAGTGATCAAATCTTTAACGTTCTAGTAACCGCACACGCCTTCATCATAATTGTCTGCATAGTAATACCAATTATAATCGGAGGTTTTGGTAACTGATTAATCCCACTTATAATCGGCACTCCCGATATAGCTTTCCCACGTATAAATAATATAAGTTTCTGACTTCTACCCCCAGCACTTCTCCTACTCCTATCCTCTTCTTATATAGAGGCCGGTGCCGGGACAGGGTGGACTGTCTATCCACCACTATCAGGAAATCTAGTTCACTCTGGCCCATCAGTAGATCTGGCGATCTTCTCACTTCACCTCGCCGGAGCCTCATCAATCTTAGGGGCAATTAACTTCATTACCACATGCATTAACATAAAACCTAAATCAATACCAATATTTAACTTCCCTCTATTTGTTTGGTCCGTTATAATCACTGCCATCATACTACTTCTAGCCCTACCTGTTCTTGCAGCAGCAATTACTATGCTATTAACAGACCGAAATCTTAATACTTCCTTCTTCGATCCTTGTGGTGGAGGTGACCCTGTCCTATTCCAACACCTGTTCTGATTCTTTGGCCACCCAGAAGTCTATATCTTAATCTTACCAGGCTTTGGGATTGTATCCAGCATTATTACCTTCTATACAGGAAAAAAGAACACATTCGGATACACCAGTATAATCTGAGCAATAATATCCATTGCAATTCTTGGGTTTGTAGTATGAGCCCACCATATATTCACCGTCGGATTAGACATTGATAGCCGTGCCTACTTCACAGCGGCTACGATAATCATCGCAATCCCAACTGGTATCAAAGTGTTCGGATGATTAGCCACACTAACCGGAGGTCACATTAAATGACAAACCCCAATTTACTGAGCCCTAGGGTTTATCTTTCTATTTACTGTCGGCGGAATAACAGGAATCATTTTAGCTAATTCATCCTTAGATATTGTTCTTCACGACACCTACTATGTCGTAGCACACTTTCACTACGTATTATCCATAGGAGCAGTATTCGCCATTATGGGAGGACTCACCCACTGATTCCCCCTCTTTACTGGCTATTCTCTTAACCAAACGCTAACTAAAACTCAATTCTGAGTAATATTTCTAGGGGTTAATATGACTTTCTTCCCTCAACACTTTTTAGGGTTATCCGGTATGCCTCGCCGTTACTCAGATTTCCCTGACGCCTTCTCCCTATGAAATACAGTCTCTTCAATTGGCTCTACCATCTCTCTCATTGCCGTTCTTATATCTCTCTTCATTGTATGAGAAGCAATAACCTGTAAACGTAAACCTATAATTCAATTAGGTAAAAAAACCCATATTGAATGATTATACGGAACTCCCCCACCATACCACACCCACACAGAACCAACCTTCACTCCAAACAATTCATATGCCCCCATCCGAGAACATATATCAAACATACAATGACCTTGACCCGAGAAGAGACAGACTTAATCTGCCACCTATTAATTTCAAGTTAATCGCACACTTATGCTATCCTCCCAAGAGCCTAGTAAACATTATTACATGACTTTGTCATAGTCAAATCACAACATTTGTGGCTCTTAATGCCATACGCAGCCCAACTATCCCTCCAAGAAGCCATAGGCCCCACAATAGAAGAAGTTGTATTTCTTCACGATCATGTCTTACTACTTACCTGTTTAATAACTATAGTAATTTTAATATTCACTATCACTGCAACTATAACTACATTAACACACAATGACCCATCTGAAGAAGTTGAACAACTAGAAGCAGCATGAACAGCTGCCCCAATTATAATTCTTATTTTAACCGCCCTTCCCTCAGTACGATCCCTCTATTTAATAGAAGAAGTATTTGACCCCTATCTAACCATTAAAGCTACCGGCCACCAATGGTACTGAAACTACGAATATTCAGATGAAATCCATATCTCATTCGATTCCTATATACTTAAAACACAAGATCTACAAAACGGATCACCCCGACTACTAGAAGTTGACCATCGCATAGTAATACCGGCGGGCCTACAGACTCGAATTGTTGTAACCGCAGAAGATGTTCTCCATTCATGAGCGATTCCATCCCTAGGGGTCAAAGTTGATGCTATCCCTGGACGATTAAACCAAATTCCTCTAGCAACCTCCCGAACAGGTGTATTCTTCGGACAGTGCTCAGAAATCTGTGGAGCAAACCATAGCTTTATACCCATCGCAATTGAAGCCATCCCTCTATTCTACTTCGAACAATGATTGTCCTCAGAACAATCACTAAGAAGCTTATACAGCATCAACCTTTTAAGTTGGAGAGGAATCATTGTTCCTTAGTGAATGCCCCAACTAGATATTGTTTATATTTGCTATACTTATTTATGAACCTGATTTATCATCACCCTTATATCACAAAAAATAGACCTATTCAAACTCACTATTAAACCAAAATATCCTTTCCTTATAAAACACCAACTGAGCACATCAACCCTACCATGAACATAAACATATTTGAACAATTCACAAGCCCAGAGTTAATCTCTATCCCCACAGCACCAATTTCCTTACTAATCATTACTCTACTGGTATTCCATAAACCTAAGCTCCTTAGTAATCGCACAACAATCTTCATAGTCTGACTCCTAAAAATATTCATACTTAACATAATAAATCAACTCACCCCAAAAGGACAAAAATGAGCCCCTATTCTTACAAGCCTATTCCTAATAATCCTCCTATCAAACCTTATAAGCTTATTACCATATACTTTCACATCAACCTCCCAACTATCTATAAACATAGCTATAGCTGTCCCCCTCTGACTAGCTACTGTCATCCTAGGCTTAAAAGACAAACCATCAATCTCACTAGCCCACCTTCTCCCGGAAGGCTCACCTACCCCTCTAATCCCATTTATGATTATAATTGAAACAGTTAGTCTTTTAATACGCCCTATAGCACTCGGAGTACGACTTACGGCCAACATTACAGCTGGTCACCTTCTTATAACGATAGTAAGCTCCGCTACTATTAACATTATCAATATCTATATCTCTGCAAGCTCACTAATACTAATTCTCTTGTTCCTTCTTACACTCCTAGAATTAGCAGTAGCCTGTATCCAAGCTTACGTCTTTGTTCTATTAACTATTCTTTATCTCCAAGAAAACTCATAATGACCCACCAACTCCATCAATATCACATAGTAGACCCAAGCCCATGACCCCTTACAGGCGCAATAGGCTCACTACTTATAGCCTCAGGATTAGCCCTATGATTTCACACAACTTCAACAATTGTTTTAAAACTAGGCCTATTAGTCACCTTTCTAACCCTTATCCAATGATGACGCGATGTTGTACGAGAAAGTACTTACCAAGGCCACCATACTATAGGGGTTCAAAAAAACATACGATACGGGATAATCCTATTTATCACATCAGAAGTATTCTTTTTCCTGGGGTTTTTCTGAACCCTATACCATGTCAGCCTAGTACCCACTCCGGAGCTAGGTGCAGAATGACCGCCCACTGGAATCTCCCCATTAAACCCTATAGATGTACCTCTCCTTAATACCGCAGTGTTACTATCATCTGGAGCAACAATCACCTGATCACACCATACTATAATAAAAGGAAATAAAAAAGAAGCTACCTATGCACTATTAATCACCATTATCCTTGGTATTTACTTCACAGCCCTTCAAGTATCAGAATATATAGACACCCCATTTACTATCTCAGATAGCGTCTATGGGTCATTATTCTTTGTAGCTACAGGCTTTCACGGCCTTCACGTTATAATTGGAACTTCCTTCCTACTTATCTGCCTAATTCGCCTCATTAAATACCATTTTACAACTACCCACCACTTCGGATATGAAGCAGCAATTTGATACTGACATTTTGTAGATGTTGTATGACTATTCCTATATATTTCAGTATACTGATGAGGCTCATATTTCTTTAGTATATCAGTATAAATGCCTTCCAAGCATTAGGTCCCACGGGAAGAAATAATAAGCCTTCTCATCTTCATCATCCTAGCCATAGCAACATCAATCCTCCTATATATCATCAATACCTATGTACCAACAAAACCAGATATTAATAAACTATCTCCTTACGAGTGTGGCTTTGACCCGTTAGGTAACGCACGCTCCCCTATCTCTATTCAATTTTTCCTAGTTGCAATCCTATTTATTCTATTTGACCTAGAAATTATCTTACTCCTACCCATCCCATGAAGTATAAACACAAACCCAACAAACACTTCCACCTTGATAGCTTCAACCCTTCTAATCACCTTAACACTAGGACTTCTATATGAATGACTTCAAGGCGGCCTAGAATGAGCAGAGTGTTGGGGTAGTCTATTTAGATATTTGATTTCGACTCAAAAGAACTTACCTGTAAGCCCCAATAATGGAAGTAATTAAAACTATTATAACTCTAACTCTAATAATCATTATCCTAAGCCTGTCTATACAACAAAAACATCTCATACTAGCACTAATATGCATTGAAACCTCAATATTACTTCTATACACCTTATTAGTATTATACGCCTCTTCCTCCATAACCCTATCACAAACTCCTATATCAATCATTACCCTCACCATCTCCGTATGCGGAGCAGCTGTAGGCCTCAGTCTAGTAGTCTCAACTACACGAGCCCATGGGAATGATTTTCTAAATAACCTTAATCTTTTATAATGATAAAAATTATTTTTTCAACTATAGCCCTTATCCCAACCACCCTCCTCCTAAAACCTAAACTTCTATACCCAGCCTCAACCTCCTACATATTCTTACTAGCGCTATTTAGCCTAACTCTATTAGAACCTAAATCAAACACTATCATAAACTTAGACAACATCTCATCGCCTCTTCTATTACTATCATTCTGATTACTACCTTTAATATCTATTGCTAGCCAACACACAATAGCTAAAGAACCCGTTCAACGACAACGAGTATTTTTAGCAACTATTACCCTACTACAACTCTTTATCTCTATAACATTCGCAGCATACAGCCTTACTCTCATGTATATTATATTTGAAGCTACCCTTATCCCTACTCTAATTCTCATCACACGATGAGGACAACAAGCCGAACGACTAACAGCGGGTACATACTTCATACTCTACACCCTATCCACCTCTCTCCCTCTATTAACAGCTATCATCTTCATAAACAATTTAACTATAACCCCTACCCTCTTTATCCAAATAATTAACCCACTAGATCAATGAACAGCCCTACTTCTCTGACTAGCTAGCCTGACCGCATTTTTAGCAAAAATACCTATCTTTGGGCTCCACCTTTGACTTCCAAAAGCTCATGTAGAAGCCCCAATTGCCGGATCCATAGTATTAGCAGCAATCTTATTAAAACTAGGGGGATACGGCATAATCCGAATTATACAAGTCCTGCCAACACTCAAAACCGACATATTCCTACCATTCATAGTCTTATCCCTATGAGGGGCAATCCTAGCAAACTTAACATGTCTTCAACAGACAGACCTAAAATCTCTTATTGCCTACTCCTCTATTAGCCACATAGGCCTAGTAATTGCTGCTATCCTGATTCAAACCCAATGAAGCCTGTCAGGAGCTATAGCCCTGATAATCTCACACGGCTTTACTTCCTCAGCACTCTTTTGCCTAGCTAACACTACCTATGAGCGTATCCATACCCGTATTTTAACCCTTACACGAGGCCTACACAATATCCTTCCAATAGCCACAACCTGATGACTATTAACTAATCTAATAAATATCTCCATACCACCAACAATAAACTTTACAGGAGAACTTCTAATTATATCTTCATTATTCAACTGATGTCCGGCAACAATAATCATTCTAGGCCTATCTATTCTAATCACCGCTACCTACTCCCTACATATCTTTCTATCCACACAAATAGGACCAATATCATTAAACAACTCAACAGAACCATCCCACTCACGAGAACACCTTCTCATACTCCTTCATATCTCCCCATTAATCCTTATCTCCATAAAACCAGAACTAGTTATAAGGTGTGTGTAATTTAAAAAAAATGTCAAGCTGTGACCTTGAAAATAGTTATTCTCACACACCGAGAGGTAAAAAAAGACCTGCTAAATCTTTAATCTGAAGTAATTATCAGCCCTCTCTTCTACCAAAGGATAATAGAACTCCGTTGGTCTTAGGCACCAAATCTCTTGGTGCAAATCCAAGTGGTAGAATATGGATCTTATTACACCAACAATTATCCTAGCTATCTTTTTCTCCCTAACTTTATCAATTATTAAACCCTCTCGCCCCAAAGACATAAAATACACTCTAGCACTTATATTCACAATTAGCTTAATCCCCCTAAACTCGCTGCTTAGCCATAACAATGAACTTACCATTTCAATCCTACCCTTAATTATCACTCCAACAGAAAACATTAACATCACTATTCTACTAGACACACTATCTCTAATATTTATCCCAATAGCACTATTTATCACCTGATCCATCATTGAATTTTCTATCTGATATATATCAACCGACCCAAATATCAATAAATTTATTAAATACCTAATCATTTTTCTAATCACAATAATAGTAATTATCACGTCTAACAACATGTATCAACTCTTTATTGGTTGAGAGGGGGTAGGAATCATATCATTCCTTCTAATTGGCTGATGAAACTCACGATCAAACGCTAACACAGCCGCCCTCCAAGCAATTATCTACAATCGAATTGGGGATGTGGGTTTAATCTTTTCTACCACCTGACTTATCACTTTCTCCTCAATAAATTTTCAAGAACTCCTTATCCAATACGAACTCCCTAGCATCATCCCATCAATTGGCTTAATAGCAGCAGCTATGGGTAAATCTGCACAATTTGGCCTACATCCATGACTACCTGCAGCCATAGAAGGCCCTACACCAGTATCAGCTCTACTCCACTCAAGCACCATAGTCATAGCAGGGGTCTTCTTATTAATCCGCCTATACCCCATCCTTCACAACAATCATGATATAAAAATAACCTGCCTAATTATCGGAGCAGTCACAACCATGTTTGCTGCAGCCGCAGCAACTACACAACATGACATTAAAAAAATTATCGCACTATCCACCACTAGCCAACTAGGCCTAATAATAACTATGCTCGGCCTAGGTCAACCAATCCTTGCCTTTCTCCACATAACCCTCCACTCATTCTTCAAAGCACTCCTATTCCTATGCTCAGGATCATTCATCCACAATCTAAACAACGAACAAGACCTACGAATAACTGGTAACTTACTTAAAACTATACCAATAACCTCATCATTTACCATCATCGCAAGCCTTTCACTAATAGGAATACCCTTTCTGTCAGGCTTTTACTCAAAAGATACCATAATTGAAATTATAATAAACTCTTACATAAACTCCTGAGCTCTAATAATCACCCTATTAGCTACAGCCCTATCCGCTGCTTACAGCATACAAATTATCCTCCTAATTCTAACAGGACCATCACGCACCAACCCCTACTATCATAAAGAAACAAAAAACATTATTCCCCCCCTAACCCGCCTCACCTTGTTAACTATCTTCATTGGTAGTGTAACAAAGCTTTCAACACTACAACTTACACCAACTCTTACAATACCAATAATTACTAAACTCATAGCCCTGCTTATAATAATCTTAGGTATTACCATATCAAAAGACCTATCCTTCATCAATCAACCAATACCCCCCCAAAAACCACAAACAACCAACTCCTTGTTTGATCAATTAGCCTTTTCCAACATCCCTCACCGATCAATATCTGCCTGAATACTTAAATCTGGTCAACAAATATCAACAGAACTACTAGACCTATGAACCCTAGAAAACTATGGACCTAAGGGCCTTTCCAAAACTATTACCCAACTAATTCTCCTTTCAACACAACAAAAAAATATAATCAAAAACTACATATCCACCTTCACCTTCACTTTACTTATCCTATTAATCCTTACCTAACCTGAAAGGTCGCACCCCTCCCTTACAACTCCAATCTAAAACCACCAAAACAGTAAACAGAGGTACAACTAACCCTCAAGCACAAATCATCAACCCCACACCACCATGAAAATAAAACACACTACAACCATTCACCTCTAAACCTACCCAATCCTCTCAGTTAGTATATACTAATAAATCTTGAATACCCTCAAAAACAATCATTAACACACCCACTACCACCCCAATACTTACAATAATTAAAAAGTATCACACACCACTAATCCCCATAATAACCTCACTCCCCTTCTCAACACTCACACAATAACCAAAAACTACAATCAAACCTCCCAAATACACAATATACATAACCAACGCAGCATAGGTACGCCCAATAACTACCATAATCACACAGCACAAAAAAGAAACCCCCATCATAGAAACCACCCCATGATATGGCATTACAACAATACCTAAAACTACCACACTAAAAACTACAAAGACTAAAACTAAATAAACTACGCACTCTATAAAAAACATTATTTTTGCTCCTTAGAGTCCTGAGGCCTGAAAAACCACTGTTGTTTATCAACTACAAAAACATGTCACACCATCATATTCTAAAACCATTCAATCTTCTTCCTGTGGGATCAAACATTTCAACCTGATGAAATTTTGGATCAATACTTCTAGCCTGTTTAATCATCCAAACCATAACTGGCTTCTTTCTAGCAATCCACTATACAGCCAATATTAATCTAGCCTTCTCATCTATCGTACACATTACTCGAGATGTCCCATATGGCTGAATTATACAAAATTCACACGCCATCGGCGCATCCCTACTCTTTGTTTGTATCTATATACACATTGCACGAGGCCTCTATTATGGATCTTACCTAAATAAAGAAGTTTGACTTTCAGGAACCACCCTTTTAATCATTCTAATAGCAACAGCCTTTTTCGGTTACGTTCTTCCATGAGGACAAATATCATTTTGAGCAGCAACAGTAATCACTAACCTCCTAACAGCAATCCCATATCTAGGGACCTCCCTAACCACCTGACTTTGGGGCGGATTCTCTATCAACGACCCAACCCTTACCCGCTTCTTCGCTCTTCACTTCATCCTACCATTTATCATTATCTCACTATCATCTATTCACATCCTCCTGCTCCACCACGAAGGCTCTAACAACCCATTAGGTACTAACTCCGATATTGACAAAATCCCATTCCACCCGTATCATTCCTACAAAGACTCCCTAATATTAACAATATTAATTACAGCCATACTTATTATCCTATCATTTGATCCAAACATAATAAACGACCCAGAAAACTTCTCTAAAGCTAACCCCCTAGTCACCCCACAACATATCAAACCCGAGTGATACTTCCTATTCGCCTATGGTATCTTACGGTCAGTCCCAAATAAATTAGGCGGAACACTAGCCCTAATTATATCAATCACTATTCTCCTAACATCACCTTTCACCCACACCTCAACCACCCGATCTATGATATTCCGACCTCTAATACAACTAACATTCTGAACCTTTACTACTATCGTTATTATTATCACCTGAACAGCCACTAAACCAGTGGAAACCCCATTCACAGAAATTAGCCAACTTGCCTCAATTCTATACTTCATGTTCTTTATCTCTAACCCTCTCCTAGGACTCTTAGAAAATAAGATCTCCAACTATTCCTGCTCTAGTAGCTTAAATTTATCTAAAGCGTCGTTCTTGTAAACCGAAGTTGGGTCTCCCCTTGAGCACCACGACAATTAAACCCCACGCAAAAATAACTCCTAGGACGACCCTCCCCCTACCCCCCCCCACAAATTTAACCCGAAAATCGACTATATATGTACCTCTTCATATATATGTCCTATTTATTGCTATGTATAATAATACATTAATCGTTTTGCCCCATGGATAATAAGCCGGAAATAAACTTTAATTATTTATATAGTAATCTGGTTCATTAACATATTATTCCTAGCCCCATTTTCTGGTCGTTCCATTAATAAAGGTTGAATATTATTAATAACCATGACTATCCTGATCAAACCGGTGTCCCATGATTTAACCCTTCCCGTGAAACCCTCTATCCTTCCACTTCAAGCACACAGTCCTGCTTTTCACGTCCATATATTGTAACTCCCCCCATTATGCCCTTTAACAGGCCACTGGTTGCACCTTCAAGTTCATCTCAACGGTCCGGAACCACCCCTCCCTACTAGCTTTTTCCAAGGCCTCTGGCTTCACCCCTTATCCTGGTGCATTCTGCCTCATGTTCTGATCACGTATGCCTGTCCCACCCCTGGTTGCCTTTTTTTATCTGTGGCTTTCATCTGACACCCATCTATGCTCGTTACCGGTCACCCCTTAATCGGGGATGTAATGCTATTAGTCCAGGTGGAGCCCTACCCTTGGTCGTGCACTTTTCCCTAGAGGGTTACATTTCCTTAATGCTTGTCTGACATACTTTTTTAGAGACTTAAAAATATCATTATTTTTATTATAAAATTCCCGTTCGAAATTAAAAATTTCACCAATTTTTTAAAATTTTACCAAAATCAATACCACTTTTCCATACTAAAAATACAAACCCAAAATCCTATAGTAAATTATTTTTTTTAGAAACACTTTTTATGCATTTTACCCGACCTACATTATAAAAAACACGAAGTAATTTTCACTAACCCGGTATATGACTTCTTTTTTTTTTTTGCCCGATTCATGAGTGCAATCACCTGCAATAAGACACAGCCAACTTTGCCTATATTTCACTTACTCCCCGAATTTCCATATT'
p1188
sbsS'_per_letter_annotations'
p1189
g1
(cBio.SeqRecord
_RestrictedDict
p1190
c__builtin__
dict
p1191
(dtRp1192
(dp1193
S'_length'
p1194
I17246
sbsg103
S'NC_011391.1'
p1195
sS'name'
p1196
S'NC_011391'
p1197
sb.