ccopy_reg
_reconstructor
p1
(cBio.SeqRecord
SeqRecord
p2
c__builtin__
object
p3
NtRp4
(dp5
S'dbxrefs'
p6
(lp7
S'Project:62915 BioProject:PRJNA62915'
p8
asS'description'
p9
S'Gorilla gorilla mitochondrion, complete genome.'
p10
sS'annotations'
p11
(dp12
S'comment'
p13
S'PROVISIONAL REFSEQ: This record has not yet been subject to final\nNCBI review. The reference sequence was derived from D38114.\nCOMPLETENESS: full length.'
p14
sS'sequence_version'
p15
I1
sS'source'
p16
S'mitochondrion Gorilla gorilla (western gorilla)'
p17
sS'taxonomy'
p18
(lp19
S'Eukaryota'
p20
aS'Metazoa'
p21
aS'Chordata'
p22
aS'Craniata'
p23
aS'Vertebrata'
p24
aS'Euteleostomi'
p25
aS'Mammalia'
p26
aS'Eutheria'
p27
aS'Euarchontoglires'
p28
aS'Primates'
p29
aS'Haplorrhini'
p30
aS'Catarrhini'
p31
aS'Hominidae'
p32
aS'Gorilla'
p33
asS'keywords'
p34
(lp35
S''
asS'references'
p36
(lp37
g1
(cBio.SeqFeature
Reference
p38
g3
NtRp39
(dp40
g13
S''
sS'title'
p41
S'Recent African origin of modern humans revealed by complete sequences of hominoid mitochondrial DNAs'
p42
sS'consrtm'
p43
S''
sS'journal'
p44
S'Proc. Natl. Acad. Sci. U.S.A. 92 (2), 532-536 (1995)'
p45
sS'location'
p46
(lp47
sS'pubmed_id'
p48
S'7530363'
p49
sS'authors'
p50
S'Horai,S., Hayasaka,K., Kondo,R., Tsugane,K. and Takahata,N.'
p51
sS'medline_id'
p52
S''
sbag1
(g38
g3
NtRp53
(dp54
g13
S'Erratum:[J Mol Evol. 1993 Jul;37(1):89. PMID: 8360922]'
p55
sg41
S"Man's place in Hominoidea revealed by mitochondrial DNA genealogy"
p56
sg43
S''
sg44
S'J. Mol. Evol. 35 (1), 32-43 (1992)'
p57
sg46
(lp58
sg48
S'1518083'
p59
sg50
S'Horai,S., Satta,Y., Hayasaka,K., Kondo,R., Inoue,T., Ishida,T., Hayashi,S. and Takahata,N.'
p60
sg52
S''
sbag1
(g38
g3
NtRp61
(dp62
g13
S''
sg41
S'Comparisons of ape and human sequences that regulate mitochondrial DNA transcription and D-loop DNA synthesis'
p63
sg43
S''
sg44
S'Nucleic Acids Res. 16 (13), 5841-5861 (1988)'
p64
sg46
(lp65
sg48
S'3399380'
p66
sg50
S'Foran,D.R., Hixson,J.E. and Brown,W.M.'
p67
sg52
S''
sbag1
(g38
g3
NtRp68
(dp69
g13
S''
sg41
S'A comparison of the small ribosomal RNA genes from the mitochondrial DNA of the great apes and humans: sequence, structure, evolution, and phylogenetic implications'
p70
sg43
S''
sg44
S'Mol. Biol. Evol. 3 (1), 1-18 (1986)'
p71
sg46
(lp72
sg48
S'3444394'
p73
sg50
S'Hixson,J.E. and Brown,W.M.'
p74
sg52
S''
sbag1
(g38
g3
NtRp75
(dp76
g13
S''
sg41
S''
sg43
S''
sg44
S'Unpublished'
p77
sg46
(lp78
g1
(cBio.SeqFeature
FeatureLocation
p79
g3
NtRp80
(dp81
S'ref'
p82
NsS'_end'
p83
g1
(cBio.SeqFeature
ExactPosition
p84
c__builtin__
int
p85
I16364
tRp86
sS'_start'
p87
g1
(g84
g85
I0
tRp88
sS'_strand'
p89
NsS'ref_db'
p90
Nsbasg48
S''
sg50
S'Horai,S., Kazuo,T., Hayasaka,K., Naoyuki,T. and Rumi,K.'
p91
sg52
S''
sbag1
(g38
g3
NtRp92
(dp93
g13
S''
sg41
S'Direct Submission'
p94
sg43
S'NCBI Genome Project'
p95
sg44
S'Submitted (28-DEC-2000) National Center for Biotechnology Information, NIH, Bethesda, MD 20894, USA'
p96
sg46
(lp97
g1
(g79
g3
NtRp98
(dp99
g82
Nsg83
g1
(g84
g85
I16364
tRp100
sg87
g1
(g84
g85
I0
tRp101
sg89
Nsg90
Nsbasg48
S''
sg50
S''
sg52
S''
sbag1
(g38
g3
NtRp102
(dp103
g13
S''
sg41
S'Direct Submission'
p104
sg43
S''
sg44
S'Submitted (02-SEP-1994) Kenji Hayasaka, National Institute of Genetics, Human Genetics; 1,111 Yata, Mishima, Shizuoka 411, Japan (E-mail:khayasak@ddbj.nig.ac.jp, Tel:81-559-75-0771(ex.568))'
p105
sg46
(lp106
g1
(g79
g3
NtRp107
(dp108
g82
Nsg83
g1
(g84
g85
I16364
tRp109
sg87
g1
(g84
g85
I0
tRp110
sg89
Nsg90
Nsbasg48
S''
sg50
S'Hayasaka,K.'
p111
sg52
S''
sbasS'accessions'
p112
(lp113
S'NC_001645'
p114
asS'data_file_division'
p115
S'PRI'
p116
sS'date'
p117
S'14-FEB-2011'
p118
sS'organism'
p119
S'Gorilla gorilla'
p120
sS'gi'
p121
S'5835149'
p122
ssS'features'
p123
(lp124
g1
(cBio.SeqFeature
SeqFeature
p125
g3
NtRp126
(dp127
S'sub_features'
p128
(lp129
sS'location_operator'
p130
S''
sS'id'
p131
S'<unknown id>'
p132
sg46
g1
(g79
g3
NtRp133
(dp134
g82
Nsg83
g1
(g84
g85
I16364
tRp135
sg87
g1
(g84
g85
I0
tRp136
sg89
I1
sg90
NsbsS'type'
p137
S'source'
p138
sS'qualifiers'
p139
(dp140
S'organelle'
p141
(lp142
S'mitochondrion'
p143
asS'db_xref'
p144
(lp145
S'taxon:9593'
p146
asS'mol_type'
p147
(lp148
S'genomic DNA'
p149
asS'organism'
p150
(lp151
S'Gorilla gorilla'
p152
assbag1
(g125
g3
NtRp153
(dp154
g128
(lp155
sg130
S''
sg131
g132
sg46
g1
(g79
g3
NtRp156
(dp157
g82
Nsg83
g1
(g84
g85
I71
tRp158
sg87
g1
(g84
g85
I0
tRp159
sg89
I1
sg90
Nsbsg137
S'tRNA'
p160
sg139
(dp161
S'product'
p162
(lp163
S'tRNA-Phe'
p164
assbag1
(g125
g3
NtRp165
(dp166
g128
(lp167
sg130
S''
sg131
g132
sg46
g1
(g79
g3
NtRp168
(dp169
g82
Nsg83
g1
(g84
g85
I1020
tRp170
sg87
g1
(g84
g85
I71
tRp171
sg89
I1
sg90
Nsbsg137
S'rRNA'
p172
sg139
(dp173
S'product'
p174
(lp175
S'12S ribosomal RNA'
p176
assbag1
(g125
g3
NtRp177
(dp178
g128
(lp179
sg130
S''
sg131
g132
sg46
g1
(g79
g3
NtRp180
(dp181
g82
Nsg83
g1
(g84
g85
I1089
tRp182
sg87
g1
(g84
g85
I1020
tRp183
sg89
I1
sg90
Nsbsg137
S'tRNA'
p184
sg139
(dp185
S'product'
p186
(lp187
S'tRNA-Val'
p188
assbag1
(g125
g3
NtRp189
(dp190
g128
(lp191
sg130
S''
sg131
g132
sg46
g1
(g79
g3
NtRp192
(dp193
g82
Nsg83
g1
(g84
g85
I2647
tRp194
sg87
g1
(g84
g85
I1089
tRp195
sg89
I1
sg90
Nsbsg137
S'rRNA'
p196
sg139
(dp197
S'product'
p198
(lp199
S'16S ribosomal RNA'
p200
assbag1
(g125
g3
NtRp201
(dp202
g128
(lp203
sg130
S''
sg131
g132
sg46
g1
(g79
g3
NtRp204
(dp205
g82
Nsg83
g1
(g84
g85
I2722
tRp206
sg87
g1
(g84
g85
I2647
tRp207
sg89
I1
sg90
Nsbsg137
S'tRNA'
p208
sg139
(dp209
S'codon_recognized'
p210
(lp211
S'UUR'
p212
asS'product'
p213
(lp214
S'tRNA-Leu'
p215
assbag1
(g125
g3
NtRp216
(dp217
g128
(lp218
sg130
S''
sg131
g132
sg46
g1
(g79
g3
NtRp219
(dp220
g82
Nsg83
g1
(g84
g85
I3681
tRp221
sg87
g1
(g84
g85
I2724
tRp222
sg89
I1
sg90
Nsbsg137
S'gene'
p223
sg139
(dp224
S'db_xref'
p225
(lp226
S'GeneID:807893'
p227
asS'gene'
p228
(lp229
S'ND1'
p230
assbag1
(g125
g3
NtRp231
(dp232
g128
(lp233
sg130
S''
sg131
g132
sg46
g1
(g79
g3
NtRp234
(dp235
g82
Nsg83
g1
(g84
g85
I3681
tRp236
sg87
g1
(g84
g85
I2724
tRp237
sg89
I1
sg90
Nsbsg137
S'CDS'
p238
sg139
(dp239
S'product'
p240
(lp241
S'NADH dehydrogenase subunit 1'
p242
asS'codon_start'
p243
(lp244
S'1'
asS'transl_table'
p245
(lp246
S'2'
asS'db_xref'
p247
(lp248
S'GI:5835155'
p249
aS'GeneID:807893'
p250
asS'translation'
p251
(lp252
S'MSMANLLLLIVPILIAMAFLMLTERKILGYMQLRKGPNVVGPYGLLQPFADAMKLFTKEPLKPSTSTITLYITAPTLALTIALLLWTPLPMPNPLVNLNLGLLFILATSSLAVYSILWSGWASNSNYALIGALRAVAQTISYEVTLAIILLSTLLMNGSFNLSTLIMTQEHLWLLLPTWPLAMMWFISTLAETNRTPFDLAEGESELVSGFNIEYAAGPLALFFMAEYMNIIMMNTLTTMIFLGTTYNAHSPELYTVCFITKTLLLTSLFLWIRTAYPRFRYDQLMHLLWKNFLPLTLALLMWYISMPTTISSIPPQT'
p253
asS'gene'
p254
(lp255
S'ND1'
p256
asS'protein_id'
p257
(lp258
S'NP_008212.1'
p259
assbag1
(g125
g3
NtRp260
(dp261
g128
(lp262
sg130
S''
sg131
g132
sg46
g1
(g79
g3
NtRp263
(dp264
g82
Nsg83
g1
(g84
g85
I3749
tRp265
sg87
g1
(g84
g85
I3680
tRp266
sg89
I1
sg90
Nsbsg137
S'tRNA'
p267
sg139
(dp268
S'product'
p269
(lp270
S'tRNA-Ile'
p271
assbag1
(g125
g3
NtRp272
(dp273
g128
(lp274
sg130
S''
sg131
g132
sg46
g1
(g79
g3
NtRp275
(dp276
g82
Nsg83
g1
(g84
g85
I3818
tRp277
sg87
g1
(g84
g85
I3746
tRp278
sg89
I-1
sg90
Nsbsg137
S'tRNA'
p279
sg139
(dp280
S'product'
p281
(lp282
S'tRNA-Gln'
p283
assbag1
(g125
g3
NtRp284
(dp285
g128
(lp286
sg130
S''
sg131
g132
sg46
g1
(g79
g3
NtRp287
(dp288
g82
Nsg83
g1
(g84
g85
I3887
tRp289
sg87
g1
(g84
g85
I3819
tRp290
sg89
I1
sg90
Nsbsg137
S'tRNA'
p291
sg139
(dp292
S'product'
p293
(lp294
S'tRNA-Met'
p295
assbag1
(g125
g3
NtRp296
(dp297
g128
(lp298
sg130
S''
sg131
g132
sg46
g1
(g79
g3
NtRp299
(dp300
g82
Nsg83
g1
(g84
g85
I4931
tRp301
sg87
g1
(g84
g85
I3887
tRp302
sg89
I1
sg90
Nsbsg137
S'gene'
p303
sg139
(dp304
S'db_xref'
p305
(lp306
S'GeneID:807892'
p307
asS'gene'
p308
(lp309
S'ND2'
p310
assbag1
(g125
g3
NtRp311
(dp312
g128
(lp313
sg130
S''
sg131
g132
sg46
g1
(g79
g3
NtRp314
(dp315
g82
Nsg83
g1
(g84
g85
I4931
tRp316
sg87
g1
(g84
g85
I3887
tRp317
sg89
I1
sg90
Nsbsg137
S'CDS'
p318
sg139
(dp319
S'product'
p320
(lp321
S'NADH dehydrogenase subunit 2'
p322
asS'codon_start'
p323
(lp324
S'1'
asS'transl_table'
p325
(lp326
S'2'
asS'db_xref'
p327
(lp328
S'GI:5835156'
p329
aS'GeneID:807892'
p330
asS'translation'
p331
(lp332
S'MNPLAQPIIYSTIFAGTLITALSSHWFFAWVGLEMNMLAFIPVLTKKMNPRSTEAAIKYFLTQATASMILLMAILSNNMLSGQWTTTNATNQYSSLMIVVAMAMKLGMAPFHFWVPEVTQGTPLMSGLLLLTWQKLAPMSIMYQISSSTNVSLLLTLSILSILAGSWGGLNQTQLRKILAYSSITHVGWMMAVLPYNPNMTILNLTIYIILTTTTFLLLNLSSSTTTLLLSRTWNKLTWLTPLIPSTLLSLGGLPPLTGFLPKWLIIEEFTKNNDLITPTIMAIITLLNLYFYLRLIYSTSITLLPMSNNVKMKWQLEYTKPTPFLPTLITLTTLLLPISPFMLMVL'
p333
asS'gene'
p334
(lp335
S'ND2'
p336
asS'protein_id'
p337
(lp338
S'NP_008213.1'
p339
assbag1
(g125
g3
NtRp340
(dp341
g128
(lp342
sg130
S''
sg131
g132
sg46
g1
(g79
g3
NtRp343
(dp344
g82
Nsg83
g1
(g84
g85
I4997
tRp345
sg87
g1
(g84
g85
I4929
tRp346
sg89
I1
sg90
Nsbsg137
S'tRNA'
p347
sg139
(dp348
S'product'
p349
(lp350
S'tRNA-Trp'
p351
assbag1
(g125
g3
NtRp352
(dp353
g128
(lp354
sg130
S''
sg131
g132
sg46
g1
(g79
g3
NtRp355
(dp356
g82
Nsg83
g1
(g84
g85
I5073
tRp357
sg87
g1
(g84
g85
I5004
tRp358
sg89
I-1
sg90
Nsbsg137
S'tRNA'
p359
sg139
(dp360
S'product'
p361
(lp362
S'tRNA-Ala'
p363
assbag1
(g125
g3
NtRp364
(dp365
g128
(lp366
sg130
S''
sg131
g132
sg46
g1
(g79
g3
NtRp367
(dp368
g82
Nsg83
g1
(g84
g85
I5147
tRp369
sg87
g1
(g84
g85
I5074
tRp370
sg89
I-1
sg90
Nsbsg137
S'tRNA'
p371
sg139
(dp372
S'product'
p373
(lp374
S'tRNA-Asn'
p375
assbag1
(g125
g3
NtRp376
(dp377
g128
(lp378
sg130
S''
sg131
g132
sg46
g1
(g79
g3
NtRp379
(dp380
g82
Nsg83
g1
(g84
g85
I5244
tRp381
sg87
g1
(g84
g85
I5178
tRp382
sg89
I-1
sg90
Nsbsg137
S'tRNA'
p383
sg139
(dp384
S'product'
p385
(lp386
S'tRNA-Cys'
p387
assbag1
(g125
g3
NtRp388
(dp389
g128
(lp390
sg130
S''
sg131
g132
sg46
g1
(g79
g3
NtRp391
(dp392
g82
Nsg83
g1
(g84
g85
I5309
tRp393
sg87
g1
(g84
g85
I5243
tRp394
sg89
I-1
sg90
Nsbsg137
S'tRNA'
p395
sg139
(dp396
S'product'
p397
(lp398
S'tRNA-Tyr'
p399
assbag1
(g125
g3
NtRp400
(dp401
g128
(lp402
sg130
S''
sg131
g132
sg46
g1
(g79
g3
NtRp403
(dp404
g82
Nsg83
g1
(g84
g85
I6864
tRp405
sg87
g1
(g84
g85
I5324
tRp406
sg89
I1
sg90
Nsbsg137
S'gene'
p407
sg139
(dp408
S'db_xref'
p409
(lp410
S'GeneID:807895'
p411
asS'gene'
p412
(lp413
S'COX1'
p414
assbag1
(g125
g3
NtRp415
(dp416
g128
(lp417
sg130
S''
sg131
g132
sg46
g1
(g79
g3
NtRp418
(dp419
g82
Nsg83
g1
(g84
g85
I6864
tRp420
sg87
g1
(g84
g85
I5324
tRp421
sg89
I1
sg90
Nsbsg137
S'CDS'
p422
sg139
(dp423
S'product'
p424
(lp425
S'cytochrome c oxidase subunit I'
p426
asS'transl_except'
p427
(lp428
S'(pos:6864,aa:TERM)'
p429
asS'codon_start'
p430
(lp431
S'1'
asS'transl_table'
p432
(lp433
S'2'
asS'note'
p434
(lp435
S"TAA stop codon is completed by the addition of 3' A residues to the mRNA"
p436
asS'db_xref'
p437
(lp438
S'GI:5835157'
p439
aS'GeneID:807895'
p440
asS'translation'
p441
(lp442
S'MFTDRWLFSTNHKDIGTLYLLFGAWAGVLGTALSLLIRAELGQPGNLLGNDHIYNVIVTAHAFVMIFFMVMPIMIGGFGNWLVPLMIGAPDMAFPRMNNMSFWLLPPSFLLLLASAMVEAGAGTGWTVYPPLAGNYSHPGASVDLTIFSLHLAGISSILGAINFITTIINMKPPAMTQYQTPLFVWSVLITAVLLLLSLPVLAAGITMLLTDRNLNTTFFDPAGGGDPILYQHLFWFFGHPEVYILILPGFGMISHIVTYYSGKKEPFGYMGMVWAMMSIGFLGFIVWAHHMFTVGMDVDTRAYFTSATMIIAIPTGVKVFSWLATLHGSNTKWSAAMLWALGFIFLFTVGGLTGIVLANSSLDIVLHDTYYVVAHFHYVLSMGAVFAIMGGFIHWFPLFSGYTLDQTYAKIHFAIMFIGVNLTFFPQHFLGLSGMPRHYSDYPDAYTTWNILSSVGSFISLTAVMLMIFMIWEAFASKRKVLMIEEPSTNLEWLYGCPPPYHTFEESVYMKS'
p443
asS'gene'
p444
(lp445
S'COX1'
p446
asS'protein_id'
p447
(lp448
S'NP_008214.1'
p449
assbag1
(g125
g3
NtRp450
(dp451
g128
(lp452
sg130
S''
sg131
g132
sg46
g1
(g79
g3
NtRp453
(dp454
g82
Nsg83
g1
(g84
g85
I6937
tRp455
sg87
g1
(g84
g85
I6865
tRp456
sg89
I-1
sg90
Nsbsg137
S'tRNA'
p457
sg139
(dp458
S'codon_recognized'
p459
(lp460
S'UCN'
p461
asS'product'
p462
(lp463
S'tRNA-Ser'
p464
assbag1
(g125
g3
NtRp465
(dp466
g128
(lp467
sg130
S''
sg131
g132
sg46
g1
(g79
g3
NtRp468
(dp469
g82
Nsg83
g1
(g84
g85
I7006
tRp470
sg87
g1
(g84
g85
I6938
tRp471
sg89
I1
sg90
Nsbsg137
S'tRNA'
p472
sg139
(dp473
S'product'
p474
(lp475
S'tRNA-Asp'
p476
assbag1
(g125
g3
NtRp477
(dp478
g128
(lp479
sg130
S''
sg131
g132
sg46
g1
(g79
g3
NtRp480
(dp481
g82
Nsg83
g1
(g84
g85
I7690
tRp482
sg87
g1
(g84
g85
I7006
tRp483
sg89
I1
sg90
Nsbsg137
S'gene'
p484
sg139
(dp485
S'db_xref'
p486
(lp487
S'GeneID:807894'
p488
asS'gene'
p489
(lp490
S'COX2'
p491
assbag1
(g125
g3
NtRp492
(dp493
g128
(lp494
sg130
S''
sg131
g132
sg46
g1
(g79
g3
NtRp495
(dp496
g82
Nsg83
g1
(g84
g85
I7690
tRp497
sg87
g1
(g84
g85
I7006
tRp498
sg89
I1
sg90
Nsbsg137
S'CDS'
p499
sg139
(dp500
S'product'
p501
(lp502
S'cytochrome c oxidase subunit II'
p503
asS'codon_start'
p504
(lp505
S'1'
asS'transl_table'
p506
(lp507
S'2'
asS'db_xref'
p508
(lp509
S'GI:5835150'
p510
aS'GeneID:807894'
p511
asS'translation'
p512
(lp513
S'MAHAAQVGLQDATSPIMEELIIFHDHALMIIFLICFLVLYALFLTLTTKLTNNNISDAQEMETIWTILPAIILVLIALPSLRILYMTDEINDPSFTIKSIGHQWYWTYEYTDYGGLIFNSYMLPPLFLEPGDLRLLDVDNRVVLPVEAPVRMMITSQDVLHSWAVPTLGLKTDAIPGRLNQTTFTATRPGVYYGQCSEICGANHSFMPIVLELIPLKIFEMGPVFAL'
p514
asS'gene'
p515
(lp516
S'COX2'
p517
asS'protein_id'
p518
(lp519
S'NP_008215.1'
p520
assbag1
(g125
g3
NtRp521
(dp522
g128
(lp523
sg130
S''
sg131
g132
sg46
g1
(g79
g3
NtRp524
(dp525
g82
Nsg83
g1
(g84
g85
I7786
tRp526
sg87
g1
(g84
g85
I7716
tRp527
sg89
I1
sg90
Nsbsg137
S'tRNA'
p528
sg139
(dp529
S'product'
p530
(lp531
S'tRNA-Lys'
p532
assbag1
(g125
g3
NtRp533
(dp534
g128
(lp535
sg130
S''
sg131
g132
sg46
g1
(g79
g3
NtRp536
(dp537
g82
Nsg83
g1
(g84
g85
I7994
tRp538
sg87
g1
(g84
g85
I7787
tRp539
sg89
I1
sg90
Nsbsg137
S'gene'
p540
sg139
(dp541
S'db_xref'
p542
(lp543
S'GeneID:807890'
p544
asS'gene'
p545
(lp546
S'ATP8'
p547
assbag1
(g125
g3
NtRp548
(dp549
g128
(lp550
sg130
S''
sg131
g132
sg46
g1
(g79
g3
NtRp551
(dp552
g82
Nsg83
g1
(g84
g85
I7994
tRp553
sg87
g1
(g84
g85
I7787
tRp554
sg89
I1
sg90
Nsbsg137
S'CDS'
p555
sg139
(dp556
S'product'
p557
(lp558
S'ATP synthase F0 subunit 8'
p559
asS'codon_start'
p560
(lp561
S'1'
asS'transl_table'
p562
(lp563
S'2'
asS'db_xref'
p564
(lp565
S'GI:5835151'
p566
aS'GeneID:807890'
p567
asS'translation'
p568
(lp569
S'MPQLNTTVWPTMIAPMLLTLFLITQLKVLNTNYHLPPLPKTMKMKNFCKPWEPKWTKIYSLHSLPPQS'
p570
asS'gene'
p571
(lp572
S'ATP8'
p573
asS'protein_id'
p574
(lp575
S'NP_008216.1'
p576
assbag1
(g125
g3
NtRp577
(dp578
g128
(lp579
sg130
S''
sg131
g132
sg46
g1
(g79
g3
NtRp580
(dp581
g82
Nsg83
g1
(g84
g85
I8629
tRp582
sg87
g1
(g84
g85
I7948
tRp583
sg89
I1
sg90
Nsbsg137
S'gene'
p584
sg139
(dp585
S'db_xref'
p586
(lp587
S'GeneID:807887'
p588
asS'gene'
p589
(lp590
S'ATP6'
p591
assbag1
(g125
g3
NtRp592
(dp593
g128
(lp594
sg130
S''
sg131
g132
sg46
g1
(g79
g3
NtRp595
(dp596
g82
Nsg83
g1
(g84
g85
I8629
tRp597
sg87
g1
(g84
g85
I7948
tRp598
sg89
I1
sg90
Nsbsg137
S'CDS'
p599
sg139
(dp600
S'product'
p601
(lp602
S'ATP synthase F0 subunit 6'
p603
asS'codon_start'
p604
(lp605
S'1'
asS'transl_table'
p606
(lp607
S'2'
asS'db_xref'
p608
(lp609
S'GI:5835158'
p610
aS'GeneID:807887'
p611
asS'translation'
p612
(lp613
S'MNENLFASFIAPTILGLPAAVLIILLPPLLIPTSKYLINNRLIATQQWLIQLTSKQMMTMHNAKGRTWSLMLMWLIIFIATTNLLGLLPHSFTPTTQLSMNLAMAIPLWAGAVTTGFRSKTKNALAHLLPQGTPTPLIPMLVIIETISLFIQPMALAVRLTANITAGHLLMHLIGSATLAMSTTNLPSTLIIFTVLILLTMLEIAVALIQAYVFTLLVSLYLHENT'
p614
asS'gene'
p615
(lp616
S'ATP6'
p617
asS'protein_id'
p618
(lp619
S'NP_008217.1'
p620
assbag1
(g125
g3
NtRp621
(dp622
g128
(lp623
sg130
S''
sg131
g132
sg46
g1
(g79
g3
NtRp624
(dp625
g82
Nsg83
g1
(g84
g85
I9412
tRp626
sg87
g1
(g84
g85
I8628
tRp627
sg89
I1
sg90
Nsbsg137
S'gene'
p628
sg139
(dp629
S'db_xref'
p630
(lp631
S'GeneID:807886'
p632
asS'gene'
p633
(lp634
S'COX3'
p635
assbag1
(g125
g3
NtRp636
(dp637
g128
(lp638
sg130
S''
sg131
g132
sg46
g1
(g79
g3
NtRp639
(dp640
g82
Nsg83
g1
(g84
g85
I9412
tRp641
sg87
g1
(g84
g85
I8628
tRp642
sg89
I1
sg90
Nsbsg137
S'CDS'
p643
sg139
(dp644
S'product'
p645
(lp646
S'cytochrome c oxidase subunit III'
p647
asS'transl_except'
p648
(lp649
S'(pos:9412,aa:TERM)'
p650
asS'codon_start'
p651
(lp652
S'1'
asS'transl_table'
p653
(lp654
S'2'
asS'note'
p655
(lp656
S"TAA stop codon is completed by the addition of 3' A residues to the mRNA"
p657
asS'db_xref'
p658
(lp659
S'GI:5835159'
p660
aS'GeneID:807886'
p661
asS'translation'
p662
(lp663
S'MIHQSHAYHMVKPSPWPLTGALSALLMTSGLAMWFHFHSTTLLMLGLLTNMLTMYQWWRDVMRESTYQGHHTLPVQKGLRYGMILFITSEVFFFAGFFWAFYHSSLAPTPQLGAHWPPTGITPLNPLEVPLLNTSVLLASGVSITWAHHSLMENNRNQMIQALLITILLGLYFTLLQASEYFEAPFTISDGIYGSTFFVATGFHGLHVIIGSTFLTICLIRQLMFHFTSKHHFGFEAAAWYWHFVDVVWLFLYVSIYWWGS'
p664
asS'gene'
p665
(lp666
S'COX3'
p667
asS'protein_id'
p668
(lp669
S'NP_008218.1'
p670
assbag1
(g125
g3
NtRp671
(dp672
g128
(lp673
sg130
S''
sg131
g132
sg46
g1
(g79
g3
NtRp674
(dp675
g82
Nsg83
g1
(g84
g85
I8838
tRp676
sg87
g1
(g84
g85
I8763
tRp677
sg89
I1
sg90
Nsbsg137
S'STS'
p678
sg139
(dp679
S'db_xref'
p680
(lp681
S'UniSTS:273331'
p682
asS'standard_name'
p683
(lp684
S'PMC55343P8'
p685
asS'gene'
p686
(lp687
S'COX3'
p688
assbag1
(g125
g3
NtRp689
(dp690
g128
(lp691
sg130
S''
sg131
g132
sg46
g1
(g79
g3
NtRp692
(dp693
g82
Nsg83
g1
(g84
g85
I9480
tRp694
sg87
g1
(g84
g85
I9412
tRp695
sg89
I1
sg90
Nsbsg137
S'tRNA'
p696
sg139
(dp697
S'product'
p698
(lp699
S'tRNA-Gly'
p700
assbag1
(g125
g3
NtRp701
(dp702
g128
(lp703
sg130
S''
sg131
g132
sg46
g1
(g79
g3
NtRp704
(dp705
g82
Nsg83
g1
(g84
g85
I9826
tRp706
sg87
g1
(g84
g85
I9480
tRp707
sg89
I1
sg90
Nsbsg137
S'gene'
p708
sg139
(dp709
S'db_xref'
p710
(lp711
S'GeneID:807897'
p712
asS'gene'
p713
(lp714
S'ND3'
p715
assbag1
(g125
g3
NtRp716
(dp717
g128
(lp718
sg130
S''
sg131
g132
sg46
g1
(g79
g3
NtRp719
(dp720
g82
Nsg83
g1
(g84
g85
I9826
tRp721
sg87
g1
(g84
g85
I9480
tRp722
sg89
I1
sg90
Nsbsg137
S'CDS'
p723
sg139
(dp724
S'product'
p725
(lp726
S'NADH dehydrogenase subunit 3'
p727
asS'transl_except'
p728
(lp729
S'(pos:9826,aa:TERM)'
p730
asS'codon_start'
p731
(lp732
S'1'
asS'transl_table'
p733
(lp734
S'2'
asS'note'
p735
(lp736
S"TAA stop codon is completed by the addition of 3' A residues to the mRNA"
p737
asS'db_xref'
p738
(lp739
S'GI:5835160'
p740
aS'GeneID:807897'
p741
asS'translation'
p742
(lp743
S'MNFALILMTNTLLALLLMIITFWLPQLNSYMEKTNPYECGFDPVSPARIPFSMKFFLVAITFLLFDLEIALLLPLPWALQTTNLPLMVMSSLLLIIILTLSLAYEWLQKGLDWTE'
p744
asS'gene'
p745
(lp746
S'ND3'
p747
asS'protein_id'
p748
(lp749
S'NP_008219.1'
p750
assbag1
(g125
g3
NtRp751
(dp752
g128
(lp753
sg130
S''
sg131
g132
sg46
g1
(g79
g3
NtRp754
(dp755
g82
Nsg83
g1
(g84
g85
I9891
tRp756
sg87
g1
(g84
g85
I9826
tRp757
sg89
I1
sg90
Nsbsg137
S'tRNA'
p758
sg139
(dp759
S'product'
p760
(lp761
S'tRNA-Arg'
p762
assbag1
(g125
g3
NtRp763
(dp764
g128
(lp765
sg130
S''
sg131
g132
sg46
g1
(g79
g3
NtRp766
(dp767
g82
Nsg83
g1
(g84
g85
I10188
tRp768
sg87
g1
(g84
g85
I9891
tRp769
sg89
I1
sg90
Nsbsg137
S'gene'
p770
sg139
(dp771
S'db_xref'
p772
(lp773
S'GeneID:807898'
p774
asS'gene'
p775
(lp776
S'ND4L'
p777
assbag1
(g125
g3
NtRp778
(dp779
g128
(lp780
sg130
S''
sg131
g132
sg46
g1
(g79
g3
NtRp781
(dp782
g82
Nsg83
g1
(g84
g85
I10188
tRp783
sg87
g1
(g84
g85
I9891
tRp784
sg89
I1
sg90
Nsbsg137
S'CDS'
p785
sg139
(dp786
S'product'
p787
(lp788
S'NADH dehydrogenase subunit 4L'
p789
asS'codon_start'
p790
(lp791
S'1'
asS'transl_table'
p792
(lp793
S'2'
asS'db_xref'
p794
(lp795
S'GI:5835152'
p796
aS'GeneID:807898'
p797
asS'translation'
p798
(lp799
S'MPLIYMNIMLAFTISLLGMLVYRSHLMSSLLCLEGMMLSLFIMATLMTLNTHFLLANIVPITMLVFAACEAAVGLALLVSISNTYGLDYVQNLNLLQC'
p800
asS'gene'
p801
(lp802
S'ND4L'
p803
asS'protein_id'
p804
(lp805
S'NP_008220.1'
p806
assbag1
(g125
g3
NtRp807
(dp808
g128
(lp809
sg130
S''
sg131
g132
sg46
g1
(g79
g3
NtRp810
(dp811
g82
Nsg83
g1
(g84
g85
I11559
tRp812
sg87
g1
(g84
g85
I10181
tRp813
sg89
I1
sg90
Nsbsg137
S'gene'
p814
sg139
(dp815
S'db_xref'
p816
(lp817
S'GeneID:807896'
p818
asS'gene'
p819
(lp820
S'ND4'
p821
assbag1
(g125
g3
NtRp822
(dp823
g128
(lp824
sg130
S''
sg131
g132
sg46
g1
(g79
g3
NtRp825
(dp826
g82
Nsg83
g1
(g84
g85
I11559
tRp827
sg87
g1
(g84
g85
I10181
tRp828
sg89
I1
sg90
Nsbsg137
S'CDS'
p829
sg139
(dp830
S'product'
p831
(lp832
S'NADH dehydrogenase subunit 4'
p833
asS'transl_except'
p834
(lp835
S'(pos:11559,aa:TERM)'
p836
asS'codon_start'
p837
(lp838
S'1'
asS'transl_table'
p839
(lp840
S'2'
asS'note'
p841
(lp842
S"TAA stop codon is completed by the addition of 3' A residues to the mRNA"
p843
asS'db_xref'
p844
(lp845
S'GI:5835161'
p846
aS'GeneID:807896'
p847
asS'translation'
p848
(lp849
S'MLKLIAPTIMLLPLTWLSKKHMIWINTTTHSLIISIIPLLFFNQINNNLFSYSLSFSSDPLTTPLLMLTTWLLPLTIMASQRHLSNEPLSRKKLYLSMLISLQISLIMTFTATELIMFYIFFEATLIPTLVIITRWGNQPERLNAGTYFLFYTLVGSLPLLIALIHTHNTLGSLNILLLTLTAQELPNSWANNLMWLAYTMAFMVKMPLYGLHLWLPKAHVEAPIAGSMMLAAVLLKLGGYGMMRLMLILNPLTKHMAYPFLALSLWGMIMTSSISLRQTDLKSLIAYSSISHMALVVAAILIQTPWSFTGAVVLMIAHGLTSSLLFCLANSNYERTHSRIMILSQGLQTLLPLMALWWLLASLANLALPPTINLLGELSVLVTTFSWSNTTLLLTGSNMLITALYSLYMFTTTQWGPLTHHITNMKPSFTRENILMFMHLSPILLLSLNPDIITGFTS'
p850
asS'gene'
p851
(lp852
S'ND4'
p853
asS'protein_id'
p854
(lp855
S'NP_008221.1'
p856
assbag1
(g125
g3
NtRp857
(dp858
g128
(lp859
sg130
S''
sg131
g132
sg46
g1
(g79
g3
NtRp860
(dp861
g82
Nsg83
g1
(g84
g85
I11628
tRp862
sg87
g1
(g84
g85
I11559
tRp863
sg89
I1
sg90
Nsbsg137
S'tRNA'
p864
sg139
(dp865
S'product'
p866
(lp867
S'tRNA-His'
p868
assbag1
(g125
g3
NtRp869
(dp870
g128
(lp871
sg130
S''
sg131
g132
sg46
g1
(g79
g3
NtRp872
(dp873
g82
Nsg83
g1
(g84
g85
I11687
tRp874
sg87
g1
(g84
g85
I11628
tRp875
sg89
I1
sg90
Nsbsg137
S'tRNA'
p876
sg139
(dp877
S'codon_recognized'
p878
(lp879
S'AGY'
p880
asS'product'
p881
(lp882
S'tRNA-Ser'
p883
assbag1
(g125
g3
NtRp884
(dp885
g128
(lp886
sg130
S''
sg131
g132
sg46
g1
(g79
g3
NtRp887
(dp888
g82
Nsg83
g1
(g84
g85
I11758
tRp889
sg87
g1
(g84
g85
I11687
tRp890
sg89
I1
sg90
Nsbsg137
S'tRNA'
p891
sg139
(dp892
S'codon_recognized'
p893
(lp894
S'CUN'
p895
asS'product'
p896
(lp897
S'tRNA-Leu'
p898
assbag1
(g125
g3
NtRp899
(dp900
g128
(lp901
sg130
S''
sg131
g132
sg46
g1
(g79
g3
NtRp902
(dp903
g82
Nsg83
g1
(g84
g85
I13570
tRp904
sg87
g1
(g84
g85
I11758
tRp905
sg89
I1
sg90
Nsbsg137
S'gene'
p906
sg139
(dp907
S'db_xref'
p908
(lp909
S'GeneID:807891'
p910
asS'gene'
p911
(lp912
S'ND5'
p913
assbag1
(g125
g3
NtRp914
(dp915
g128
(lp916
sg130
S''
sg131
g132
sg46
g1
(g79
g3
NtRp917
(dp918
g82
Nsg83
g1
(g84
g85
I13570
tRp919
sg87
g1
(g84
g85
I11758
tRp920
sg89
I1
sg90
Nsbsg137
S'CDS'
p921
sg139
(dp922
S'product'
p923
(lp924
S'NADH dehydrogenase subunit 5'
p925
asS'codon_start'
p926
(lp927
S'1'
asS'transl_table'
p928
(lp929
S'2'
asS'db_xref'
p930
(lp931
S'GI:5835153'
p932
aS'GeneID:807891'
p933
asS'translation'
p934
(lp935
S'MTMYATMTTLALTSLIPPILTTFINPNKKSSYPHYVKSIVASTFIISLFPTTMFLCLDQEAIISSWHWATTQTIQLSLSFKLDYFSMMFIPVALFVTWSIMEFSLWYMNSDPNINQFFKYLLIFLITMLILVTANNLFQLFIGWEGVGIMSFLLIGWWYARTDANTAAVQAILYNRIGDIGFILALAWFLLHSNSWDPQQMSLLNTNPNLIPLLGFLLAAAGKSAQLGLHPWLPSAMEGPTPVSALLHSSTMVVAGVFLLIRFRHLAENNSLAQTLTLCLGAITTLFAAVCALTQNDIKKIVAFSTSSQLGLMVATIGIGQPHLAFLHICTHAFFKAMLFMCSGSIIHNLNNEQDIRKMGGLLKAMPLTSTSLAIGSLALMGMPFLTGFYSKDLIIETANMSHTNAWALSIILIATSLTSAYSTRMILLTLTGQPRFPTFANINENYSTLLNPIKRLTIGSLFAGFFITNNILPTSVPQMTIPLYLKLTALSITLLGLLTALDLNYLTNKLKMKHPPHTFYFSNMLGFYPNITHRTIPYLGLLMSQNLPLLLLDLIWLEKLLPKTISQHQISASITTSTQKGLIKLYFLSFFFPLLLILLLIT'
p936
asS'gene'
p937
(lp938
S'ND5'
p939
asS'protein_id'
p940
(lp941
S'NP_008222.1'
p942
assbag1
(g125
g3
NtRp943
(dp944
g128
(lp945
sg130
S''
sg131
g132
sg46
g1
(g79
g3
NtRp946
(dp947
g82
Nsg83
g1
(g84
g85
I14095
tRp948
sg87
g1
(g84
g85
I13570
tRp949
sg89
I-1
sg90
Nsbsg137
S'gene'
p950
sg139
(dp951
S'db_xref'
p952
(lp953
S'GeneID:807888'
p954
asS'gene'
p955
(lp956
S'ND6'
p957
assbag1
(g125
g3
NtRp958
(dp959
g128
(lp960
sg130
S''
sg131
g132
sg46
g1
(g79
g3
NtRp961
(dp962
g82
Nsg83
g1
(g84
g85
I14095
tRp963
sg87
g1
(g84
g85
I13570
tRp964
sg89
I-1
sg90
Nsbsg137
S'CDS'
p965
sg139
(dp966
S'product'
p967
(lp968
S'NADH dehydrogenase subunit 6'
p969
asS'codon_start'
p970
(lp971
S'1'
asS'transl_table'
p972
(lp973
S'2'
asS'db_xref'
p974
(lp975
S'GI:5835154'
p976
aS'GeneID:807888'
p977
asS'translation'
p978
(lp979
S'MTYVLFLLSVGLVMGFVGFSSKPSPIYGGLVLIVSGVVGCAIILNCGGGYMGLMVFLIYLGGMMVVFGYTTAMAIGEYPEAWGSGVEVLVSVLVGLAMEVGLVLWVKEYDGVVVVVNFNNVGSWMIYEGEGSGLIREDPIGAGALYDYGRWLVVVTGWTLFVGVYIVIEIARGN'
p980
asS'gene'
p981
(lp982
S'ND6'
p983
asS'protein_id'
p984
(lp985
S'NP_008223.1'
p986
assbag1
(g125
g3
NtRp987
(dp988
g128
(lp989
sg130
S''
sg131
g132
sg46
g1
(g79
g3
NtRp990
(dp991
g82
Nsg83
g1
(g84
g85
I14164
tRp992
sg87
g1
(g84
g85
I14095
tRp993
sg89
I-1
sg90
Nsbsg137
S'tRNA'
p994
sg139
(dp995
S'product'
p996
(lp997
S'tRNA-Glu'
p998
assbag1
(g125
g3
NtRp999
(dp1000
g128
(lp1001
sg130
S''
sg131
g132
sg46
g1
(g79
g3
NtRp1002
(dp1003
g82
Nsg83
g1
(g84
g85
I15309
tRp1004
sg87
g1
(g84
g85
I14168
tRp1005
sg89
I1
sg90
Nsbsg137
S'gene'
p1006
sg139
(dp1007
S'db_xref'
p1008
(lp1009
S'GeneID:807889'
p1010
asS'gene'
p1011
(lp1012
S'CYTB'
p1013
assbag1
(g125
g3
NtRp1014
(dp1015
g128
(lp1016
sg130
S''
sg131
g132
sg46
g1
(g79
g3
NtRp1017
(dp1018
g82
Nsg83
g1
(g84
g85
I15309
tRp1019
sg87
g1
(g84
g85
I14168
tRp1020
sg89
I1
sg90
Nsbsg137
S'CDS'
p1021
sg139
(dp1022
S'product'
p1023
(lp1024
S'cytochrome b'
p1025
asS'transl_except'
p1026
(lp1027
S'(pos:15309,aa:TERM)'
p1028
asS'codon_start'
p1029
(lp1030
S'1'
asS'transl_table'
p1031
(lp1032
S'2'
asS'note'
p1033
(lp1034
S"TAA stop codon is completed by the addition of 3' A residues to the mRNA"
p1035
asS'db_xref'
p1036
(lp1037
S'GI:5835162'
p1038
aS'GeneID:807889'
p1039
asS'translation'
p1040
(lp1041
S'MTPMRKTNPLAKLINHSFIDLPTPSNISTWWNFGSLLGACLILQITTGLFLAMHYSPDASTAFSSIAHITRDVNYGWTIRYLHANGASMFFICLFLHIGRGLYYGSFLHQETWNIGIILLLTTMAAAFMGYVLPWGQMSFWGATVITNLLSAIPYIGTDLVQWVWGGYSVDSPTLTRFFTFHFILPFIITALTTLHLLFLHETGSNNPLGIPSHSDKITFHPYYTIKDILGLFLFLLTLMTLTLFSPDLLGDPDNYTLANPLSTPPHIKPEWYFLFAYAILRSVPNKLGGVLALLLSILILAMIPILHMSKQQSMMFRPLSQLLYWFLIADLFTLTWIGGQPVSYPFITIGQVASVLYFTTILFLMPITSLIENKMLKWT'
p1042
asS'gene'
p1043
(lp1044
S'CYTB'
p1045
asS'protein_id'
p1046
(lp1047
S'NP_008224.1'
p1048
assbag1
(g125
g3
NtRp1049
(dp1050
g128
(lp1051
sg130
S''
sg131
g132
sg46
g1
(g79
g3
NtRp1052
(dp1053
g82
Nsg83
g1
(g84
g85
I15377
tRp1054
sg87
g1
(g84
g85
I15309
tRp1055
sg89
I1
sg90
Nsbsg137
S'tRNA'
p1056
sg139
(dp1057
S'product'
p1058
(lp1059
S'tRNA-Thr'
p1060
assbag1
(g125
g3
NtRp1061
(dp1062
g128
(lp1063
sg130
S''
sg131
g132
sg46
g1
(g79
g3
NtRp1064
(dp1065
g82
Nsg83
g1
(g84
g85
I15446
tRp1066
sg87
g1
(g84
g85
I15378
tRp1067
sg89
I-1
sg90
Nsbsg137
S'tRNA'
p1068
sg139
(dp1069
S'product'
p1070
(lp1071
S'tRNA-Pro'
p1072
assbag1
(g125
g3
NtRp1073
(dp1074
g128
(lp1075
sg130
S''
sg131
g132
sg46
g1
(g79
g3
NtRp1076
(dp1077
g82
Nsg83
g1
(g84
g85
I16364
tRp1078
sg87
g1
(g84
g85
I15446
tRp1079
sg89
I1
sg90
Nsbsg137
S'D-loop'
p1080
sg139
(dp1081
sbasS'_seq'
p1082
g1
(cBio.Seq
Seq
p1083
g3
NtRp1084
(dp1085
S'alphabet'
p1086
g1
(cBio.Alphabet.IUPAC
IUPACAmbiguousDNA
p1087
g3
NtRp1088
sS'_data'
p1089
S'GTTTATGTAGCTTACCTCCCCAAAGCAATACACTGAAAATGTTTCGACGGGCTCACATCACCCCATAAACAAATAGGTTTGGTCCTAGCCTTTCTATTAACTCTTAGTAGGATTACACATGCAAGCATCCCCGCCCCAGTGAATCACCCTCTAAATCACCACGATCAAAAGGAACAAGCATCAAGTACGCAGAAATGCAGCTCAAAACGCTTAGCCTAGCCACACCCCCACGGGGGACAGCAGTGATTAACCTTTAGCAATAAACGAAAGTTTAACTAAGCCATACTAACCCCAGGGTTGGTCAATTTCGTGCCAGCCACCGCGGTCACACGATTAACCCAAGCCAATAGAAATCGGCGTAAAGAGTGTTTTAGATCAATCCCCAATAAAGCTAAAATTCACCTGAGTTGTAAAAAACTCCAGCTGATATAAAATAAACTACGAAAGTGGCTTTAATATATCTGAACACACAATAGCTAGGACCCAAACTGGGATTAGATACCCCACTATGCCTAGCCCTAAACTTCAACAGTTAAATTAACAAGACTGCTCGCCAGAACACTACGAGCCACAGCTTAAAACTCAAAGGACCTGGCGGTGCTTCATATCCCTCTAGAGGAGCCTGTTCTGTAATCGATAAACCCCGATCAACCTCACCACCTCTTGCTCAGCCTATATACCGCCATCTTCAGCAAACCCTGATGAAGGCCACAAAGTAAGCACAAGTACCCACGTAAAGACGTTAGGTCAAGGTGTAGCCCATGAGGTGGCAAGAAATGGGCTACATTTTCTACTTCAGAAAACTACGATAACCCTTATGAAACCTAAGGGTAGAAGGTGGATTTAGCAGTAAACTAAGAGTAGAGTGCTTAGTTGAACAGGGCCCTGAAGCGCGTACACACCGCCCGTCACCCTCCTCAAGTATACTTCAAAGGACATTTAACTAAAACCCCTACGCATCTATATAGAGGAGATAAGTCGTAACATGGTAAGTGTACTGGAAAGTGCACTTGGACGAACCAGAGTGTAGCTTAACACAAAGCACCCAACTTACACTTAGGAGATTTCAACTCAACTTGACCGCTCTGAGCAAAACCTAGCCCCAAACCCACCCCACATTACTACCAAACAACTTTAATCAAACCATTTACCCAAATAAAGTATAGGCGATAGAAATTGTAAATCGGCGCAATAGATATAGTACCGCAAGGGAAAGATGAAAAAATATAACCAAGCACGACACAGCAAGGACTAACCCCTGTACCTTCTGCATAATGAATTAACTAGAAATAACTTTGCAAAGAGAACCGAAGCTAAGACCCCCGAAACCAGACGAGCTACCTAAGAACAGCTAAAAGAGCACACCCGTCTATGTAGCAAAATAGTGGGAAGATTCCTAGGTAGAGGCGACAAACCTACCGAGCCTGGTGATAGCTGGTTGTCCAAGACAGAATCTTAGTTCAACTTTAAATTTACCCACAGAACCCTCCAAATCCTCCCGTAAATTTAACTGTTAGTCCAAAGAGGAACAGCTCTTTGGACACTAGGAAAAAACCTTGTAAAGTGAGTAAAAAATTTAATACCCATAGTAGGCCTAAAAGCAGCCACCAATTAAGAAAGCGTTCAAGCTCAACACTATCACCCAAAATAATCCCAAACACACAACTGAACTCCCTACACCCAATTGGACCAATCTATTACCCTATAGAAGAGCTAATGTTAGTATAAGTAACATGAAACCATTCTCCTCCGCATAAGCCTACATCAGACCAAAATATTAAACTGACAATTAACAACTCAATATCTACAACTAACCAACAAGCTATTATTACCCCCACTGTTAACCCAACACAGGCATGCCCACGAGGAAAGGTTGAAAAAAGTAAAAGGAACTCGGCAAATTTTACCCCGCCTGTTTACCAAAAACATCACCTCTAGCATTACCAGTATTAGAGGCACCGCCTGCCCAGTGACATGCGTTCAACGGCCGCGGTACCCTAACCGTGCAAAGGTAGCATAATCACTTGTTCCTTAAATAGGGACTCGTATGAATGGCTCCACGAGGGTTCAGCTGTCTCTTACTTTTGACCAGTGAAATTGACCTGCCCGTGAAGAGGCGGACATAACATAACAAGACGAGAAGACCCTATGGAGCTTTAATTCATTAATGCAAGCAACACTTAATAAACCCACAGGTCCTAAACTACCAAACCTGCATTAAAAATTTCGGTTGGGGCGACCTCGGAGTATAATCTAACCTCCGAACAACACATGCCAAGACTTCACCAGTCAAAGCGAGCTACCACATTTAATTGATCCAATGACTTGACCAACGGAACAAGTTACCCTAGGGATAACAGCGCAATCCTATTCTAGAGTCCATATCAACAGTAGGGTTTACGACCTCGATGTTGGATCAGGACATCCCGATGGTGCAGCCGCTATCAAAGGTTCGTTTGTTCAACGATTAAAGTCCTACGTGATCTGAGTTCAGACCGGAGTAATCCAGGTCGGTTTCTATCTATTCCGTGTTTCTCCCTGTACGAAAGGACAAGAGAAACGAGGCCTACTTCACAAAGCGCCTCCCCCCGTAAATGATACTATCTCAATTTAATATAGCGCCCACATCTACTCAAGAATAGGGTTTGTTAAGATGGCAGAGCCCGGTAATCGCATAAAACTTAAAACTTTATAGTCAGAGGTTCAATTCCTCTTCTTAACAATATATCCATGGCTAACCTTCTACTCCTCATTGTACCTATCCTAATCGCCATAGCATTCCTAATGCTAACCGAACGAAAAATTTTAGGCTATATACAACTACGTAAAGGCCCCAACGTCGTAGGCCCCTACGGGCTACTACAACCCTTCGCTGACGCCATAAAACTCTTCACCAAAGAGCCCCTAAAACCCTCAACATCAACCATCACCCTCTACATCACCGCCCCAACCTTAGCTCTCACTATTGCCCTACTATTATGAACCCCCCTCCCCATACCCAACCCCCTAGTCAATCTCAATCTAGGCCTCCTATTCATCCTAGCCACCTCTAGCCTAGCCGTTTACTCCATCCTCTGATCAGGGTGGGCATCAAACTCAAACTACGCCTTGATCGGCGCACTACGAGCAGTAGCCCAAACAATCTCATATGAAGTCACCCTGGCCATTATCCTACTATCAACACTACTGATGAATGGTTCCTTTAACCTCTCCACCCTCATCATAACACAAGAACACCTCTGACTGCTCCTACCAACATGACCCTTAGCTATAATATGATTTATCTCCACATTAGCAGAAACCAACCGGACCCCCTTCGACCTCGCTGAAGGAGAATCTGAACTAGTCTCAGGCTTTAATATCGAATATGCCGCAGGCCCCCTCGCCCTATTTTTCATAGCCGAGTACATAAATATTATCATAATAAATACTCTCACCACTATAATTTTCCTAGGAACAACATACAATGCCCACTCCCCTGAACTCTACACAGTATGCTTCATCACCAAAACCCTGCTTCTAACCTCTCTATTCCTATGAATTCGAACTGCATATCCTCGATTTCGCTACGACCAACTCATGCACCTCCTGTGAAAAAACTTCTTGCCACTCACCCTGGCACTACTCATATGATATATTTCCATACCTACCACAATCTCCAGCATTCCCCCTCAAACCTAAGAAATATGTCTGATAAAAGAGTTACTTTGATAGAGTAAATAATAGAGGTTTAAACCCCCTTATTTCTAGGACTATGAGAATTGAACCCATCCCTGAGAATCCAAAATTCTCCGTGCCACCTGTCACACCCCATCCTAAAGTAAGGTCAGCTAAATAAGCTATCGGGCCCATACCCCGAAAATGTTGGTCACATCCTTCCCGTACTAATTAACCCCCTGGCCCAACCCATCATCTACTCTACCATCTTCGCAGGCACTCTTATTACAGCACTAAGCTCCCACTGATTTTTTGCCTGAGTAGGCCTAGAAATAAACATACTAGCTTTTATCCCAGTCCTAACCAAAAAAATAAATCCCCGCTCCACAGAAGCCGCCATCAAATATTTCCTCACACAAGCAACTGCATCCATAATCCTCCTAATAGCCATCCTCTCCAACAACATACTCTCCGGACAATGAACCACAACCAATGCCACTAATCAATACTCATCATTAATGATCGTAGTAGCTATAGCTATAAAACTAGGAATAGCCCCCTTTCACTTCTGAGTGCCAGAAGTCACCCAAGGCACCCCCCTAATGTCTGGCCTACTCCTCCTCACATGACAAAAACTAGCCCCTATGTCAATCATATACCAAATTTCCTCGTCAACAAATGTAAGCCTTCTCCTCACTCTTTCAATCCTATCCATCCTAGCAGGCAGCTGAGGCGGACTAAACCAAACTCAACTACGCAAGATTCTAGCATACTCCTCAATCACCCATGTAGGATGAATAATAGCAGTTCTACCATATAACCCTAATATAACTATTCTTAATCTGACCATTTATATTATCCTCACTACTACCACATTCCTATTACTCAACCTAAGCTCCAGCACCACAACCTTACTACTATCTCGTACTTGAAATAAACTGACATGATTAACACCTCTAATCCCCTCCACCCTCCTCTCCCTAGGAGGTCTACCCCCACTAACCGGCTTCCTACCCAAATGGCTTATTATCGAAGAATTCACAAAAAATAACGACCTCATTACCCCCACCATTATGGCCATCATCACCCTCCTCAACCTCTATTTCTATCTACGCCTAATTTACTCCACCTCTATCACACTACTACCCATATCCAACAACGTAAAGATAAAATGACAGCTCGAATATACTAAACCCACTCCCTTCCTCCCTACACTTATCACACTCACCACCCTACTTCTACCCATCTCCCCCTTCATACTAATAGTTCTATAGAAATTTAGGTTAAACATAGACCAAGAGCCTTCAAAGCCCTTAGTAAGTTACAACACTTAATTTCTGCAACAACTAAGGACTGCAAAACCCTACTCTGCATCAACTGAACGCAAATCAGCCACTTTAATTAAGCTAAGCCCTTACTAGATCAATGGGACTCAAACCCACAAACATTTAGTTAACAGCTAAACACCCTAGTCAACTGGCTTCAATCTACTTCTCCCGCCGCAAGAAAAAAAGGCGGGAGAAGCCCCGGCAGGTTTGAAGCTGCTTCTTCGAATTTGCAATTCAATATGAAATTCACCTCGGAGCTGGTAAAAAGAGGCCCAGCCTCTGTCTTTAGATTTACAGTCCAATGCCTTACTCAGCCATTTTACCTCCTTTTTTCCACTGATGTTCACCGACCGCTGATTATTCTCTACAAACCATAAAGATATTGGAACACTATATCTACTATTCGGCGCATGAGCTGGAGTCCTAGGCACAGCCCTAAGTCTCCTTATTCGAGCAGAACTTGGTCAACCAGGCAACCTTCTAGGTAACGATCACATCTATAATGTTATCGTCACAGCCCATGCGTTCGTAATAATTTTCTTCATAGTAATGCCTATCATAATCGGAGGCTTTGGCAACTGGCTAGTACCCTTAATAATTGGTGCCCCCGACATGGCATTCCCCCGCATAAACAACATAAGCTTCTGACTCCTTCCCCCTTCTTTCCTACTTCTGCTCGCATCCGCTATAGTAGAAGCCGGCGCAGGGACTGGTTGGACAGTCTACCCTCCCTTAGCAGGAAATTATTCCCACCCCGGAGCTTCTGTAGACCTAACCATTTTTTCCCTACACCTAGCAGGCATCTCCTCTATTCTAGGGGCCATCAACTTCATTACAACAATCATCAATATAAAACCCCCCGCCATAACCCAATACCAAACACCCCTTTTCGTCTGATCCGTCCTAATCACAGCAGTCTTACTTCTTCTATCTCTCCCAGTACTAGCTGCTGGAATTACCATATTATTAACAGACCGTAACCTCAACACCACCTTTTTCGACCCAGCCGGAGGAGGAGATCCTATCCTATACCAACACTTATTCTGATTTTTTGGACACCCCGAAGTTTACATTCTAATCCTACCAGGCTTCGGAATAATCTCCCACATTGTAACTTATTACTCCGGAAAAAAAGAACCATTCGGATATATAGGTATAGTCTGAGCTATAATATCAATTGGTTTCCTGGGATTTATTGTGTGAGCCCACCACATATTTACAGTAGGAATAGACGTAGATACACGAGCCTACTTCACCTCCGCTACCATAATCATCGCTATCCCCACCGGCGTCAAAGTATTCAGCTGACTCGCTACACTCCATGGAAGTAATACCAAATGATCTGCCGCAATGCTCTGAGCCCTAGGGTTCATTTTTCTCTTCACTGTAGGCGGCCTAACCGGCATCGTACTAGCAAACTCGTCATTAGATATCGTGCTGCACGACACATATTACGTCGTAGCTCACTTCCACTATGTCCTATCTATAGGAGCTGTGTTCGCCATCATAGGGGGCTTTATTCACTGATTTCCCCTATTCTCAGGCTACACTCTAGATCAAACCTACGCCAAAATCCACTTTGCCATCATATTCATTGGCGTTAATCTAACCTTCTTCCCACAACACTTTCTTGGCCTATCTGGAATACCCCGACATTACTCGGACTACCCCGATGCATATACTACATGAAATATCCTGTCATCCGTGGGCTCATTCATTTCCCTAACAGCAGTAATATTAATAATTTTTATAATCTGAGAAGCCTTCGCCTCAAAACGAAAAGTCCTAATAATCGAAGAACCCTCCACAAATCTGGAGTGACTGTATGGATGCCCTCCACCCTATCATACATTTGAAGAGTCTGTATATATAAAGTCTAAACAAAAAAGGAAGGAATCGAACCCCCCAAAGCTGGTTTCAAGCCAACCCCATGACCTTCATGACTTTTTCAAAAAGATATTAGAAAAACTATTTCATAACTTTGTCAAGGTTAAATTACGGGTTAAACCCCGTATATCTTAATGGCACATGCAGCGCAAGTAGGTCTACAAGACGCTACTTCTCCTATCATAGAAGAACTAATCATCTTTCATGATCATGCCCTCATAATCATTTTTCTCATCTGCTTCTTAGTCCTGTACGCCCTTTTCCTAACACTCACAACAAAGCTAACTAACAACAACATCTCAGACGCCCAAGAAATAGAGACCATCTGAACCATCCTGCCCGCTATTATCTTAGTCCTGATCGCCCTCCCATCTCTACGAATCCTCTATATGACAGATGAAATCAATGACCCCTCCTTCACTATCAAATCAATCGGTCACCAATGATACTGAACCTACGAATACACCGACTATGGTGGATTGATCTTTAACTCCTATATACTCCCCCCATTATTCCTAGAACCAGGTGACCTACGACTCCTTGACGTCGACAACCGAGTAGTCCTTCCAGTTGAAGCCCCCGTCCGTATAATAATTACATCCCAAGATGTCTTACACTCATGAGCTGTTCCCACATTAGGCCTAAAAACAGACGCAATCCCCGGGCGCCTGAACCAAACCACATTCACCGCCACACGACCAGGAGTATACTACGGCCAGTGCTCAGAAATCTGTGGAGCCAACCACAGTTTTATGCCCATTGTTCTAGAGCTAATCCCCCTAAAAATCTTTGAAATAGGACCCGTATTCGCCCTATAATACCCCTCTCATCCCTCTCCAGAGCTCACTGTAAAGCTAACCTAGCGTTAACCTTTTAAGTTAAAGATTAAGAGTATCGGCACCTCTTTGCAGTGAAATGCCCCAGCTAAATACCACCGTATGGCCCACCATAATTGCCCCAATACTCCTCACACTATTTCTCATTACCCAACTAAAAGTTTTAAACACAAATTACCACCTACCCCCCTTACCAAAAACTATAAAAATAAAAAACTTCTGTAAACCCTGAGAACCAAAATGAACGAAAATTTATTCGCTTCATTCATTGCCCCCACAATCCTAGGCTTACCCGCCGCAGTATTAATTATCCTACTTCCCCCTCTACTGATCCCCACCTCCAAATATCTCATCAACAACCGACTGATTGCCACCCAACAGTGACTAATCCAACTAACCTCAAAACAAATAATAACTATACATAACGCCAAGGGACGAACCTGATCCCTTATGTTAATATGATTAATTATTTTTATTGCCACAACCAACCTCCTCGGACTCTTGCCCCACTCATTCACACCAACTACCCAGCTATCTATAAACCTGGCCATAGCCATCCCCCTGTGAGCAGGCGCAGTAACTACAGGCTTTCGCTCCAAGACTAAAAATGCCCTAGCCCACCTACTACCACAAGGCACCCCTACACCCCTTATCCCTATACTAGTCATCATTGAAACCATCAGCCTATTCATCCAACCAATAGCCCTAGCTGTACGCCTAACCGCTAACATCACTGCAGGTCACCTACTTATGCACCTAATCGGAAGCGCCACACTAGCAATATCAACTACCAATCTTCCCTCAACACTCATTATCTTTACAGTCCTAATTTTATTAACTATACTAGAAATCGCTGTCGCCCTCATCCAAGCCTACGTTTTCACACTTTTAGTGAGCCTCTACCTGCACGAGAACACATAATGATCCACCAATCACATGCCTATCACATAGTAAAACCCAGCCCATGACCCCTAACAGGGGCCCTCTCAGCCCTCCTAATAACCTCAGGCTTAGCCATATGATTCCACTTCCACTCTACAACCCTACTCATACTAGGCCTACTAACCAACATACTAACTATATACCAATGATGACGTGATGTAATGCGAGAAAGCACGTACCAAGGCCACCATACACTACCCGTCCAAAAAGGCTTACGATATGGAATGATCCTATTTATTACCTCAGAAGTCTTTTTCTTCGCAGGATTCTTCTGAGCTTTCTACCACTCCAGCCTAGCCCCTACCCCTCAACTAGGAGCACACTGACCCCCAACAGGCATCACCCCACTAAACCCCCTAGAAGTTCCACTTTTAAATACATCTGTACTGCTCGCATCAGGTGTCTCAATTACCTGAGCCCACCATAGCCTAATAGAAAATAACCGTAACCAAATAATTCAAGCACTACTTATCACAATTTTACTGGGCCTCTACTTCACCCTCCTACAAGCCTCAGAGTACTTTGAAGCCCCCTTTACCATTTCCGATGGTATCTATGGCTCAACATTTTTTGTAGCCACAGGCTTTCACGGGCTCCACGTCATCATTGGGTCAACTTTCCTCACTATCTGTCTTATTCGCCAACTAATATTTCACTTTACATCCAAACACCACTTCGGCTTCGAAGCCGCCGCTTGGTATTGGCACTTCGTAGATGTAGTCTGACTATTCCTATACGTCTCCATCTACTGATGAGGGTCCTACTCTTTTAGTATAATTAGTACCGTTAACTTCCAATTAACCAGTTTTGGTAGTACCCAAAAAAGAGTAATAAACTTCGCCCTGATCTTAATAACCAACACCCTTCTAGCCCTACTACTAATAATTATTACATTTTGACTACCGCAACTTAACAGCTACATAGAAAAAACTAACCCCTACGAATGTGGTTTCGACCCCGTATCCCCCGCCCGCATTCCTTTCTCCATAAAATTTTTCCTAGTAGCCATCACTTTCTTACTATTTGACCTAGAAATTGCCCTCCTATTGCCCCTGCCATGAGCCCTACAAACAACCAACTTACCACTAATAGTCATGTCATCCCTCTTATTAATCATTATCCTAACCCTAAGTCTAGCCTACGAATGACTGCAAAAAGGACTAGACTGGACCGAATTGGTACATAGTTTAAACAAAACGAATGATTTCGACTCATTAAATTATGATAATCATATTTACCAAATGCCCCTTATTTACATAAACATTATACTAGCATTTACCATCTCACTTCTAGGAATACTAGTGTACCGTTCACACCTAATATCCTCCCTACTATGCCTAGAAGGAATAATATTATCACTATTCATTATAGCTACTCTCATAACCCTCAATACCCACTTCCTCTTAGCTAACATTGTACCCATCACCATACTAGTCTTTGCTGCCTGTGAAGCAGCAGTAGGCCTAGCCCTACTAGTCTCAATCTCTAACACATATGGTCTTGACTATGTACAAAACCTAAACCTGCTCCAATGCTAAAACTAATCGCCCCAACAATTATACTACTACCGCTAACATGACTCTCCAAAAAACATATAATTTGAATCAACACAACCACCCACAGCCTAATCATCAGCATCATTCCCCTACTATTTTTTAACCAAATTAATAACAATCTATTTAGTTACTCCCTATCTTTTTCCTCCGACCCCCTAACGACCCCCCTCCTAATATTAACTACCTGACTCCTACCCCTTACAATTATAGCAAGCCAGCGCCACCTATCCAACGAACCACTATCACGAAAAAAACTCTATCTCTCCATATTAATCTCCCTCCAAATCTCCTTAATCATAACATTCACAGCCACAGAACTAATCATATTCTATATCTTCTTCGAAGCCACACTTATCCCTACCCTAGTTATCATCACCCGATGAGGCAACCAACCCGAACGTCTAAACGCGGGTACATACTTCCTATTCTACACCCTAGTAGGATCCCTCCCCCTACTTATCGCATTAATCCACACTCACAACACCTTAGGCTCACTAAATATTCTATTACTCACCCTTACTGCCCAAGAACTACCTAACTCCTGAGCCAACAACTTAATATGACTGGCATACACAATAGCCTTTATAGTGAAAATACCACTTTACGGGCTCCACCTATGACTCCCTAAGGCCCATGTTGAGGCCCCCATTGCTGGCTCAATGATGCTCGCTGCAGTACTCTTAAAATTAGGTGGCTATGGCATAATACGCCTCATACTCATTCTTAACCCCCTAACAAAACACATAGCTTATCCTTTCCTCGCCCTATCTTTATGGGGTATAATCATAACAAGCTCCATCTCGCTACGGCAAACAGATTTAAAATCGCTCATTGCATACTCCTCAATTAGCCACATAGCCCTTGTAGTAGCAGCTATCCTTATCCAAACCCCCTGAAGCTTCACCGGCGCAGTTGTTCTTATAATTGCCCACGGACTTACATCATCATTATTATTCTGCCTAGCAAACTCAAACTACGAACGAACCCACAGCCGCATCATAATTCTCTCTCAAGGACTCCAAACCCTACTCCCACTAATAGCCCTTTGATGACTTCTGGCAAGCCTCGCCAACCTCGCCTTACCCCCCACCATTAACCTACTAGGAGAGCTCTCCGTACTAGTAACCACATTCTCCTGATCAAACACCACCCTTTTACTTACAGGATCTAACATACTAATTACAGCCCTGTACTCCCTTTATATATTTACCACAACACAATGAGGCCCACTCACACACCACATCACCAACATAAAACCCTCATTTACACGAGAAAACATCCTCATATTCATGCACCTATCCCCCATCCTCCTCCTATCCCTCAACCCCGATATTATCACCGGGTTTACCTCCTGTAAATATAGTTTAACCAAAACATCAGATTGTGAATCTGATAACAGAGGCTCACAACCCCTTATTTACCGAGAAAGCTCGTAAGAGCTGCTAACTCATACCCCCGTGCTTAACAACATGGCTTTCTCAACTTTTAAAGGATAACAGCTATCCATTGGTCTTAGGACCCAAAAATTTTGGTGCAACTCCAAATAAAAGTAATAACTATGTACGCTACCATAACCACCTTAGCCCTAACTTCCTTAATTCCCCCTATCCTTACCACCTTCATCAATCCTAACAAAAAAAGCTCATACCCCCATTACGTAAAATCTATCGTCGCATCCACCTTTATCATCAGCCTCTTCCCCACAACAATATTTCTATGCCTAGACCAAGAAGCTATTATCTCAAGCTGACACTGAGCAACAACCCAAACAATTCAACTCTCCCTAAGCTTTAAACTAGATTATTTCTCCATAATATTTATCCCTGTAGCACTGTTCGTCACATGATCCATCATAGAATTCTCACTATGATATATAAACTCAGACCCCAACATCAACCAATTCTTCAAATACCTGCTCATCTTTCTAATCACCATACTAATCCTAGTCACCGCTAATAACCTGTTTCAACTCTTTATCGGCTGAGAAGGTGTGGGAATTATATCTTTTCTACTCATTGGCTGATGATACGCTCGAACAGACGCCAACACAGCAGCCGTCCAAGCAATTCTATACAACCGTATTGGTGACATTGGTTTTATCCTAGCCCTAGCATGATTTCTCCTACACTCCAACTCATGAGACCCACAACAAATATCTCTCTTAAACACCAACCCTAACCTTATCCCACTTCTAGGTTTCCTCCTAGCAGCAGCAGGCAAATCAGCTCAACTAGGCCTCCACCCCTGACTCCCCTCGGCCATAGAAGGCCCCACCCCCGTCTCAGCCCTACTCCACTCAAGCACTATAGTCGTGGCAGGGGTCTTCCTACTCATCCGCTTCCGCCATTTAGCAGAAAACAACTCACTAGCTCAAACTCTTACACTATGCCTAGGCGCTATTACTACTCTATTCGCGGCAGTCTGCGCTCTCACACAAAATGATATCAAAAAAATCGTAGCCTTCTCCACTTCAAGCCAATTAGGGCTCATAGTAGCCACAATTGGCATCGGCCAGCCACACCTAGCATTTCTACACATCTGCACCCACGCTTTCTTTAAAGCCATATTATTTATATGCTCCGGATCCATTATCCATAACCTCAATAATGAGCAAGACATCCGAAAAATAGGAGGTCTGCTCAAAGCCATACCCCTTACTTCAACCTCCCTAGCCATTGGCAGCCTAGCACTAATAGGAATACCTTTTCTCACAGGCTTCTACTCCAAAGACCTCATCATCGAAACCGCAAACATATCACACACAAACGCCTGGGCCCTATCAATCATTCTCATCGCCACCTCTCTTACGAGTGCCTACAGCACTCGAATAATCCTTCTCACCCTGACAGGTCAACCTCGCTTCCCAACCTTTGCCAACATCAACGAAAACTACTCCACCCTATTAAATCCTATTAAACGCCTAACAATTGGAAGCCTGTTTGCAGGATTCTTCATCACCAACAACATCCTCCCTACATCCGTACCCCAAATGACAATCCCACTTTACTTAAAACTTACAGCTCTAAGCATCACTCTCCTAGGACTCCTGACAGCCCTAGACCTCAACTACCTCACCAACAAACTCAAAATAAAACACCCACCACACACATTTTACTTCTCCAACATACTCGGATTTTACCCCAACATCACACACCGCACAATTCCCTATCTAGGCCTTCTCATAAGTCAAAATCTACCCCTACTCCTCCTAGACCTAATTTGACTAGAAAAACTACTACCCAAAACAATCTCACAGCATCAAATCTCAGCCTCCATCACTACCTCTACCCAAAAAGGTTTGATCAAACTGTACTTCCTCTCTTTCTTCTTCCCTCTTCTTTTAATCCTTCTTCTAATCACATAACCTATTACCCCGAGCAATCTCAATCACAATATATACACCAACAAATAACGTCCAACCAGTAACCACTACCAATCAACGCCCATAATCATACAAAGCCCCCGCACCAATAGGATCTTCCCGAATTAACCCTGAACCTTCCCCCTCATAAATCATTCAACTCCCCACATTATTAAAATTCACCACAACCACCACCCCATCATACTCTTTCACCCACAACACCAGCCCCACCTCCATTGCTAACCCCACTAAGACACTCACCAAGACCTCAACCCCAGACCCCCACGCCTCAGGATACTCCCCAATGGCCATCGCTGTAGTATACCCAAAAACAACCATCATCCCCCCTAAATAAATTAAAAAAACCATTAAACCCATATAACCTCCCCCACAGTTTAAAATAATAGCACACCCAACCACACCACTAACAATCAACACTAAACCCCCATAAATAGGAGAAGGCTTAGAGGAAAACCCCACAAACCCCATTACTAAACCCACACTCAATAAAAATAAAACATATGTCATCATTCTCGCACGGACCACGACCGCGACTAATGATATGAAAAACCATCGTTGTACTTCAACTACAAGAACATCAATGACCCCTATACGCAAAACTAACCCACTAGCAAAACTAATTAACCACTCATTCATTGACCTCCCTACCCCGTCCAACATCTCCACATGATGAAACTTCGGCTCACTCCTTGGTGCCTGCTTAATCCTTCAAATCACCACAGGGCTATTCCTAGCCATACACTACTCACCTGATGCCTCAACCGCCTTCTCATCAATTGCCCACATCACCCGAGATGTAAACTATGGCTGAACCATCCGCTACCTCCACGCTAACGGCGCCTCAATATTCTTCATTTGCCTCTTTCTACACATCGGACGGGGCCTATACTACGGCTCATTTCTCCACCAAGAAACCTGAAACATCGGCATCATCCTCCTACTCACAACCATAGCAGCAGCCTTCATAGGCTATGTCCTCCCATGAGGCCAAATATCCTTCTGAGGAGCCACAGTAATCACAAACTTGCTATCCGCCATCCCGTACATCGGAACAGACCTAGTCCAATGAGTTTGAGGTGGTTACTCAGTAGATAGCCCTACCCTTACACGATTCTTTACCTTCCACTTTATCCTACCCTTCATCATCACAGCCCTAACAACCCTCCATCTCCTATTTCTACACGAAACAGGATCAAACAACCCTCTAGGCATCCCCTCCCACTCTGACAAAATCACCTTCCACCCCTACTACACAATCAAAGACATCCTAGGCCTATTCCTCTTTCTCCTGACCTTGATAACATTAACACTATTCTCACCAGACCTCCTAGGAGACCCAGACAACTACACCTTAGCCAACCCCCTAAGCACCCCACCCCACATCAAACCCGAATGATATTTCCTATTTGCCTACGCAATTCTCCGATCTGTCCCCAATAAACTAGGAGGCGTCTTAGCTCTATTACTATCTATTCTCATCCTAGCAATAATTCCTATTCTCCACATATCCAAACAACAAAGCATAATATTCCGCCCATTAAGCCAACTACTCTACTGATTCCTAATCGCAGACCTCTTCACCCTAACCTGAATCGGAGGACAACCAGTAAGCTACCCCTTCATCACCATTGGGCAAGTAGCATCCGTACTATACTTCACGACAATCCTATTCCTGATACCAATCACATCCCTGATCGAAAACAAAATACTCAAATGAACCTGCCCTTGTAGTACAGACCAATACACCAGTCTTGTAAACCGGAAACGAAGACCTCCTTCCAAGGGCATATTCAGAGAAAAAGTCCTCGACTCCACCATCAGCACCCAAAGCTAATATTCTAATTTAAACTATTCTCTGTTCTTTCATGGGGAGACAAATTTGGGTACTACCAGTATTAGCTAACCCATCATAATTATCATGTATGTCGTGCATTACTGCCAGACACCATGAATAATGTACAGTACCATAAAACGCCCAATCACCTGTAGCACATCCCAACGGAATACCAACTAACCCATCCCTCACAAAAAGTACATAACACATAAGATCATTTATCGCACATAGCACATCCCAGTTAAATCACCCTCGTCCCCACGGATGCCCCCCCTCAGATGGGAATCCCTTGAACACCATCCTCCGTGAAATCAATATCCCGCACAAGAGTGCACTCTCCTCGCTCCGGGCCCATAACACTTGGGGGTAGCTAAAGTGAACTGTATCCGGCATCTGGTTCCTACTTCAGGGTCATAACACCTAAAGCGCTTCACACGTTCCCCTTAAATAAGACATCACGATGGATCACAGGTCTATCACCCTATTAACCACTCACGGGAGCTCTCCATGCATTTGGTATTTTTCGTCGGGGGGTGTGCACGCGATAGTGAGACGCTGGAACCGGAGCACCACATGTCGCAGTATCTGTCTTTGATTCCTGCCCCATGCTACCATTTATCGCACCTACGTTCAATATTACAGCCGAGCGCACAGTGTTCATGGTGTTAATTAATTCATGCTTGTTGGACATAAAACAACCAGGTGGACGTGAACACAACCACCCTTCACACCAAAAACACAACAAAAATCCAACCCCCCCCCCCGCACTAGAAAACAGCCCCACCAAACTCCAAATTTCATCTTTTGGCGGTATGCACTTTTAACAGTCACCCCTCAACTAACATAGTCAGCCCACCAGTACAACCCCCGCCCGCCCTAGCAACACACACTGCTGCTGATCCTATACCCCGAATTAACCAAACCCCAAAGACACCCCACACA'
p1090
sbsS'_per_letter_annotations'
p1091
g1
(cBio.SeqRecord
_RestrictedDict
p1092
c__builtin__
dict
p1093
(dtRp1094
(dp1095
S'_length'
p1096
I16364
sbsg131
S'NC_001645.1'
p1097
sS'name'
p1098
S'NC_001645'
p1099
sb.