ccopy_reg
_reconstructor
p1
(cBio.SeqRecord
SeqRecord
p2
c__builtin__
object
p3
NtRp4
(dp5
S'dbxrefs'
p6
(lp7
S'Project:12455 BioProject:PRJNA12455'
p8
asS'description'
p9
S'Rattus norvegicus strain Wistar mitochondrion, complete genome.'
p10
sS'annotations'
p11
(dp12
S'comment'
p13
S'REVIEWED REFSEQ: This record has been curated by NCBI staff. The\nreference sequence was derived from X14848.\nOn Jul 6, 2006 this sequence version replaced gi:58615676.\nSequence Note:  NC_001665.2 represents the reference sequence for\nthe rat mitochondrial genome. In July 2006 the underlying sequence\nwas updated to represent the Brown Norway strain based on the\nrecommendation of the Rat Genome Sequencing Consortium that\nBN/SsNHsdMCW should be the reference sequence.  In conjunction with\nthis update, an alternate accession AC_000022.2 was updated to\ncontinue to represent the the Wistar strain sequence that was\npreviously considered to be the reference standard.\nfor seqs get included see V00681, K00434, J01436, X07479, X07482.\nCOMPLETENESS: full length.'
p14
sS'sequence_version'
p15
I2
sS'source'
p16
S'mitochondrion Rattus norvegicus (Norway rat)'
p17
sS'taxonomy'
p18
(lp19
S'Eukaryota'
p20
aS'Metazoa'
p21
aS'Chordata'
p22
aS'Craniata'
p23
aS'Vertebrata'
p24
aS'Euteleostomi'
p25
aS'Mammalia'
p26
aS'Eutheria'
p27
aS'Euarchontoglires'
p28
aS'Glires'
p29
aS'Rodentia'
p30
aS'Sciurognathi'
p31
aS'Muroidea'
p32
aS'Muridae'
p33
aS'Murinae'
p34
aS'Rattus'
p35
asS'keywords'
p36
(lp37
S''
asS'references'
p38
(lp39
g1
(cBio.SeqFeature
Reference
p40
g3
NtRp41
(dp42
g13
S''
sS'title'
p43
S'The complete nucleotide sequence of the Rattus norvegicus mitochondrial genome: cryptic signals revealed by comparative analysis between vertebrates'
p44
sS'consrtm'
p45
S''
sS'journal'
p46
S'J. Mol. Evol. 28 (6), 497-516 (1989)'
p47
sS'location'
p48
(lp49
g1
(cBio.SeqFeature
FeatureLocation
p50
g3
NtRp51
(dp52
S'ref'
p53
NsS'_end'
p54
g1
(cBio.SeqFeature
ExactPosition
p55
c__builtin__
int
p56
I16300
tRp57
sS'_start'
p58
g1
(g55
g56
I0
tRp59
sS'_strand'
p60
NsS'ref_db'
p61
NsbasS'pubmed_id'
p62
S'2504926'
p63
sS'authors'
p64
S'Gadaleta,G., Pepe,G., De Candia,G., Quagliariello,C., Sbisa,E. and Saccone,C.'
p65
sS'medline_id'
p66
S''
sbag1
(g40
g3
NtRp67
(dp68
g13
S''
sg43
S'Analysis of a DNA segment from rat liver mitochondria containing the genes for the cytochrome oxidase subunits i, ii, iii, atpase subunit 6, and several tRNA genes'
p69
sg45
S''
sg46
S'Curr. Genet. 4, 151-158 (1981)'
p70
sg48
(lp71
g1
(g50
g3
NtRp72
(dp73
g53
Nsg54
g1
(g55
g56
I16300
tRp74
sg58
g1
(g55
g56
I0
tRp75
sg60
Nsg61
Nsbasg62
S''
sg64
S'Grosskopf,R. and Feldmann,H.'
p76
sg66
S''
sbag1
(g40
g3
NtRp77
(dp78
g13
S''
sg43
S'tRNA genes in rat liver mitochondrial DNA'
p79
sg45
S''
sg46
S'Curr. Genet. 4, 191-196 (1981)'
p80
sg48
(lp81
g1
(g50
g3
NtRp82
(dp83
g53
Nsg54
g1
(g55
g56
I16300
tRp84
sg58
g1
(g55
g56
I0
tRp85
sg60
Nsg61
Nsbasg62
S''
sg64
S'Grosskopf,R. and Feldmann,H.'
p86
sg66
S''
sbag1
(g40
g3
NtRp87
(dp88
g13
S''
sg43
S'Direct Submission'
p89
sg45
S'NCBI Genome Project'
p90
sg46
S'Submitted (17-JUN-2008) National Center for Biotechnology Information, NIH, Bethesda, MD 20894, USA'
p91
sg48
(lp92
g1
(g50
g3
NtRp93
(dp94
g53
Nsg54
g1
(g55
g56
I16300
tRp95
sg58
g1
(g55
g56
I0
tRp96
sg60
Nsg61
Nsbasg62
S''
sg64
S''
sg66
S''
sbag1
(g40
g3
NtRp97
(dp98
g13
S''
sg43
S'Direct Submission'
p99
sg45
S''
sg46
S'Submitted (23-JAN-1995) Dipartimento di Biochimica e Biologia Molacolare, Via Amendola 165/A, 70126 Bari, Italy'
p100
sg48
(lp101
g1
(g50
g3
NtRp102
(dp103
g53
Nsg54
g1
(g55
g56
I16300
tRp104
sg58
g1
(g55
g56
I0
tRp105
sg60
Nsg61
Nsbasg62
S''
sg64
S'Saccone,C.'
p106
sg66
S''
sbag1
(g40
g3
NtRp107
(dp108
g13
S''
sg43
S'Direct Submission'
p109
sg45
S''
sg46
S'Submitted (23-MAR-1989) Dipartimento di Biochimica e Biologia Molacolare, Via Amendola 165/A, 70126 Bari, Italy'
p110
sg48
(lp111
g1
(g50
g3
NtRp112
(dp113
g53
Nsg54
g1
(g55
g56
I16300
tRp114
sg58
g1
(g55
g56
I0
tRp115
sg60
Nsg61
Nsbasg62
S''
sg64
S'Saccone,C.'
p116
sg66
S''
sbasS'accessions'
p117
(lp118
S'AC_000022'
p119
asS'data_file_division'
p120
S'ROD'
p121
sS'date'
p122
S'28-AUG-2012'
p123
sS'organism'
p124
S'Rattus norvegicus'
p125
sS'gi'
p126
S'110189662'
p127
ssS'features'
p128
(lp129
g1
(cBio.SeqFeature
SeqFeature
p130
g3
NtRp131
(dp132
S'sub_features'
p133
(lp134
sS'location_operator'
p135
S''
sS'id'
p136
S'<unknown id>'
p137
sg48
g1
(g50
g3
NtRp138
(dp139
g53
Nsg54
g1
(g55
g56
I16300
tRp140
sg58
g1
(g55
g56
I0
tRp141
sg60
I1
sg61
NsbsS'type'
p142
S'source'
p143
sS'qualifiers'
p144
(dp145
S'mol_type'
p146
(lp147
S'genomic DNA'
p148
asS'db_xref'
p149
(lp150
S'taxon:10116'
p151
asS'clone'
p152
(lp153
S'pSF2124.'
p154
asS'organelle'
p155
(lp156
S'mitochondrion'
p157
asS'strain'
p158
(lp159
S'Wistar'
p160
asS'organism'
p161
(lp162
S'Rattus norvegicus'
p163
assbag1
(g130
g3
NtRp164
(dp165
g133
(lp166
sg135
S''
sg136
g137
sg48
g1
(g50
g3
NtRp167
(dp168
g53
Nsg54
g1
(g55
g56
I67
tRp169
sg58
g1
(g55
g56
I0
tRp170
sg60
I1
sg61
Nsbsg142
S'tRNA'
p171
sg144
(dp172
S'product'
p173
(lp174
S'tRNA-Phe'
p175
assbag1
(g130
g3
NtRp176
(dp177
g133
(lp178
sg135
S''
sg136
g137
sg48
g1
(g50
g3
NtRp179
(dp180
g53
Nsg54
g1
(g55
g56
I1025
tRp181
sg58
g1
(g55
g56
I68
tRp182
sg60
I1
sg61
Nsbsg142
S'rRNA'
p183
sg144
(dp184
S'note'
p185
(lp186
S'12S ribosomal RNA'
p187
asS'product'
p188
(lp189
S's-rRNA'
p190
assbag1
(g130
g3
NtRp191
(dp192
g133
(lp193
sg135
S''
sg136
g137
sg48
g1
(g50
g3
NtRp194
(dp195
g53
Nsg54
g1
(g55
g56
I1616
tRp196
sg58
g1
(g55
g56
I900
tRp197
sg60
I1
sg61
Nsbsg142
S'STS'
p198
sg144
(dp199
S'db_xref'
p200
(lp201
S'UniSTS:272966'
p202
asS'standard_name'
p203
(lp204
S'PMC316374P5'
p205
assbag1
(g130
g3
NtRp206
(dp207
g133
(lp208
sg135
S''
sg136
g137
sg48
g1
(g50
g3
NtRp209
(dp210
g53
Nsg54
g1
(g55
g56
I1094
tRp211
sg58
g1
(g55
g56
I1025
tRp212
sg60
I1
sg61
Nsbsg142
S'tRNA'
p213
sg144
(dp214
S'product'
p215
(lp216
S'tRNA-Val'
p217
assbag1
(g130
g3
NtRp218
(dp219
g133
(lp220
sg135
S''
sg136
g137
sg48
g1
(g50
g3
NtRp221
(dp222
g53
Nsg54
g1
(g55
g56
I2653
tRp223
sg58
g1
(g55
g56
I1094
tRp224
sg60
I1
sg61
Nsbsg142
S'rRNA'
p225
sg144
(dp226
S'note'
p227
(lp228
S'16S ribosomal RNA'
p229
asS'product'
p230
(lp231
S'l-rRNA'
p232
assbag1
(g130
g3
NtRp233
(dp234
g133
(lp235
sg135
S''
sg136
g137
sg48
g1
(g50
g3
NtRp236
(dp237
g53
Nsg54
g1
(g55
g56
I2525
tRp238
sg58
g1
(g55
g56
I2339
tRp239
sg60
I1
sg61
Nsbsg142
S'STS'
p240
sg144
(dp241
S'db_xref'
p242
(lp243
S'UniSTS:210357'
p244
asS'standard_name'
p245
(lp246
S'RH136367'
p247
assbag1
(g130
g3
NtRp248
(dp249
g133
(lp250
sg135
S''
sg136
g137
sg48
g1
(g50
g3
NtRp251
(dp252
g53
Nsg54
g1
(g55
g56
I2728
tRp253
sg58
g1
(g55
g56
I2653
tRp254
sg60
I1
sg61
Nsbsg142
S'tRNA'
p255
sg144
(dp256
S'codon_recognized'
p257
(lp258
S'UUR'
p259
asS'product'
p260
(lp261
S'tRNA-Leu'
p262
assbag1
(g130
g3
NtRp263
(dp264
g133
(lp265
sg135
S''
sg136
g137
sg48
g1
(g50
g3
NtRp266
(dp267
g53
Nsg54
g1
(g55
g56
I3685
tRp268
sg58
g1
(g55
g56
I2728
tRp269
sg60
I1
sg61
Nsbsg142
S'gene'
p270
sg144
(dp271
S'db_xref'
p272
(lp273
S'GeneID:7066247'
p274
asS'gene'
p275
(lp276
S'ND1'
p277
assbag1
(g130
g3
NtRp278
(dp279
g133
(lp280
sg135
S''
sg136
g137
sg48
g1
(g50
g3
NtRp281
(dp282
g53
Nsg54
g1
(g55
g56
I3685
tRp283
sg58
g1
(g55
g56
I2728
tRp284
sg60
I1
sg61
Nsbsg142
S'CDS'
p285
sg144
(dp286
S'product'
p287
(lp288
S'NADH dehydrogenase subunit 1'
p289
asS'codon_start'
p290
(lp291
S'1'
asS'transl_table'
p292
(lp293
S'2'
asS'db_xref'
p294
(lp295
S'GI:110189663'
p296
aS'GOA:P03889'
p297
aS'InterPro:IPR001694'
p298
aS'UniProtKB/Swiss-Prot:P03889'
p299
aS'GeneID:7066247'
p300
asS'translation'
p301
(lp302
S'MYFINILTLLIPILIAMGLLTLVERKILGYMQLRKGPNNEGPYGKLQPFADAMKLFMKEPMRPLTTSMSLFIIAPTLSLTLALSLWIPLPMPHPLINLNLGMPFILATSSLSVYSILWSGWASNSKYSLFGALRAVAQTISYEVTMALYLLSVLLMSGSFSLQMLITTQEHIWLLIPAWPMAMMWYISTLAETNRAPFDLTEGESELVSGFNVEYAAGPFALFFMAEYTNIILMNALTSIVFLGPLYHINYPELYSTSFMTETLLLSTTFLWIRASYPRFRYDQLMHLLWKNFLPLTLAFCMWYISLPIFLAGIPPYT'
p303
asS'gene'
p304
(lp305
S'ND1'
p306
asS'protein_id'
p307
(lp308
S'AP_004892.1'
p309
assbag1
(g130
g3
NtRp310
(dp311
g133
(lp312
sg135
S''
sg136
g137
sg48
g1
(g50
g3
NtRp313
(dp314
g53
Nsg54
g1
(g55
g56
I3752
tRp315
sg58
g1
(g55
g56
I3683
tRp316
sg60
I1
sg61
Nsbsg142
S'tRNA'
p317
sg144
(dp318
S'product'
p319
(lp320
S'tRNA-Ile'
p321
assbag1
(g130
g3
NtRp322
(dp323
g133
(lp324
sg135
S''
sg136
g137
sg48
g1
(g50
g3
NtRp325
(dp326
g53
Nsg54
g1
(g55
g56
I3820
tRp327
sg58
g1
(g55
g56
I3749
tRp328
sg60
I-1
sg61
Nsbsg142
S'tRNA'
p329
sg144
(dp330
S'product'
p331
(lp332
S'tRNA-Gln'
p333
assbag1
(g130
g3
NtRp334
(dp335
g133
(lp336
sg135
S''
sg136
g137
sg48
g1
(g50
g3
NtRp337
(dp338
g53
Nsg54
g1
(g55
g56
I3891
tRp339
sg58
g1
(g55
g56
I3823
tRp340
sg60
I1
sg61
Nsbsg142
S'tRNA'
p341
sg144
(dp342
S'product'
p343
(lp344
S'tRNA-Met'
p345
assbag1
(g130
g3
NtRp346
(dp347
g133
(lp348
sg135
S''
sg136
g137
sg48
g1
(g50
g3
NtRp349
(dp350
g53
Nsg54
g1
(g55
g56
I4929
tRp351
sg58
g1
(g55
g56
I3891
tRp352
sg60
I1
sg61
Nsbsg142
S'gene'
p353
sg144
(dp354
S'db_xref'
p355
(lp356
S'GeneID:7066248'
p357
asS'gene'
p358
(lp359
S'ND2'
p360
assbag1
(g130
g3
NtRp361
(dp362
g133
(lp363
sg135
S''
sg136
g137
sg48
g1
(g50
g3
NtRp364
(dp365
g53
Nsg54
g1
(g55
g56
I4929
tRp366
sg58
g1
(g55
g56
I3891
tRp367
sg60
I1
sg61
Nsbsg142
S'CDS'
p368
sg144
(dp369
S'product'
p370
(lp371
S'NADH dehydrogenase subunit 2'
p372
asS'codon_start'
p373
(lp374
S'1'
asS'transl_table'
p375
(lp376
S'2'
asS'db_xref'
p377
(lp378
S'GI:110189664'
p379
aS'GOA:P11662'
p380
aS'InterPro:IPR000652'
p381
aS'InterPro:IPR001750'
p382
aS'InterPro:IPR003917'
p383
aS'InterPro:IPR010933'
p384
aS'UniProtKB/Swiss-Prot:P11662'
p385
aS'GeneID:7066248'
p386
asS'translation'
p387
(lp388
S'MNPITLTIIYLTTFKGRLITTLSTNLPPMWVGLEMSLLAIIPLLANKKSPRSTEAATKYFLTQATASMIILLVIILNYKQSGMWTLQQQTNNMLLNMMLISLAMKLGLAPFHYWLPEVTQGIPLHIGLILLTWQKIAPLSILYQFYQLLNPTITTILAISSVFVGAWGGLNQTQTRKIMAYSSIAHMGWMTAILPYNPNLTLLNLTIYILLTVPMFNYIMTNSATTINTLSLAWNKTPMILTMASIILLSLGGLPPLTGFLPKWAIISELLKNNCSTLSTLMAIMALLSLFFYTRLIYSMSLTTFPTNNNSKMISHHQNPKHNFILPTLTVLSTLTLPLSSQLIT'
p389
asS'gene'
p390
(lp391
S'ND2'
p392
asS'protein_id'
p393
(lp394
S'AP_004893.1'
p395
assbag1
(g130
g3
NtRp396
(dp397
g133
(lp398
sg135
S''
sg136
g137
sg48
g1
(g50
g3
NtRp399
(dp400
g53
Nsg54
g1
(g55
g56
I4993
tRp401
sg58
g1
(g55
g56
I4927
tRp402
sg60
I1
sg61
Nsbsg142
S'tRNA'
p403
sg144
(dp404
S'product'
p405
(lp406
S'tRNA-Trp'
p407
assbag1
(g130
g3
NtRp408
(dp409
g133
(lp410
sg135
S''
sg136
g137
sg48
g1
(g50
g3
NtRp411
(dp412
g53
Nsg54
g1
(g55
g56
I5063
tRp413
sg58
g1
(g55
g56
I4994
tRp414
sg60
I-1
sg61
Nsbsg142
S'tRNA'
p415
sg144
(dp416
S'product'
p417
(lp418
S'tRNA-Ala'
p419
assbag1
(g130
g3
NtRp420
(dp421
g133
(lp422
sg135
S''
sg136
g137
sg48
g1
(g50
g3
NtRp423
(dp424
g53
Nsg54
g1
(g55
g56
I5139
tRp425
sg58
g1
(g55
g56
I5065
tRp426
sg60
I-1
sg61
Nsbsg142
S'tRNA'
p427
sg144
(dp428
S'product'
p429
(lp430
S'tRNA-Asn'
p431
assbag1
(g130
g3
NtRp432
(dp433
g133
(lp434
sg135
S''
sg136
g137
sg48
g1
(g50
g3
NtRp435
(dp436
g53
Nsg54
g1
(g55
g56
I5170
tRp437
sg58
g1
(g55
g56
I5139
tRp438
sg60
I1
sg61
Nsbsg142
S'rep_origin'
p439
sg144
(dp440
S'note'
p441
(lp442
S'origin of light strand replication'
p443
assbag1
(g130
g3
NtRp444
(dp445
g133
(lp446
sg135
S''
sg136
g137
sg48
g1
(g50
g3
NtRp447
(dp448
g53
Nsg54
g1
(g55
g56
I5238
tRp449
sg58
g1
(g55
g56
I5170
tRp450
sg60
I-1
sg61
Nsbsg142
S'tRNA'
p451
sg144
(dp452
S'product'
p453
(lp454
S'tRNA-Cys'
p455
assbag1
(g130
g3
NtRp456
(dp457
g133
(lp458
sg135
S''
sg136
g137
sg48
g1
(g50
g3
NtRp459
(dp460
g53
Nsg54
g1
(g55
g56
I5307
tRp461
sg58
g1
(g55
g56
I5241
tRp462
sg60
I-1
sg61
Nsbsg142
S'tRNA'
p463
sg144
(dp464
S'product'
p465
(lp466
S'tRNA-Tyr'
p467
assbag1
(g130
g3
NtRp468
(dp469
g133
(lp470
sg135
S''
sg136
g137
sg48
g1
(g50
g3
NtRp471
(dp472
g53
Nsg54
g1
(g55
g56
I6853
tRp473
sg58
g1
(g55
g56
I5308
tRp474
sg60
I1
sg61
Nsbsg142
S'gene'
p475
sg144
(dp476
S'db_xref'
p477
(lp478
S'GeneID:7066249'
p479
asS'gene'
p480
(lp481
S'COX1'
p482
assbag1
(g130
g3
NtRp483
(dp484
g133
(lp485
sg135
S''
sg136
g137
sg48
g1
(g50
g3
NtRp486
(dp487
g53
Nsg54
g1
(g55
g56
I6853
tRp488
sg58
g1
(g55
g56
I5308
tRp489
sg60
I1
sg61
Nsbsg142
S'CDS'
p490
sg144
(dp491
S'product'
p492
(lp493
S'cytochrome c oxidase subunit I'
p494
asS'codon_start'
p495
(lp496
S'1'
asS'transl_table'
p497
(lp498
S'2'
asS'db_xref'
p499
(lp500
S'GI:110189665'
p501
aS'GOA:P05503'
p502
aS'InterPro:IPR000883'
p503
aS'UniProtKB/Swiss-Prot:P05503'
p504
aS'GeneID:7066249'
p505
asS'translation'
p506
(lp507
S'MFVNRWLFSTNHKDIGTLYLLFGAWAGMVGTALSILIRAELGQPGALLGDDQIYNVIVTAHAFVMIFFMVMPMMIGGFGNWLVPLMIGAPDMAFPRMNNMSFWLLPPSFLLLLASSMVEAGAGTGWTVYPPLAGNLAHAGVSVDLTIFSLHLAGVSSILGAINFITTIINMKPPAMTQYQTPLFVWSVLITAVLLLLSLPVLAAGITMLLTDRNLNTTFFDPAGGGDPILYQHLFWFFGHPEVYILILPGFGIISHVVTYYSGKKEPFGYMGMVWTMMSIGFLGFIVWAHHMFTVGLDVDTRAYFTSATMIIAIPTGVKVFSWLATLHGGNIKWSPAMLWALGFIFLFTVGGLTGIVLSNSSLDIVLHDTYYVVAHFHYVLSMGAVFAIMAGFVHWFPLFSGYTLNDTWAKAHFAIMFVGVNMTFFPQHFLGLAGMPRRYSDYPDAYTTWNTVSSMGSFISLTAVLVMIFMIWEAFASKREVLSISYSSTNLEWLHGCPPPYHTFEEPSYVKVK'
p508
asS'gene'
p509
(lp510
S'COX1'
p511
asS'protein_id'
p512
(lp513
S'AP_004894.1'
p514
assbag1
(g130
g3
NtRp515
(dp516
g133
(lp517
sg135
S''
sg136
g137
sg48
g1
(g50
g3
NtRp518
(dp519
g53
Nsg54
g1
(g55
g56
I6919
tRp520
sg58
g1
(g55
g56
I6849
tRp521
sg60
I-1
sg61
Nsbsg142
S'tRNA'
p522
sg144
(dp523
S'codon_recognized'
p524
(lp525
S'UCN'
p526
asS'product'
p527
(lp528
S'tRNA-Ser'
p529
assbag1
(g130
g3
NtRp530
(dp531
g133
(lp532
sg135
S''
sg136
g137
sg48
g1
(g50
g3
NtRp533
(dp534
g53
Nsg54
g1
(g55
g56
I6989
tRp535
sg58
g1
(g55
g56
I6921
tRp536
sg60
I1
sg61
Nsbsg142
S'tRNA'
p537
sg144
(dp538
S'product'
p539
(lp540
S'tRNA-Asp'
p541
assbag1
(g130
g3
NtRp542
(dp543
g133
(lp544
sg135
S''
sg136
g137
sg48
g1
(g50
g3
NtRp545
(dp546
g53
Nsg54
g1
(g55
g56
I7674
tRp547
sg58
g1
(g55
g56
I6990
tRp548
sg60
I1
sg61
Nsbsg142
S'gene'
p549
sg144
(dp550
S'db_xref'
p551
(lp552
S'GeneID:7066250'
p553
asS'gene'
p554
(lp555
S'COX2'
p556
assbag1
(g130
g3
NtRp557
(dp558
g133
(lp559
sg135
S''
sg136
g137
sg48
g1
(g50
g3
NtRp560
(dp561
g53
Nsg54
g1
(g55
g56
I7674
tRp562
sg58
g1
(g55
g56
I6990
tRp563
sg60
I1
sg61
Nsbsg142
S'CDS'
p564
sg144
(dp565
S'product'
p566
(lp567
S'cytochrome c oxidase subunit II'
p568
asS'codon_start'
p569
(lp570
S'1'
asS'transl_table'
p571
(lp572
S'2'
asS'db_xref'
p573
(lp574
S'GI:110189666'
p575
aS'GOA:P00406'
p576
aS'InterPro:IPR001505'
p577
aS'InterPro:IPR002429'
p578
aS'InterPro:IPR008972'
p579
aS'UniProtKB/Swiss-Prot:P00406'
p580
aS'GeneID:7066250'
p581
asS'translation'
p582
(lp583
S'MAYPFQLGLQDATSPIMEELTNFHDHTLMIVFLISSLVLYIISLMLTTKLTHTSTMDAQEVETIWTILPAVILILIALPSLRILYMMDEINNPVLTVKTMGHQWYWSYEYTDYEDLCFDSYMIPTNDLKPGELRLLEVDNRVVLPMELPIRMLISSEDVLHSWAIPSLGLKTDAIPGRLNQATVTSNRPGLFYGQCSEICGSNHSFMPIVLEMVPLKYFENWSASMI'
p584
asS'gene'
p585
(lp586
S'COX2'
p587
asS'protein_id'
p588
(lp589
S'AP_004895.1'
p590
assbag1
(g130
g3
NtRp591
(dp592
g133
(lp593
sg135
S''
sg136
g137
sg48
g1
(g50
g3
NtRp594
(dp595
g53
Nsg54
g1
(g55
g56
I7741
tRp596
sg58
g1
(g55
g56
I7677
tRp597
sg60
I1
sg61
Nsbsg142
S'tRNA'
p598
sg144
(dp599
S'product'
p600
(lp601
S'tRNA-Lys'
p602
assbag1
(g130
g3
NtRp603
(dp604
g133
(lp605
sg135
S''
sg136
g137
sg48
g1
(g50
g3
NtRp606
(dp607
g53
Nsg54
g1
(g55
g56
I7946
tRp608
sg58
g1
(g55
g56
I7742
tRp609
sg60
I1
sg61
Nsbsg142
S'gene'
p610
sg144
(dp611
S'db_xref'
p612
(lp613
S'GeneID:7066251'
p614
asS'gene'
p615
(lp616
S'ATP8'
p617
assbag1
(g130
g3
NtRp618
(dp619
g133
(lp620
sg135
S''
sg136
g137
sg48
g1
(g50
g3
NtRp621
(dp622
g53
Nsg54
g1
(g55
g56
I7946
tRp623
sg58
g1
(g55
g56
I7742
tRp624
sg60
I1
sg61
Nsbsg142
S'CDS'
p625
sg144
(dp626
S'product'
p627
(lp628
S'ATP synthase F0 subunit 8'
p629
asS'codon_start'
p630
(lp631
S'1'
asS'transl_table'
p632
(lp633
S'2'
asS'db_xref'
p634
(lp635
S'GI:110189667'
p636
aS'GOA:P11608'
p637
aS'InterPro:IPR001421'
p638
aS'UniProtKB/Swiss-Prot:P11608'
p639
aS'GeneID:7066251'
p640
asS'translation'
p641
(lp642
S'MPQLDTSTWFITIISSMATLFILFQLKISSQTFPAPPSPKTMATEKTNNPWESKWTKIYLPLSLPPQ'
p643
asS'gene'
p644
(lp645
S'ATP8'
p646
asS'protein_id'
p647
(lp648
S'AP_004896.1'
p649
assbag1
(g130
g3
NtRp650
(dp651
g133
(lp652
sg135
S''
sg136
g137
sg48
g1
(g50
g3
NtRp653
(dp654
g53
Nsg54
g1
(g55
g56
I8584
tRp655
sg58
g1
(g55
g56
I7903
tRp656
sg60
I1
sg61
Nsbsg142
S'gene'
p657
sg144
(dp658
S'db_xref'
p659
(lp660
S'GeneID:7066252'
p661
asS'gene'
p662
(lp663
S'ATP6'
p664
assbag1
(g130
g3
NtRp665
(dp666
g133
(lp667
sg135
S''
sg136
g137
sg48
g1
(g50
g3
NtRp668
(dp669
g53
Nsg54
g1
(g55
g56
I8584
tRp670
sg58
g1
(g55
g56
I7903
tRp671
sg60
I1
sg61
Nsbsg142
S'CDS'
p672
sg144
(dp673
S'product'
p674
(lp675
S'ATP synthase F0 subunit 6'
p676
asS'codon_start'
p677
(lp678
S'1'
asS'transl_table'
p679
(lp680
S'2'
asS'db_xref'
p681
(lp682
S'GI:110189668'
p683
aS'GOA:P05504'
p684
aS'InterPro:IPR000568'
p685
aS'UniProtKB/Swiss-Prot:P05504'
p686
aS'GeneID:7066252'
p687
asS'translation'
p688
(lp689
S'MNENLFASFITPTMMGLPIVVTIIMFPSILFPSSERLISNRLHSFQHWLIKLIIKQMMLIHTPKGRTWALMIVSLIMFIGSTNLLGLLPHTFTPTTQLSMDLSMAIPLWAGAVILGFRHKLKNSLAHFSPQGTPISLIPMLIIIETISLFIQPMALAVRLTANITAGHLLMHLIGGATLVLMDISPPTATITFIILLLLTVLEFAVALIQAYVFTLLVSLYLHDNT'
p690
asS'gene'
p691
(lp692
S'ATP6'
p693
asS'protein_id'
p694
(lp695
S'AP_004897.1'
p696
assbag1
(g130
g3
NtRp697
(dp698
g133
(lp699
sg135
S''
sg136
g137
sg48
g1
(g50
g3
NtRp700
(dp701
g53
Nsg54
g1
(g55
g56
I9367
tRp702
sg58
g1
(g55
g56
I8583
tRp703
sg60
I1
sg61
Nsbsg142
S'gene'
p704
sg144
(dp705
S'db_xref'
p706
(lp707
S'GeneID:7066253'
p708
asS'gene'
p709
(lp710
S'COX3'
p711
assbag1
(g130
g3
NtRp712
(dp713
g133
(lp714
sg135
S''
sg136
g137
sg48
g1
(g50
g3
NtRp715
(dp716
g53
Nsg54
g1
(g55
g56
I9367
tRp717
sg58
g1
(g55
g56
I8583
tRp718
sg60
I1
sg61
Nsbsg142
S'CDS'
p719
sg144
(dp720
S'product'
p721
(lp722
S'cytochrome c oxidase subunit III'
p723
asS'transl_except'
p724
(lp725
S'(pos:9367,aa:TERM)'
p726
asS'codon_start'
p727
(lp728
S'1'
asS'transl_table'
p729
(lp730
S'2'
asS'note'
p731
(lp732
S"TAA stop codon is completed by the addition of 3' A residues to the mRNA"
p733
asS'db_xref'
p734
(lp735
S'GI:110189669'
p736
aS'GOA:P05505'
p737
aS'UniProtKB/Swiss-Prot:P05505'
p738
aS'GeneID:7066253'
p739
asS'translation'
p740
(lp741
S'MTHQTHAYHMVNPSPWPLTGALSALLLTSGLVMWFHYNSTILLSLGLLTNILTMYQWWRDIIREGTYQGHHTPIVQKGLRYGMILFIVSEVFFFAGFFWAFYHSSLVPTHDLGGCWPPTGITPLNPLEVPLLNTSVLLASGVSITWAHHSLMEGNRNHMNQALLITILLGLYFTILQASEYFETSFSISDGIYGSTFFMATGFHGLHVIIGSTFLIVCLLRQLKFHFTSKHHFGFEAAAWYWHFVDVVWLFLYVSIYWWGS'
p742
asS'gene'
p743
(lp744
S'COX3'
p745
asS'protein_id'
p746
(lp747
S'AP_004898.1'
p748
assbag1
(g130
g3
NtRp749
(dp750
g133
(lp751
sg135
S''
sg136
g137
sg48
g1
(g50
g3
NtRp752
(dp753
g53
Nsg54
g1
(g55
g56
I9435
tRp754
sg58
g1
(g55
g56
I9367
tRp755
sg60
I1
sg61
Nsbsg142
S'tRNA'
p756
sg144
(dp757
S'product'
p758
(lp759
S'tRNA-Gly'
p760
assbag1
(g130
g3
NtRp761
(dp762
g133
(lp763
sg135
S''
sg136
g137
sg48
g1
(g50
g3
NtRp764
(dp765
g53
Nsg54
g1
(g55
g56
I9783
tRp766
sg58
g1
(g55
g56
I9435
tRp767
sg60
I1
sg61
Nsbsg142
S'gene'
p768
sg144
(dp769
S'db_xref'
p770
(lp771
S'GeneID:7066254'
p772
asS'gene'
p773
(lp774
S'ND3'
p775
assbag1
(g130
g3
NtRp776
(dp777
g133
(lp778
sg135
S''
sg136
g137
sg48
g1
(g50
g3
NtRp779
(dp780
g53
Nsg54
g1
(g55
g56
I9783
tRp781
sg58
g1
(g55
g56
I9435
tRp782
sg60
I1
sg61
Nsbsg142
S'CDS'
p783
sg144
(dp784
S'product'
p785
(lp786
S'NADH dehydrogenase subunit 3'
p787
asS'codon_start'
p788
(lp789
S'1'
asS'transl_table'
p790
(lp791
S'2'
asS'db_xref'
p792
(lp793
S'GI:110189670'
p794
aS'GOA:P05506'
p795
aS'InterPro:IPR000440'
p796
aS'UniProtKB/Swiss-Prot:P05506'
p797
aS'GeneID:7066254'
p798
asS'translation'
p799
(lp800
S'MNLPIIITINITLSFILISIAFWLPQMNLYSEKANPYECGFDPTSSARLPFSMKFFLVAITFLLFDLEIALLLPLPWAIQTTNTTTMMATAFILVTILSLGLAYEWTQKGLEWTE'
p801
asS'gene'
p802
(lp803
S'ND3'
p804
asS'protein_id'
p805
(lp806
S'AP_004899.1'
p807
assbag1
(g130
g3
NtRp808
(dp809
g133
(lp810
sg135
S''
sg136
g137
sg48
g1
(g50
g3
NtRp811
(dp812
g53
Nsg54
g1
(g55
g56
I9852
tRp813
sg58
g1
(g55
g56
I9784
tRp814
sg60
I1
sg61
Nsbsg142
S'tRNA'
p815
sg144
(dp816
S'product'
p817
(lp818
S'tRNA-Arg'
p819
assbag1
(g130
g3
NtRp820
(dp821
g133
(lp822
sg135
S''
sg136
g137
sg48
g1
(g50
g3
NtRp823
(dp824
g53
Nsg54
g1
(g55
g56
I10151
tRp825
sg58
g1
(g55
g56
I9854
tRp826
sg60
I1
sg61
Nsbsg142
S'gene'
p827
sg144
(dp828
S'db_xref'
p829
(lp830
S'GeneID:7066255'
p831
asS'gene'
p832
(lp833
S'ND4L'
p834
assbag1
(g130
g3
NtRp835
(dp836
g133
(lp837
sg135
S''
sg136
g137
sg48
g1
(g50
g3
NtRp838
(dp839
g53
Nsg54
g1
(g55
g56
I10151
tRp840
sg58
g1
(g55
g56
I9854
tRp841
sg60
I1
sg61
Nsbsg142
S'CDS'
p842
sg144
(dp843
S'product'
p844
(lp845
S'NADH dehydrogenase subunit 4L'
p846
asS'codon_start'
p847
(lp848
S'1'
asS'transl_table'
p849
(lp850
S'2'
asS'db_xref'
p851
(lp852
S'GI:110189671'
p853
aS'GOA:P05507'
p854
aS'UniProtKB/Swiss-Prot:P05507'
p855
aS'GeneID:7066255'
p856
asS'translation'
p857
(lp858
S'MTSAFLNLTMAFTLSLLGTFMFRSHLMSTLLCLEGMMLSLFVMTSTSTLNSNSMISMTIPITILVFAACEAAVGLALLVKISNTYGTDYVQNLNLLQC'
p859
asS'gene'
p860
(lp861
S'ND4L'
p862
asS'protein_id'
p863
(lp864
S'AP_004900.1'
p865
assbag1
(g130
g3
NtRp866
(dp867
g133
(lp868
sg135
S''
sg136
g137
sg48
g1
(g50
g3
NtRp869
(dp870
g53
Nsg54
g1
(g55
g56
I11522
tRp871
sg58
g1
(g55
g56
I10144
tRp872
sg60
I1
sg61
Nsbsg142
S'gene'
p873
sg144
(dp874
S'db_xref'
p875
(lp876
S'GeneID:7066256'
p877
asS'gene'
p878
(lp879
S'ND4'
p880
assbag1
(g130
g3
NtRp881
(dp882
g133
(lp883
sg135
S''
sg136
g137
sg48
g1
(g50
g3
NtRp884
(dp885
g53
Nsg54
g1
(g55
g56
I11522
tRp886
sg58
g1
(g55
g56
I10144
tRp887
sg60
I1
sg61
Nsbsg142
S'CDS'
p888
sg144
(dp889
S'product'
p890
(lp891
S'NADH dehydrogenase subunit 4'
p892
asS'transl_except'
p893
(lp894
S'(pos:11522,aa:TERM)'
p895
asS'codon_start'
p896
(lp897
S'1'
asS'transl_table'
p898
(lp899
S'2'
asS'note'
p900
(lp901
S"TAA stop codon is completed by the addition of 3' A residues to the mRNA"
p902
asS'db_xref'
p903
(lp904
S'GI:110189672'
p905
aS'GOA:P05508'
p906
aS'InterPro:IPR000260'
p907
aS'InterPro:IPR001750'
p908
aS'InterPro:IPR003918'
p909
aS'InterPro:IPR010227'
p910
aS'UniProtKB/Swiss-Prot:P05508'
p911
aS'GeneID:7066256'
p912
asS'translation'
p913
(lp914
S'MLKIIFPSIMLLPLTWLSANKKIWTNVTSYSFLVSLLSLSLLWQNDENYLNFSVMFSSDPLSTPLIILTTWLLPLMMLASQNHMKKENMMHQKLYISMLISLQILLIMTFSATELILFYILFEATLIPTLIIITRWGNQTERLNAGIYFLFYTLIGSIPLLIALISIQNSMGTLNFLILSLTTHPLPSTWSNTILWLACMMAFMIKMPLYGVHLWLPKAHVEAPIAGSMILAAILLKLGGYGMMRVSIILDPLTKSLAYPFIILSLWGMIMTSSICLRQTDLKSLIAYSSVSHMALVITAIMIQTPWSFMGATMLMIAHGLTSSLLFCLANTNYERIHSRTMIMARGLQMIFPLMATWWLLASLANLALPPLINLMGELFIVMATFSWSNPSIILMATNIVITGMYSMYMIITTQRGKLTSHMNNLQPSHTRELTLMALHIIPLMLLTINPKLITGLTM'
p915
asS'gene'
p916
(lp917
S'ND4'
p918
asS'protein_id'
p919
(lp920
S'AP_004901.1'
p921
assbag1
(g130
g3
NtRp922
(dp923
g133
(lp924
sg135
S''
sg136
g137
sg48
g1
(g50
g3
NtRp925
(dp926
g53
Nsg54
g1
(g55
g56
I11590
tRp927
sg58
g1
(g55
g56
I11522
tRp928
sg60
I1
sg61
Nsbsg142
S'tRNA'
p929
sg144
(dp930
S'product'
p931
(lp932
S'tRNA-His'
p933
assbag1
(g130
g3
NtRp934
(dp935
g133
(lp936
sg135
S''
sg136
g137
sg48
g1
(g50
g3
NtRp937
(dp938
g53
Nsg54
g1
(g55
g56
I11650
tRp939
sg58
g1
(g55
g56
I11590
tRp940
sg60
I1
sg61
Nsbsg142
S'tRNA'
p941
sg144
(dp942
S'codon_recognized'
p943
(lp944
S'AGY'
p945
asS'product'
p946
(lp947
S'tRNA-Ser'
p948
assbag1
(g130
g3
NtRp949
(dp950
g133
(lp951
sg135
S''
sg136
g137
sg48
g1
(g50
g3
NtRp952
(dp953
g53
Nsg54
g1
(g55
g56
I11720
tRp954
sg58
g1
(g55
g56
I11649
tRp955
sg60
I1
sg61
Nsbsg142
S'tRNA'
p956
sg144
(dp957
S'codon_recognized'
p958
(lp959
S'CUN'
p960
asS'product'
p961
(lp962
S'tRNA-Leu'
p963
assbag1
(g130
g3
NtRp964
(dp965
g133
(lp966
sg135
S''
sg136
g137
sg48
g1
(g50
g3
NtRp967
(dp968
g53
Nsg54
g1
(g55
g56
I13553
tRp969
sg58
g1
(g55
g56
I11720
tRp970
sg60
I1
sg61
Nsbsg142
S'gene'
p971
sg144
(dp972
S'db_xref'
p973
(lp974
S'GeneID:7066257'
p975
asS'gene'
p976
(lp977
S'ND5'
p978
assbag1
(g130
g3
NtRp979
(dp980
g133
(lp981
sg135
S''
sg136
g137
sg48
g1
(g50
g3
NtRp982
(dp983
g53
Nsg54
g1
(g55
g56
I13553
tRp984
sg58
g1
(g55
g56
I11720
tRp985
sg60
I1
sg61
Nsbsg142
S'CDS'
p986
sg144
(dp987
S'product'
p988
(lp989
S'NADH dehydrogenase subunit 5'
p990
asS'codon_start'
p991
(lp992
S'1'
asS'transl_table'
p993
(lp994
S'2'
asS'db_xref'
p995
(lp996
S'GI:110189673'
p997
aS'GOA:P11661'
p998
aS'InterPro:IPR001516'
p999
aS'InterPro:IPR001750'
p1000
aS'InterPro:IPR003916'
p1001
aS'InterPro:IPR003945'
p1002
aS'InterPro:IPR010934'
p1003
aS'UniProtKB/Swiss-Prot:P11661'
p1004
aS'GeneID:7066257'
p1005
asS'translation'
p1006
(lp1007
S'MNMMTILILMILDLLTTPITFSMTILTKLMYFRHMLITSIKFSFLLSLLPLLLFFHHNTEYMITNWHWLTINSIKLTMSFKIDYFSILFLSVSLFVTWSIMQFSSWYMHSDPHINRFIKYLMMFLNNMLILTSANNLFQLFIGWEGVGIMSFLLIGWWYGLADANTAALQAILYNRVGDIGFILAMTWFCLNMNSWELQQIFLTNTNNNLVPLTGLLIAATGKSAQFGLHPWLPSAMEGPTPVSALLHSSTMVVAGIFLMIRFHPLTSNNSTIMTAMLCLGAITTLFTAICALTQNDIKKIVAFSTSSQLGLMMVTLGINQPYLAFLHICTHAFFKAMLFMCSGSIIHILNDEQDIRKMGNMMKAMPFTSSCLIIGSLALTGMPFLTGFYSKDLIIEAINTCNTNAWALMITLIATSMTAVYSMRIIYFVTMTKPRYSPLITINENNPNLINPIKRLALGSILAGFLISLNIPPTNIQILTMPWHLKMTALLITILGFAIALELNNLTLNLSMSKPTKLSSFSTSLGYYPPIMPRIIPQKTLNSSYKLSLNLLDLIWSEKTIPKSTSITQTQLSKMMSNQKGLIKLYFLSFLITISLIFILHTLNPEWFQ'
p1008
asS'gene'
p1009
(lp1010
S'ND5'
p1011
asS'protein_id'
p1012
(lp1013
S'AP_004902.1'
p1014
assbag1
(g130
g3
NtRp1015
(dp1016
g133
(lp1017
sg135
S''
sg136
g137
sg48
g1
(g50
g3
NtRp1018
(dp1019
g53
Nsg54
g1
(g55
g56
I14049
tRp1020
sg58
g1
(g55
g56
I13530
tRp1021
sg60
I-1
sg61
Nsbsg142
S'gene'
p1022
sg144
(dp1023
S'db_xref'
p1024
(lp1025
S'GeneID:7066258'
p1026
asS'gene'
p1027
(lp1028
S'ND6'
p1029
assbag1
(g130
g3
NtRp1030
(dp1031
g133
(lp1032
sg135
S''
sg136
g137
sg48
g1
(g50
g3
NtRp1033
(dp1034
g53
Nsg54
g1
(g55
g56
I14049
tRp1035
sg58
g1
(g55
g56
I13530
tRp1036
sg60
I-1
sg61
Nsbsg142
S'CDS'
p1037
sg144
(dp1038
S'product'
p1039
(lp1040
S'NADH dehydrogenase subunit 6'
p1041
asS'codon_start'
p1042
(lp1043
S'1'
asS'transl_table'
p1044
(lp1045
S'2'
asS'db_xref'
p1046
(lp1047
S'GI:110189674'
p1048
aS'GOA:P03926'
p1049
aS'InterPro:IPR001457'
p1050
aS'UniProtKB/Swiss-Prot:P03926'
p1051
aS'GeneID:7066258'
p1052
asS'translation'
p1053
(lp1054
S'MTNYMFILSLLFLTGCLGLALKPSPIYGGFGLIVSGCIGCLMVLGFGGSFLGLMVFLIYLGGMLVVFGYTTAMATEEYPETWGSNWFIFSFFVLGLFMELVVFYLFSLNNKVELVDFDSLGDWLMYEIDDVGVMLEGGIGVAAIYSCATWMMVVAGWSLFAGIFIIIEITRD'
p1055
asS'gene'
p1056
(lp1057
S'ND6'
p1058
asS'protein_id'
p1059
(lp1060
S'AP_004903.1'
p1061
assbag1
(g130
g3
NtRp1062
(dp1063
g133
(lp1064
sg135
S''
sg136
g137
sg48
g1
(g50
g3
NtRp1065
(dp1066
g53
Nsg54
g1
(g55
g56
I14118
tRp1067
sg58
g1
(g55
g56
I14049
tRp1068
sg60
I-1
sg61
Nsbsg142
S'tRNA'
p1069
sg144
(dp1070
S'product'
p1071
(lp1072
S'tRNA-Glu'
p1073
assbag1
(g130
g3
NtRp1074
(dp1075
g133
(lp1076
sg135
S''
sg136
g137
sg48
g1
(g50
g3
NtRp1077
(dp1078
g53
Nsg54
g1
(g55
g56
I15266
tRp1079
sg58
g1
(g55
g56
I14123
tRp1080
sg60
I1
sg61
Nsbsg142
S'gene'
p1081
sg144
(dp1082
S'db_xref'
p1083
(lp1084
S'GeneID:7066259'
p1085
asS'gene'
p1086
(lp1087
S'CYTB'
p1088
assbag1
(g130
g3
NtRp1089
(dp1090
g133
(lp1091
sg135
S''
sg136
g137
sg48
g1
(g50
g3
NtRp1092
(dp1093
g53
Nsg54
g1
(g55
g56
I15266
tRp1094
sg58
g1
(g55
g56
I14123
tRp1095
sg60
I1
sg61
Nsbsg142
S'CDS'
p1096
sg144
(dp1097
S'product'
p1098
(lp1099
S'cytochrome b'
p1100
asS'codon_start'
p1101
(lp1102
S'1'
asS'transl_table'
p1103
(lp1104
S'2'
asS'db_xref'
p1105
(lp1106
S'GI:110189675'
p1107
aS'GOA:P00159'
p1108
aS'UniProtKB/Swiss-Prot:P00159'
p1109
aS'GeneID:7066259'
p1110
asS'translation'
p1111
(lp1112
S'MTNIRKSHPLFKIINHSFIDLPAPSNISSWWNFGSLLGVCLMVQILTGLFLAMHYTSDTMTAFSSVTHICRDVNYGWLIRYLQANGASMFFICLFLHVGRGLYYGSYTFLETWNIGIILLFAVMATAFMGYVLPWGQMSFWGATVITNLLSAIPYIGTTLVEWIWGGFSVDKATLTRFFAFHFILPFIIAALAIVHLLFLHETGSNNPTGLNSDADKIPFHPYYTIKDLLGVFMLLLFLMTLVLFFPDLLGDPDNYTPANPLNTPPHIKPEWYFLFAYAILRSIPNKLGGVVALILSILILAFLPFLHTSKQRSLTFRPITQILYWILVANLLVLTWIGGQPVEHPFIIIGQLASISYFSIILILMPISGIVEDKMLKWN'
p1113
asS'gene'
p1114
(lp1115
S'CYTB'
p1116
asS'protein_id'
p1117
(lp1118
S'AP_004904.1'
p1119
assbag1
(g130
g3
NtRp1120
(dp1121
g133
(lp1122
sg135
S''
sg136
g137
sg48
g1
(g50
g3
NtRp1123
(dp1124
g53
Nsg54
g1
(g55
g56
I15334
tRp1125
sg58
g1
(g55
g56
I15267
tRp1126
sg60
I1
sg61
Nsbsg142
S'tRNA'
p1127
sg144
(dp1128
S'product'
p1129
(lp1130
S'tRNA-Thr'
p1131
assbag1
(g130
g3
NtRp1132
(dp1133
g133
(lp1134
sg135
S''
sg136
g137
sg48
g1
(g50
g3
NtRp1135
(dp1136
g53
Nsg54
g1
(g55
g56
I15403
tRp1137
sg58
g1
(g55
g56
I15335
tRp1138
sg60
I-1
sg61
Nsbsg142
S'tRNA'
p1139
sg144
(dp1140
S'product'
p1141
(lp1142
S'tRNA-Pro'
p1143
assbag1
(g130
g3
NtRp1144
(dp1145
g133
(lp1146
sg135
S''
sg136
g137
sg48
g1
(g50
g3
NtRp1147
(dp1148
g53
Nsg54
g1
(g55
g56
I16300
tRp1149
sg58
g1
(g55
g56
I15403
tRp1150
sg60
I1
sg61
Nsbsg142
S'D-loop'
p1151
sg144
(dp1152
sbag1
(g130
g3
NtRp1153
(dp1154
g133
(lp1155
sg135
S''
sg136
g137
sg48
g1
(g50
g3
NtRp1156
(dp1157
g53
Nsg54
g1
(g55
g56
I16119
tRp1158
sg58
g1
(g55
g56
I15764
tRp1159
sg60
I1
sg61
Nsbsg142
S'STS'
p1160
sg144
(dp1161
S'db_xref'
p1162
(lp1163
S'UniSTS:270889'
p1164
asS'standard_name'
p1165
(lp1166
S'PMC139749P2'
p1167
assbasS'_seq'
p1168
g1
(cBio.Seq
Seq
p1169
g3
NtRp1170
(dp1171
S'alphabet'
p1172
g1
(cBio.Alphabet.IUPAC
IUPACAmbiguousDNA
p1173
g3
NtRp1174
sS'_data'
p1175
S'GTTAATGTAGCTTATAATAAAGCAAAGCACTGAAAATGCTTAGATGGATTCAAAAATCCCATAAACACAAAGGTTTGGTCCTGGCCTTATAATTAATTGGAGGTAAGATTACACATGCAAACATCCATAAACCGGTGTAAAATCCCTTAAAGATTTGCCTAAAACTTAAGGAGAGGGCATCAAGCACATAATATAGCTCAAGACGCCTTGCCTAGCCACACCCCCACGGGACTCAGCAGTGATAAATATTAAGCAATGAACGAAAGTTTGACTAAGCTAGTACCTCTCAGGGTTGGTAAATTTCGTGCCAGCCACCGCGGTCATACGATTAACCCAAACTAATTATTTTCGGCGTAAAACGTGCCAACTATAAATCTCATAATAGAATTAAAATCCAACTTATATGTGAAAATTCATTGTTAGGACCTAAGCCCAATAACGAAAGTAATTCTAATCATTTATATAATGCACGATAGCTAAGACCCAAACTGGGATTAGATACCCCACTATGCTTAGCCCTAAACCTTAATAATTAAACCTACAAAATTATTTGCCAGAGAACTACTAGCTACAGCTTAAAACTCAAAGGACTTGGCGGTACTTTATATCCATCTAGAGGAGCCTGTTCTATAATCGATAAACCCCGTTCTACCTTACCCCTTCTCGCTAATTCAGCCTATATACCGCCATCTTCAGCAAACCCTAAAAAGGCACTAAAGTAAGCACAAGAACAAACATAAAAACGTTAGGTCAAGGTGTAGCCAATGAAGCGGAAAGAAATGGGCTACATTTTCTTTTCCCAGAGAACATTACGAAACCTTTATGAAACTAAAGGACAAAGGAGGATTTAGTAGTAAATTAAGAATAGAGAGCTTAATTGAATAGAGCAATGAAGTACGCACACACCGCCCGTCACCCTCCTCAAATTAGATTGACATTCACATATACATAATTTCACTAACAAATTTATGAGAGGAGATAAGTCGTAACAAGGTAAGCATACTGGAAAGTGTGCTTGGAATAATCACAGTGTAGCTTAATCACAAAGCATCTGGCCTACACCCAGAAGAATTCATAAAAAATGAACACTTTGAACTAACCCTAGCCCTACAACCAACCAACATAACTAAACCCCCACATAAACTAAAACATTTAACTCAAAAAGTATTGGAGAAAGAAATTTACTTACCAAGAGCTATAGAGAAAGTACCGCAAGGGAAATGATGAAAGACTAATTTAAAGTAAAAACAAGACAAAGATTAAACCTGTACCTTTTGCATAATGAATTAACTAGAAAATCCTTAACAAAAAGAATTTAAGCTAAGAACCCCGAAACCAAACGAGCTACCTAAAAACAATTTCATGAATCAACCCGTCTATGTAGCAAAATAGTGGGAAGATTTTTAGGTAGAGGTGAAAAGCCTATCGAGCTTGGTGATAGCTGGTTGCCCAAAAAAGAATTTCAGTTCAAACTTTAAGCTTCCATCAGAACAACAAATCAAAATGTAAACTTAAAATATAGCCAAAAGAGGGACAGCTCTTTAGGAAACGGAAAAAACCTTAAATAGTGAATAAACAACTACAATCACTTAACCATTGTAGGCTTAAAAGCAAGCCATCAATAAAGAAAGCGTCAAGCCACATCATCTTACACACACACTAATTCCACAAACCTCAAAAATTCCAAAATTACAAATTGGGCTAAATCTATGATCCTAGTGAATACTGTTAATATGTGAACAAGAACCAATCCACCAAGCACAAGTGCTAAGACAACCGGATAACCATTGTTAATTATTGAATCATAGGCATAACCCAACAATAGAATTACCTATCCCTAACTCGTTAGCCCAACACAGGCGTGCTTTAAGGAAAGTTTAAAAAAGTAAAGGAACTCGGCAAACACGAACCCCGCCTGTTTACCAAAAACATCTCCTCTAGCATAACAAGTATTAGTGGCATCGCCTGCCCAGTGACTAAAGTTCCACGGCCGCGGTATCCCGACCGTGCAAAGGTAGGATAATCACTTGTTCCTTAATTAGGGACTAGAATGAATGGCTAAACGAGGGTCCAACCGTCTCTTACTTGCAATCAGTGAAATTGACCTTCCAGTGAAGGGGCGGACTCATAATAAAAGACGAGAAGACCCTATGGAGCTTTAATTTACTAATTTCAATTTATATAAAAAAACCTAATGGGCGAAAACAACAAAATTATGAACTACCAAATTTCGGTTGGGGTGACCTCGGAGAATAAAAAATCCTCCGAATGATTATAACCGAGTCGGTAACCGTGTCCGACCCAGTCAAGTAATACTAATATCTTATTGACCCAATTATTGATCAACGGACCAAGTTACCCTAGGGTAACAGCGCGACCTATTTAAGAGTTCATATCGACAATTAGGGTTTACGACCTCGATGTTGGATCAGGACATCCCAATGGTGCAGAAGCTATTAATGGTTCGTTTGTTCAACGATTAAAGTCCTACGTGATCTAAGTCCGGCAATCCAGGTCGGTTTCTATCTATTTACAATTTCTCCCAGTTACGAAAGGACAAGAGAAATGGAGACCAACCAATCCTAGGCTTCCAACCAATTTAGAAAAACTTAATAAAGTATATATGTACAATAAATAACCTTAGACCCAAGTTATTAGGGTGGCAGAGCCAAGTAATTGCGTAAGACTTAAAACCTTGTTCCCAGAGGTTCAAATCCTCTCCCTAATAGTGTACTTTATTAATATCCTAACACTCCTAATCCCAATCTTAATTGCCATAGGCCTTCTCACCCTAGTAGAACGGAAAATCCTAGGCTACATACAATTACGCAAAGGCCCCAACAACGAAGGCCCATATGGTAAACTACAACCATTTGCAGATGCCATAAAACTATTCATAAAAGAACCCATACGCCCTCTAACCACCTCAATATCACTATTTATTATCGCCCCAACCCTCTCCCTTACACTAGCTCTAAGCCTATGAATTCCCTTACCAATACCCCACCCCCTTATCAACCTCAACCTAGGCATACCATTTATTCTAGCCACATCCAGCCTTTCGGTCTACTCCATTCTATGATCGGGATGAGCCTCAAATTCAAAATACTCCCTATTCGGAGCCCTACGAGCCGTTGCCCAAACCATCTCTTACGAAGTCACAATAGCCTTATACCTCTTATCCGTCCTCCTAATAAGCGGCTCCTTCTCCCTACAAATACTTATCACTACACAAGAACATATCTGACTATTAATCCCCGCCTGACCAATAGCCATAATATGATACATTTCAACCCTCGCAGAAACAAATCGAGCTCCCTTCGACTTAACAGAAGGAGAATCAGAATTAGTCTCAGGCTTTAACGTCGAATACGCCGCAGGACCATTCGCCCTATTCTTCATAGCCGAGTACACCAACATTATTCTAATAAACGCCCTAACATCAATTGTATTCCTAGGCCCCTTATATCATATCAATTACCCTGAATTATACTCAACCAGCTTCATAACAGAAACACTACTTCTATCCACAACTTTCCTATGGATTCGAGCATCCTACCCCCGTTTTCGATATGACCAACTAATGCACCTCCTATGAAAAAATTTCCTCCCACTAACACTAGCATTCTGCATATGATACATTTCCCTGCCAATTTTCCTAGCAGGAATTCCACCCTACACATAGAAATATGTCTGACAAAAGAGTTACTTTGATAGAGTAAATAATAGAGGTTTAAATCCTCTTATTTCTAGGACAATAGGAATTGAACCTACACCTAAGAATTCAAAATTCTCCGTGCCACCAATACACCCTATCCTACATAGTAAGGTCAGCTAACTAAGCTATCGGGCCCATACCCCGAAAATGTTGGTTAAACCCTTCCCGTACTAATAAATCCAATTACCCTAACCATTATTTACTTAACCACCTTTAAAGGCCGCCTAATCACGACACTTAGCACCAACTTACCACCAATATGAGTAGGATTGGAAATAAGCCTTTTAGCTATCATCCCACTTCTAGCCAACAAAAAAAGCCCACGATCAACTGAAGCAGCAACAAAATATTTTCTAACCCAAGCTACAGCCTCAATAATTATCCTACTAGTCATCATCCTCAACTACAAACAATCAGGAATATGAACCCTTCAACAACAAACCAATAACATACTACTCAACATAATACTCATTTCACTGGCCATAAAACTTGGACTAGCCCCATTCCACTACTGACTACCCGAAGTCACCCAAGGAATTCCCCTACACATTGGATTAATCTTACTAACATGACAAAAAATTGCTCCACTATCAATTCTATACCAATTTTATCAACTCCTAAACCCAACTATCACCACCATTCTCGCAATTTCATCAGTCTTTGTTGGCGCCTGAGGAGGACTTAACCAGACCCAAACACGAAAAATCATAGCATACTCATCAATTGCCCACATAGGATGAATAACAGCAATCCTTCCATACAACCCTAACTTAACCCTCCTAAACTTAACAATTTACATCCTACTTACTGTTCCAATATTCAATTACATCATAACAAACTCAGCAACAACAATCAACACACTCTCACTCGCATGAAATAAAACTCCCATAATCCTAACCATAGCATCCATCATCCTCCTATCACTAGGAGGACTCCCCCCTCTCACAGGATTTTTACCAAAATGAGCAATTATCTCCGAGCTTCTAAAAAACAACTGCTCAACCCTATCAACACTAATAGCTATCATAGCCCTATTAAGCCTATTCTTCTATACTCGACTAATTTACTCTATATCCCTCACCACATTCCCAACCAACAACAACTCCAAAATAATCTCCCACCACCAAAACCCAAAACATAATTTTATCCTCCCAACCCTCACAGTATTAAGTACCCTAACCCTACCGCTTTCCTCCCAACTAATCACATAGAAGTTTAGGATATACAGTTCAAGAGCCTTCAAAGCCCTTAGAAAACAAACAAGTTTAACTTCTGATAAGGACTGTAAGACTATATCTTACATCTGTTAAATGCAAATCAACTGCTTTAATTAAGCTAAATCCTCAACTAGATTGGAAGGAATCAAATTCCTACGAAAATTTAGTTAACAGCTAAATACCCTACTTACTGGCTTCAATCTACTTCTCCCGCCTATCAGAAAAGAGGCGGGAGAAGCCTTAGTAGAGGAGATTCTCTACACCTTCGAACTTGCAATTCGACATGATAATCACCTTAAGGCTTTTTGGTAAAAAGGGGGCTCAACCCCTGTCTTTAGATTTACAGTCTAATGCTTACTCAGCCATTTTACCTATGTTCGTAAACCGTTGACTCTTTTCAACTAACCACAAAGATATCGGAACCCTCTACCTATTATTTGGAGCCTGAGCAGGAATAGTAGGGACAGCTTTGAGTATTCTAATTCGAGCTGAACTAGGACAGCCAGGCGCACTCCTAGGAGATGACCAAATCTATAATGTCATCGTCACAGCCCATGCATTCGTAATAATTTTCTTTATAGTAATACCTATAATAATTGGAGGCTTCGGAAACTGACTTGTACCACTAATAATTGGAGCCCCTGATATAGCATTCCCACGAATAAATAACATAAGCTTTTGACTGCTTCCTCCATCATTTCTACTCCTTTTAGCATCCTCCATAGTAGAAGCTGGAGCTGGAACAGGATGAACAGTATATCCCCCCTTAGCCGGAAACCTAGCCCATGCTGGGGTATCCGTAGATTTAACTATTTTTTCCCTCCACCTAGCCGGGGTGTCTTCTATCTTAGGAGCTATCAACTTTATCACCACTATCATTAATATAAAACCCCCTGCTATAACCCAATATCAGACACCTCTCTTTGTATGATCCGTACTAATTACAGCCGTCCTACTACTTCTCTCACTGCCAGTATTAGCAGCAGGTATCACTATACTCCTTACAGACCGAAATCTAAATACTACTTTCTTCGACCCCGCTGGAGGTGGAGACCCAATTCTTTATCAACACCTATTCTGATTCTTCGGCCACCCAGAAGTGTACATCTTAATTCTTCCAGGGTTTGGAATTATTTCACATGTAGTTACCTATTACTCTGGAAAAAAAGAACCCTTCGGATATATAGGTATGGTATGAACCATAATATCTATTGGCTTCCTAGGATTTATTGTATGAGCACATCACATATTCACAGTAGGCCTAGATGTAGACACCCGAGCCTACTTTACATCTGCCACTATAATTATCGCAATTCCTACAGGCGTAAAAGTATTCAGCTGACTCGCTACACTACATGGAGGAAATATCAAATGATCCCCCGCCATATTATGAGCCTTAGGGTTTATCTTCTTATTCACAGTAGGGGGCCTAACAGGGATCGTACTATCTAACTCATCCCTTGACATTGTACTTCATGATACATACTACGTAGTAGCTCACTTCCACTATGTCTTATCTATAGGAGCAGTATTCGCCATCATAGCTGGCTTCGTCCACTGATTCCCACTATTCTCAGGCTATACCCTAAATGACACATGAGCAAAAGCCCACTTTGCCATTATATTTGTAGGTGTAAACATAACATTTTTTCCTCAACACTTCCTAGGATTAGCAGGGATACCTCGTCGTTACTCTGATTATCCAGATGCTTATACCACATGAAATACAGTCTCCTCTATAGGCTCATTCATCTCACTTACGGCCGTCCTTGTAATGATCTTCATGATTTGAGAAGCCTTCGCATCAAAACGAGAAGTGCTCTCAATTTCCTACTCTTCAACTAACCTAGAATGACTGCATGGATGCCCCCCACCTTACCACACATTCGAAGAACCTTCCTATGTAAAAGTTAAATAAGAAAGGAAGGAATCGACCCCCTACAACTGGTTTCAAGCCAATTTCATAACCATTATGTCTTTCTCAATGAGATATTAGTAAAATAATTACATAACCTTGTCAAGGTTAAGTTATAGACCTAATCCTATATATCTTACATGGCTTACCCATTTCAACTTGGCTTACAAGACGCTACATCACCTATCATAGAAGAACTTACAAACTTTCATGACCACACCCTAATAATTGTATTCCTCATCAGCTCCCTAGTACTTTATATTATTTCACTAATACTAACAACAAAACTAACACACACAAGCACAATAGACGCCCAAGAAGTAGAAACAATTTGAACAATTCTCCCAGCTGTCATTCTTATTCTAATTGCCCTTCCCTCCCTACGAATTCTATACATAATAGACGAGATTAATAACCCAGTTCTAACAGTAAAAACTATAGGACACCAATGATACTGAAGCTATGAATATACTGACTATGAAGACCTATGCTTTGACTCCTACATAATCCCAACCAATGACCTAAAACCAGGTGAACTTCGTCTATTAGAAGTTGATAATCGGGTAGTCTTACCAATAGAACTTCCAATTCGTATACTAATCTCATCCGAAGACGTCCTGCACTCATGAGCCATCCCTTCACTAGGGTTAAAAACCGACGCAATCCCCGGCCGCCTAAACCAAGCTACAGTCACATCAAACCGACCAGGTCTATTCTATGGCCAATGCTCTGAAATTTGCGGCTCAAATCACAGCTTCATACCCATTGTACTAGAAATAGTGCCTCTAAAATATTTCGAAAACTGATCAGCTTCTATAATTTAAACTCATTGCGAAGCTTAGAGCGTTAACCTTTTAAGTTAAAGTTAGAGACAACAAATCTCCACAATGACATGCCACAACTAGACACATCCACATGATTTATTACAATCATCTCCTCAATAGCCACACTATTTATTTTATTTCAATTAAAAATTTCTTCCCAAACCTTTCCTGCACCTCCCTCACCCAAAACTATAGCCACAGAAAAAACGAATAACCCTTGAGAATCAAAATGAACGAAAATCTATTTGCCTCTTTCATTACCCCCACAATAATAGGTCTACCAATTGTTGTGACCATTATTATGTTCCCATCAATTCTATTCCCATCATCAGAACGCCTAATCAGCAACCGACTACACTCATTTCAACACTGACTAATCAAACTTATCATCAAACAAATAATGTTAATTCACACACCAAAAGGACGAACCTGAGCCCTAATAATTGTATCCCTAATTATATTTATTGGCTCAACCAACCTTCTAGGGCTTCTTCCCCATACATTTACCCCTACCACTCAGCTATCTATAGACCTAAGCATAGCCATCCCCCTATGAGCAGGAGCCGTAATTCTAGGTTTCCGACACAAACTAAAAAATTCTTTAGCCCACTTCTCACCGCAAGGAACCCCCATCTCACTAATTCCCATACTAATCATCATCGAAACTATCAGCCTATTTATTCAACCGATAGCACTAGCAGTACGACTAACAGCAAACATTACAGCAGGCCATCTATTAATGCATCTAATCGGAGGAGCTACCCTAGTACTTATAGACATCAGCCCACCAACCGCTACAATTACATTTATTATTCTACTTCTACTTACAGTACTTGAATTTGCCGTAGCCTTAATTCAAGCCTATGTATTCACCCTTCTAGTCAGCCTGTACCTACATGATAACACATAATGACCCACCAAACCCATGCATACCATATAGTAAACCCAAGCCCATGACCACTAACAGGAGCCCTATCAGCTCTTCTACTCACATCCGGCTTAGTAATATGATTCCATTACAACTCCACAATTCTCCTATCATTAGGCCTCCTGACAAACATCCTAACTATATATCAATGATGACGAGATATCATCCGTGAAGGAACATACCAAGGCCACCACACCCCTATTGTACAAAAAGGCCTCCGATACGGAATAATCCTGTTTATTGTCTCCGAAGTATTCTTCTTTGCCGGATTTTTCTGAGCATTTTATCATTCCAGCCTAGTTCCTACCCACGACCTAGGCGGTTGCTGACCCCCAACAGGAATCACCCCTTTAAATCCCCTAGAAGTACCCCTTCTAAATACATCAGTCCTCTTAGCATCAGGAGTCTCAATTACATGAGCCCATCACAGCCTAATAGAAGGCAACCGAAACCATATAAACCAAGCCCTACTAATCACCATTCTCTTAGGATTATATTTCACTATCTTACAAGCCTCAGAGTATTTCGAAACATCATTTTCTATCTCAGACGGAATTTACGGCTCAACATTCTTCATAGCAACGGGATTTCATGGCCTCCACGTAATTATTGGCTCAACTTTCCTAATTGTCTGTCTACTACGACAACTAAAATTCCACTTCACATCAAAACATCATTTCGGATTTGAAGCCGCAGCATGATACTGACACTTCGTAGATGTAGTTTGACTATTCCTATACGTTTCTATCTATTGATGAGGATCCTACTCCCTTAGTATAAACAATACAACTGACTTCCAATCAGTTAATTCTGAAAAAACTCAGAAGAGAGTAATTAACCTACCCATTATCATCACAATTAACATCACCTTATCCTTTATCCTCATTTCAATTGCATTCTGATTGCCTCAAATAAACTTATACTCCGAAAAAGCAAACCCATATGAATGTGGCTTCGACCCAACAAGTTCTGCACGCCTTCCTTTTTCAATAAAATTTTTCTTAGTAGCCATTACATTTCTACTATTCGACCTAGAAATCGCCTTACTACTTCCCCTCCCATGAGCGATTCAAACAACCAATACCACTACAATAATAGCAACTGCCTTTATTTTAGTCACTATTTTGTCTCTTGGCCTAGCCTACGAATGAACACAAAAAGGACTAGAATGAACAGAATAATTGGTAATTAGTTTAAATAAAATTAATGATTTCGACTCATTAGATTATGATAATAATCATAATTACCAACAATGACATCTGCTTTCCTAAATTTAACTATAGCCTTTACATTATCTCTACTAGGTACTTTTATATTTCGCTCCCACCTAATATCCACTCTCCTCTGCCTAGAAGGAATAATACTATCACTATTTGTCATAACTTCAACATCCACATTAAACTCCAACTCCATAATCTCCATAACCATCCCAATTACCATTCTAGTTTTTGCAGCCTGCGAAGCAGCAGTAGGTTTAGCCTTACTAGTAAAAATTTCAAATACTTACGGAACAGACTACGTACAAAACCTCAACCTTCTACAATGTTAAAAATTATTTTCCCATCTATCATACTCCTCCCACTAACATGACTCTCAGCCAACAAAAAAATCTGAACCAATGTCACCTCCTACAGCTTTCTAGTGAGCCTATTAAGCTTATCACTCCTATGACAAAATGACGAAAATTACCTAAATTTCTCAGTTATATTCTCCTCCGATCCATTATCCACCCCACTAATCATTCTAACAACTTGACTCCTCCCACTAATAATGCTCGCTAGCCAAAATCACATAAAAAAAGAAAATATAATGCATCAAAAACTTTACATCTCAATACTTATTAGCCTCCAAATTTTACTCATCATAACATTCTCCGCAACAGAACTAATTTTATTTTATATCCTGTTCGAGGCCACTCTAATCCCAACACTAATTATCATTACACGATGAGGCAACCAAACAGAACGCTTAAATGCAGGAATTTATTTCCTGTTTTATACACTAATTGGCTCCATCCCACTCTTAATTGCCCTCATTTCAATCCAAAACTCAATAGGAACACTCAACTTCCTAATCCTTTCCCTCACAACACACCCCCTACCCTCAACATGATCCAACACCATTCTATGACTAGCATGTATAATAGCATTTATAATCAAAATACCATTATACGGAGTCCATCTATGATTACCAAAAGCCCACGTAGAAGCTCCAATTGCAGGCTCTATAATTTTAGCAGCAATTCTCCTAAAGCTAGGGGGTTATGGGATAATACGAGTTTCCATCATTCTAGACCCCCTAACAAAATCTTTAGCCTACCCATTCATCATCCTCTCATTATGAGGCATAATTATAACTAGCTCAATCTGCCTACGCCAAACAGATCTAAAATCATTAATTGCTTACTCATCAGTAAGCCATATAGCCCTAGTCATCACAGCCATTATAATCCAGACACCATGAAGCTTCATGGGAGCCACAATACTAATAATCGCCCACGGCTTAACCTCATCACTCTTATTCTGCCTAGCAAACACCAACTACGAACGAATTCACAGCCGAACTATAATTATAGCTCGAGGATTACAAATAATCTTTCCATTGATAGCAACATGATGACTATTAGCAAGCTTAGCCAACCTAGCACTACCACCCCTAATTAACCTCATAGGCGAGTTATTCATTGTTATAGCAACATTTTCCTGATCGAACCCCTCTATCATCCTTATAGCAACTAACATTGTCATCACAGGAATATACTCAATATATATGATTATCACAACCCAACGAGGAAAACTAACCAGCCACATAAACAACCTCCAACCTTCCCACACACGAGAATTAACACTCATAGCTCTACACATTATTCCCCTCATACTATTAACAATCAACCCTAAACTCATCACAGGCCTAACAATATGTAGATATAGTTTACAAAAAACATTAGACTGTGAATCTAACAACAGGAAATCAAATTCCTTATTTACCAAGAAAGTATGCAAGAACTGCTAATTCATGCACCCATACCTAAAACATATGGCTTTCTTACTTTTATAGGATAGAAGTAATCCATTGGTCTTAGGAACCAAAAACCTTGGTGCAACTCCAAATAAAAGTAATAAATATAATAACAATCCTAATCCTCATAATTCTTGATTTACTTACAACACCAATCACATTTTCAATAACAATCTTAACCAAACTTATGTACTTCCGTCATATGCTCATTACATCAATTAAATTCTCATTCCTCCTTAGCCTCTTACCTTTACTACTATTCTTCCACCACAACACAGAATACATAATTACTAACTGACATTGACTAACTATTAATTCTATTAAACTTACTATAAGTTTCAAAATTGACTATTTCTCAATCCTATTCCTATCAGTATCCCTATTCGTAACATGATCAATTATACAATTCTCTTCATGATATATACACTCTGACCCCCACATTAACCGATTCATTAAGTACTTAATAATATTCCTGAATAACATACTAATCCTAACCTCAGCTAACAATCTATTCCAACTCTTTATTGGATGAGAAGGGGTAGGAATTATATCCTTCTTATTAATCGGATGATGATATGGCCTTGCAGACGCCAACACAGCGGCCCTCCAAGCAATCCTCTACAACCGAGTCGGAGACATTGGTTTCATCCTAGCTATAACCTGATTCTGCCTAAACATAAACTCCTGAGAACTCCAACAAATTTTCTTAACCAACACCAACAACAATCTAGTCCCTCTCACAGGACTACTAATTGCAGCCACAGGAAAATCCGCCCAATTCGGACTTCATCCATGACTCCCATCAGCTATAGAAGGCCCAACTCCCGTCTCTGCCCTACTACACTCAAGCACAATAGTTGTAGCAGGGATCTTCCTAATAATCCGATTCCACCCCCTAACCTCAAACAATAGTACTATTATAACAGCCATACTATGTCTTGGTGCAATCACCACATTATTCACAGCAATCTGTGCTCTCACCCAAAACGACATCAAAAAAATCGTAGCTTTCTCAACATCCAGCCAACTAGGCCTTATAATAGTCACATTAGGGATTAACCAACCCTACCTTGCTTTCCTCCACATTTGCACCCATGCATTCTTCAAAGCCATATTATTCATATGCTCCGGATCAATCATCCATATCCTCAACGATGAACAAGACATTCGAAAAATAGGCAATATAATAAAAGCAATACCATTCACATCATCTTGTCTCATTATCGGAAGCCTAGCCCTTACCGGAATACCTTTCCTCACAGGATTCTATTCAAAAGATCTCATCATCGAAGCCATCAACACGTGTAACACCAACGCCTGAGCCCTAATAATCACTTTAATCGCCACATCCATAACTGCTGTGTACAGCATACGGATCATCTACTTCGTCACCATGACAAAACCACGATACTCCCCACTAATTACTATTAATGAAAACAACCCAAACCTCATTAATCCAATCAAACGCCTAGCATTAGGAAGCATCCTAGCAGGCTTCCTTATCTCACTAAATATTCCTCCAACTAACATTCAAATTCTCACAATACCCTGACATTTAAAAATAACAGCCCTACTTATTACAATCCTAGGATTTGCCATTGCCCTAGAACTTAACAATTTAACACTAAATCTATCAATAAGCAAACCCACCAAACTATCATCATTCTCAACCTCCCTAGGCTACTACCCACCAATTATACCCCGAATTATTCCTCAAAAAACTCTAAATTCTAGCTACAAATTATCCTTAAACCTACTAGACCTAATCTGATCAGAAAAGACAATCCCAAAATCAACCTCAATCACCCAAACCCAACTATCTAAAATAATATCCAACCAAAAAGGACTAATCAAACTATATTTCCTATCATTTCTCATCACTATTTCACTAATTTTTATCTTACACACACTTAATCCCGAGTGATTTCAATAATAATAAAAATCCCCGCAAACAATGACCACCCAGCCACCACTATCATTCAAGTAGCACAACTATAAATAGCCGCAACCCCAATCCCCCCCTCCAACATAACCCCAACATCATCAATCTCATACATTAATCAATCGCCTAGACTATCAAAATCAACTAACTCCACCTTATTATTCAAACTAAACAAGTAGAACACTACCAACTCCATAAAAAGCCCTAAAACAAAAAAACTAAAAATAAACCAATTAGACCCTCAAGTTTCCGGATATTCCTCAGTAGCCATAGCAGTTGTATACCCAAATACAACCAACATCCCACCCAAATAAATTAAAAATACTATTAAACCTAAAAACGAACCCCCAAACCCTAAAACTATTAAGCACCCAATACATCCACTAACAATCAATCCAAACCCACCATAAATAGGTGAAGGCTTCAACGCCAACCCTAGACAACCAGTCAAAAACAGTAAACTTAAAATAAACATATAATTTGTCATTATTTCTACACAGCATTTAACTGTGACTAATGACATGAAAAATCATCGTTGTAATTCAACTATAGAAACATCTAATGACAAACATCCGAAAATCTCACCCCCTATTCAAAATCATCAACCACTCCTTTATCGACCTACCGGCCCCATCTAACATCTCATCATGATGAAACTTCGGTTCTCTACTAGGAGTATGCCTCATAGTACAAATCCTCACAGGCTTATTCCTAGCAATACACTACACGTCTGATACCATAACAGCATTCTCATCAGTCACCCACATCTGCCGAGACGTAAACTACGGCTGACTAATCCGATACCTACAAGCCAACGGCGCCTCAATATTTTTCATCTGCCTATTCCTCCATGTGGGACGAGGACTATACTATGGATCCTACACTTTCCTAGAAACCTGAAACATTGGGATCATCCTACTATTTGCAGTCATAGCAACTGCATTCATGGGCTATGTACTCCCATGAGGACAAATATCATTCTGAGGAGCTACAGTAATTACAAACCTATTATCAGCTATCCCTTACATTGGGACTACCCTAGTCGAATGAATCTGAGGAGGCTTCTCAGTAGACAAAGCAACCCTAACACGCTTCTTCGCATTCCACTTCATCCTCCCATTCATTATCGCCGCCCTTGCAATTGTACATCTTCTTTTCCTCCACGAAACAGGATCAAATAACCCCACAGGATTAAACTCCGACGCAGACAAAATCCCATTCCATCCATATTATACAATTAAAGACCTCCTAGGTGTATTTATATTACTATTATTCCTAATAACCCTAGTACTATTCTTCCCAGACCTACTAGGAGACCCAGACAATTATACACCCGCTAACCCCCTCAACACCCCACCCCACATCAAACCAGAATGATACTTTCTCTTTGCCTACGCTATTCTACGCTCCATTCCCAACAAACTAGGAGGGGTCGTAGCCCTAATCTTATCAATCCTAATCTTAGCCTTCCTACCATTCCTGCATACCTCAAAACAACGCAGCTTAACATTCCGCCCAATCACCCAAATCCTTTACTGAATCCTAGTAGCCAACCTCCTAGTCTTAACATGAATCGGAGGCCAACCAGTAGAACACCCATTTATCATTATTGGTCAACTAGCCTCCATCAGTTATTTTTCAATTATCCTCATTCTCATACCAATCTCTGGAATTGTTGAAGACAAAATGTTAAAATGAAATTAATGTCCCGATAGTATAAAAATTACTCTGGTCTTGTAAACCAAAAATGAAGAGTCAGTCTTCTCAGGACAATCAAGAAGAAGGAACTACCTCCCCACCATCAACACCCAAAGCTGATATTCTACTTAAACTACTTCTTGTCAGTACATAAAATGATATGGACATTAAAACATTTATGTATATCGTACATTAAATTATTTTCCCCAAGCATATAAGCATGTAATATATATCTAATGATTTAGGACATACATTTAAACTCAACTATAAATTCACAACAACATGTCTATTCTCAAATACATTAAGATAATGCTTATTAGACATATCTGTGTTATTAGACATGCACCATTAAGTCATAAACCTTTCTCTTCCATATGACTATCCCTGTCCCCAATTGGTCTCTATTTCTACCATCCTCCGTGAAATCAACAACCCGCCCACTCGTCCCCCTCTTCTCGCTCCGGGCCCATTCGTCCTGGGGGTGACTATACTGAAACTTTACCAGGCATCTGGTTCTTACTTCAGGGCCATCAATTGGTTCATCGTCCATACGTTCCCCTTAAATAAGACATCTCGATGGTAACGGGTCTAATCAGCCCATGATCAACATAACTGTGGTGATATACATTTGGTATTTTTTAATTTTCGGATGCCTTCCTCAACATAGCCGTCAAGGCATGAAGGTCAGCACAAAGTCCTGTGGAACCTTTTAGTTAAGGGTCATTTATCCTCATAGACAAAGCTCGAAAGACTATTTTATTCATGTTTGTAAGACATAAATATTTATAAATACTGAAAAATCTGTCAACAAACCCCCCCACCCCCTACACCTGAAACTTCAATGCCAAACCCCAAAAACATTAAAGCAAGAATTAAATAAAACAAAAAGCTACTTAATTCTTAAAAGGCTTCTCCATTCTAGTAGACCACAAAATTTTAACTTAAATCTTAGCATTGGTAAAATTTCCCGACACAAAATCTTTCCTCCTAACTAAACCCTCTTTACTTGCCTACCCTCAGAAAATTCCACATACACCAAA'
p1176
sbsS'_per_letter_annotations'
p1177
g1
(cBio.SeqRecord
_RestrictedDict
p1178
c__builtin__
dict
p1179
(dtRp1180
(dp1181
S'_length'
p1182
I16300
sbsg136
S'AC_000022.2'
p1183
sS'name'
p1184
S'AC_000022'
p1185
sb.