ccopy_reg
_reconstructor
p1
(cBio.SeqRecord
SeqRecord
p2
c__builtin__
object
p3
NtRp4
(dp5
S'dbxrefs'
p6
(lp7
S'Project:12054 BioProject:PRJNA12054'
p8
asS'description'
p9
S'Takifugu rubripes mitochondrion, complete genome.'
p10
sS'annotations'
p11
(dp12
S'comment'
p13
S'REVIEWED REFSEQ: This record has been curated by NCBI staff. The\nreference sequence was derived from AJ421455.\nCOMPLETENESS: full length.'
p14
sS'sequence_version'
p15
I1
sS'source'
p16
S'mitochondrion Takifugu rubripes (Fugu rubripes)'
p17
sS'taxonomy'
p18
(lp19
S'Eukaryota'
p20
aS'Metazoa'
p21
aS'Chordata'
p22
aS'Craniata'
p23
aS'Vertebrata'
p24
aS'Euteleostomi'
p25
aS'Actinopterygii'
p26
aS'Neopterygii'
p27
aS'Teleostei'
p28
aS'Euteleostei'
p29
aS'Neoteleostei'
p30
aS'Acanthomorpha'
p31
aS'Acanthopterygii'
p32
aS'Percomorpha'
p33
aS'Tetraodontiformes'
p34
aS'Tetradontoidea'
p35
aS'Tetraodontidae'
p36
aS'Takifugu'
p37
asS'keywords'
p38
(lp39
S''
asS'references'
p40
(lp41
g1
(cBio.SeqFeature
Reference
p42
g3
NtRp43
(dp44
g13
S''
sS'title'
p45
S'The mitochondrial genome of the pufferfish, Fugu rubripes, and ordinal teleostean relationships'
p46
sS'consrtm'
p47
S''
sS'journal'
p48
S'Gene 295 (2), 163-172 (2002)'
p49
sS'location'
p50
(lp51
g1
(cBio.SeqFeature
FeatureLocation
p52
g3
NtRp53
(dp54
S'ref'
p55
NsS'_end'
p56
g1
(cBio.SeqFeature
ExactPosition
p57
c__builtin__
int
p58
I16447
tRp59
sS'_start'
p60
g1
(g57
g58
I0
tRp61
sS'_strand'
p62
NsS'ref_db'
p63
NsbasS'pubmed_id'
p64
S'12354650'
p65
sS'authors'
p66
S'Elmerot,C., Arnason,U., Gojobori,T. and Janke,A.'
p67
sS'medline_id'
p68
S''
sbag1
(g42
g3
NtRp69
(dp70
g13
S''
sg45
S'Direct Submission'
p71
sg47
S''
sg48
S'Submitted (26-NOV-2001) Elmerot C., Department of Genetics, Division of Evolutionary Molecular Systematics, University of Lund, Solvegatan 29, Lund S-22362, Sweden'
p72
sg50
(lp73
g1
(g52
g3
NtRp74
(dp75
g55
Nsg56
g1
(g57
g58
I16447
tRp76
sg60
g1
(g57
g58
I0
tRp77
sg62
Nsg63
Nsbasg64
S''
sg66
S'Elmerot,C.'
p78
sg68
S''
sbag1
(g42
g3
NtRp79
(dp80
g13
S''
sg45
S'Direct Submission'
p81
sg47
S'NCBI Genome Project'
p82
sg48
S'Submitted (09-AUG-2000) National Center for Biotechnology Information, NIH, Bethesda, MD 20894, USA'
p83
sg50
(lp84
g1
(g52
g3
NtRp85
(dp86
g55
Nsg56
g1
(g57
g58
I16447
tRp87
sg60
g1
(g57
g58
I0
tRp88
sg62
Nsg63
Nsbasg64
S''
sg66
S''
sg68
S''
sbasS'accessions'
p89
(lp90
S'NC_004299'
p91
asS'data_file_division'
p92
S'VRT'
p93
sS'date'
p94
S'01-FEB-2010'
p95
sS'organism'
p96
S'Takifugu rubripes'
p97
sS'gi'
p98
S'23397366'
p99
ssS'features'
p100
(lp101
g1
(cBio.SeqFeature
SeqFeature
p102
g3
NtRp103
(dp104
S'sub_features'
p105
(lp106
sS'location_operator'
p107
S''
sS'id'
p108
S'<unknown id>'
p109
sg50
g1
(g52
g3
NtRp110
(dp111
g55
Nsg56
g1
(g57
g58
I16447
tRp112
sg60
g1
(g57
g58
I0
tRp113
sg62
I1
sg63
NsbsS'type'
p114
S'source'
p115
sS'qualifiers'
p116
(dp117
S'organelle'
p118
(lp119
S'mitochondrion'
p120
asS'db_xref'
p121
(lp122
S'taxon:31033'
p123
asS'mol_type'
p124
(lp125
S'genomic DNA'
p126
asS'organism'
p127
(lp128
S'Takifugu rubripes'
p129
assbag1
(g102
g3
NtRp130
(dp131
g105
(lp132
sg107
S''
sg108
g109
sg50
g1
(g52
g3
NtRp133
(dp134
g55
Nsg56
g1
(g57
g58
I68
tRp135
sg60
g1
(g57
g58
I0
tRp136
sg62
I1
sg63
Nsbsg114
S'tRNA'
p137
sg116
(dp138
S'anticodon'
p139
(lp140
S'(pos:31..33,aa:Phe,seq:gaa)'
p141
asS'product'
p142
(lp143
S'tRNA-Phe'
p144
assbag1
(g102
g3
NtRp145
(dp146
g105
(lp147
sg107
S''
sg108
g109
sg50
g1
(g52
g3
NtRp148
(dp149
g55
Nsg56
g1
(g57
g58
I1015
tRp150
sg60
g1
(g57
g58
I68
tRp151
sg62
I1
sg63
Nsbsg114
S'rRNA'
p152
sg116
(dp153
S'product'
p154
(lp155
S'12S ribosomal RNA'
p156
assbag1
(g102
g3
NtRp157
(dp158
g105
(lp159
sg107
S''
sg108
g109
sg50
g1
(g52
g3
NtRp160
(dp161
g55
Nsg56
g1
(g57
g58
I1089
tRp162
sg60
g1
(g57
g58
I1015
tRp163
sg62
I1
sg63
Nsbsg114
S'tRNA'
p164
sg116
(dp165
S'anticodon'
p166
(lp167
S'(pos:1050..1052,aa:Val,seq:tac)'
p168
asS'product'
p169
(lp170
S'tRNA-Val'
p171
assbag1
(g102
g3
NtRp172
(dp173
g105
(lp174
sg107
S''
sg108
g109
sg50
g1
(g52
g3
NtRp175
(dp176
g55
Nsg56
g1
(g57
g58
I2755
tRp177
sg60
g1
(g57
g58
I1089
tRp178
sg62
I1
sg63
Nsbsg114
S'rRNA'
p179
sg116
(dp180
S'product'
p181
(lp182
S'16S ribosomal RNA'
p183
assbag1
(g102
g3
NtRp184
(dp185
g105
(lp186
sg107
S''
sg108
g109
sg50
g1
(g52
g3
NtRp187
(dp188
g55
Nsg56
g1
(g57
g58
I2828
tRp189
sg60
g1
(g57
g58
I2755
tRp190
sg62
I1
sg63
Nsbsg114
S'tRNA'
p191
sg116
(dp192
S'anticodon'
p193
(lp194
S'(pos:2790..2792,aa:Leu,seq:taa)'
p195
asS'codon_recognized'
p196
(lp197
S'UUR'
p198
asS'product'
p199
(lp200
S'tRNA-Leu'
p201
assbag1
(g102
g3
NtRp202
(dp203
g105
(lp204
sg107
S''
sg108
g109
sg50
g1
(g52
g3
NtRp205
(dp206
g55
Nsg56
g1
(g57
g58
I3803
tRp207
sg60
g1
(g57
g58
I2828
tRp208
sg62
I1
sg63
Nsbsg114
S'gene'
p209
sg116
(dp210
S'db_xref'
p211
(lp212
S'GeneID:805222'
p213
asS'gene'
p214
(lp215
S'ND1'
p216
assbag1
(g102
g3
NtRp217
(dp218
g105
(lp219
sg107
S''
sg108
g109
sg50
g1
(g52
g3
NtRp220
(dp221
g55
Nsg56
g1
(g57
g58
I3803
tRp222
sg60
g1
(g57
g58
I2828
tRp223
sg62
I1
sg63
Nsbsg114
S'CDS'
p224
sg116
(dp225
S'product'
p226
(lp227
S'NADH dehydrogenase subunit 1'
p228
asS'codon_start'
p229
(lp230
S'1'
asS'transl_table'
p231
(lp232
S'2'
asS'db_xref'
p233
(lp234
S'GI:23397367'
p235
aS'GeneID:805222'
p236
asS'translation'
p237
(lp238
S'MTTMLITHLIHPLTIIVPVLLAVAFLTLIERKVLGYMQLRKGPNIVGPYGLLQPIADGVKLFIKEPVRPSTSAPILFIIAPTLALTLAMMMWTPMPLPYPILDLNLAILFVLAISSLAVYSILGSGWASNSKYALMGSLRAVAQMISYEVSLGLILLSLIIFTGNFTLQTFNVTQESIWLIIPTWPLAAMWYISTLAETNRAPFDLTEGESELVSGFNVEYAGGPFALFFLAEYANILLMNTLSTILFLGALHMPALPELTSINLMSKTAILSLIFLWARASYPRFRYDQLMHLTWKNFLPLTLAFIIWHLALPTTMAGLPPQM'
p239
asS'gene'
p240
(lp241
S'ND1'
p242
asS'protein_id'
p243
(lp244
S'NP_694915.1'
p245
assbag1
(g102
g3
NtRp246
(dp247
g105
(lp248
sg107
S''
sg108
g109
sg50
g1
(g52
g3
NtRp249
(dp250
g55
Nsg56
g1
(g57
g58
I3875
tRp251
sg60
g1
(g57
g58
I3805
tRp252
sg62
I1
sg63
Nsbsg114
S'tRNA'
p253
sg116
(dp254
S'anticodon'
p255
(lp256
S'(pos:3836..3838,aa:Ile,seq:gat)'
p257
asS'product'
p258
(lp259
S'tRNA-Ile'
p260
assbag1
(g102
g3
NtRp261
(dp262
g105
(lp263
sg107
S''
sg108
g109
sg50
g1
(g52
g3
NtRp264
(dp265
g55
Nsg56
g1
(g57
g58
I3945
tRp266
sg60
g1
(g57
g58
I3874
tRp267
sg62
I-1
sg63
Nsbsg114
S'tRNA'
p268
sg116
(dp269
S'anticodon'
p270
(lp271
S'(pos:complement(3911..3913),aa:Gln,seq:ttg)'
p272
asS'product'
p273
(lp274
S'tRNA-Gln'
p275
assbag1
(g102
g3
NtRp276
(dp277
g105
(lp278
sg107
S''
sg108
g109
sg50
g1
(g52
g3
NtRp279
(dp280
g55
Nsg56
g1
(g57
g58
I4013
tRp281
sg60
g1
(g57
g58
I3944
tRp282
sg62
I1
sg63
Nsbsg114
S'tRNA'
p283
sg116
(dp284
S'anticodon'
p285
(lp286
S'(pos:3975..3977,aa:Met,seq:cat)'
p287
asS'product'
p288
(lp289
S'tRNA-Met'
p290
assbag1
(g102
g3
NtRp291
(dp292
g105
(lp293
sg107
S''
sg108
g109
sg50
g1
(g52
g3
NtRp294
(dp295
g55
Nsg56
g1
(g57
g58
I5060
tRp296
sg60
g1
(g57
g58
I4013
tRp297
sg62
I1
sg63
Nsbsg114
S'gene'
p298
sg116
(dp299
S'db_xref'
p300
(lp301
S'GeneID:805217'
p302
asS'gene'
p303
(lp304
S'ND2'
p305
assbag1
(g102
g3
NtRp306
(dp307
g105
(lp308
sg107
S''
sg108
g109
sg50
g1
(g52
g3
NtRp309
(dp310
g55
Nsg56
g1
(g57
g58
I5060
tRp311
sg60
g1
(g57
g58
I4013
tRp312
sg62
I1
sg63
Nsbsg114
S'CDS'
p313
sg116
(dp314
S'product'
p315
(lp316
S'NADH dehydrogenase subunit 2'
p317
asS'codon_start'
p318
(lp319
S'1'
asS'transl_table'
p320
(lp321
S'2'
asS'db_xref'
p322
(lp323
S'GI:23397368'
p324
aS'GeneID:805217'
p325
asS'translation'
p326
(lp327
S'MNPYITASLLFGLLLGTTITTTSTHWLIAWMGLEINTLAIIPLMAQQHHPRAIEATTKYFLTQAAAAATLLLAATTNAWMTGQWELQQATHPVPTTMITIALALKIGLAPLHTWLPEVMQGLDLTTGLILATWQKIAPFSLLLQIQPNNQTLLILLAILSMLVGGWGGLNQTQVRKILAYSSIAHLGWMVIILQFSPTLAVMTLALYIIMTSSTFLAFMMNKTTTIGTLTISWAKTPIISSLMPLILLSLGGLPPLTGFMPKWLILQELTKQDLGMTATLAALSALLSLYFYLRLSYAMTLTISPNNLTGTLPWRTQTNKKTLPTAILLSSSILLLPLTPEVLTLFNT'
p328
asS'gene'
p329
(lp330
S'ND2'
p331
asS'protein_id'
p332
(lp333
S'NP_694916.1'
p334
assbag1
(g102
g3
NtRp335
(dp336
g105
(lp337
sg107
S''
sg108
g109
sg50
g1
(g52
g3
NtRp338
(dp339
g55
Nsg56
g1
(g57
g58
I5130
tRp340
sg60
g1
(g57
g58
I5059
tRp341
sg62
I1
sg63
Nsbsg114
S'tRNA'
p342
sg116
(dp343
S'anticodon'
p344
(lp345
S'(pos:5092..5094,aa:Trp,seq:tca)'
p346
asS'product'
p347
(lp348
S'tRNA-Trp'
p349
assbag1
(g102
g3
NtRp350
(dp351
g105
(lp352
sg107
S''
sg108
g109
sg50
g1
(g52
g3
NtRp353
(dp354
g55
Nsg56
g1
(g57
g58
I5200
tRp355
sg60
g1
(g57
g58
I5131
tRp356
sg62
I1
sg63
Nsbsg114
S'tRNA'
p357
sg116
(dp358
S'anticodon'
p359
(lp360
S'(pos:5168..5170,aa:Ala,seq:gca)'
p361
asS'product'
p362
(lp363
S'tRNA-Ala'
p364
assbag1
(g102
g3
NtRp365
(dp366
g105
(lp367
sg107
S''
sg108
g109
sg50
g1
(g52
g3
NtRp368
(dp369
g55
Nsg56
g1
(g57
g58
I5276
tRp370
sg60
g1
(g57
g58
I5202
tRp371
sg62
I-1
sg63
Nsbsg114
S'tRNA'
p372
sg116
(dp373
S'product'
p374
(lp375
S'tRNA-Asn'
p376
assbag1
(g102
g3
NtRp377
(dp378
g105
(lp379
sg107
S''
sg108
g109
sg50
g1
(g52
g3
NtRp380
(dp381
g55
Nsg56
g1
(g57
g58
I5374
tRp382
sg60
g1
(g57
g58
I5310
tRp383
sg62
I-1
sg63
Nsbsg114
S'tRNA'
p384
sg116
(dp385
S'anticodon'
p386
(lp387
S'(pos:complement(5346..5348),aa:Cys,seq:gca)'
p388
asS'product'
p389
(lp390
S'tRNA-Cys'
p391
assbag1
(g102
g3
NtRp392
(dp393
g105
(lp394
sg107
S''
sg108
g109
sg50
g1
(g52
g3
NtRp395
(dp396
g55
Nsg56
g1
(g57
g58
I5443
tRp397
sg60
g1
(g57
g58
I5373
tRp398
sg62
I1
sg63
Nsbsg114
S'tRNA'
p399
sg116
(dp400
S'product'
p401
(lp402
S'tRNA-Tyr'
p403
assbag1
(g102
g3
NtRp404
(dp405
g105
(lp406
sg107
S''
sg108
g109
sg50
g1
(g52
g3
NtRp407
(dp408
g55
Nsg56
g1
(g57
g58
I6990
tRp409
sg60
g1
(g57
g58
I5444
tRp410
sg62
I1
sg63
Nsbsg114
S'gene'
p411
sg116
(dp412
S'db_xref'
p413
(lp414
S'GeneID:805218'
p415
asS'gene'
p416
(lp417
S'COX1'
p418
assbag1
(g102
g3
NtRp419
(dp420
g105
(lp421
sg107
S''
sg108
g109
sg50
g1
(g52
g3
NtRp422
(dp423
g55
Nsg56
g1
(g57
g58
I6990
tRp424
sg60
g1
(g57
g58
I5444
tRp425
sg62
I1
sg63
Nsbsg114
S'CDS'
p426
sg116
(dp427
S'product'
p428
(lp429
S'cytochrome c oxidase subunit I'
p430
asS'transl_except'
p431
(lp432
S'(pos:6990,aa:TERM)'
p433
asS'codon_start'
p434
(lp435
S'1'
asS'transl_table'
p436
(lp437
S'2'
asS'note'
p438
(lp439
S"TAA stop codon is completed by the addition of 3' A residues to the mRNA"
p440
asS'db_xref'
p441
(lp442
S'GI:23397369'
p443
aS'GeneID:805218'
p444
asS'translation'
p445
(lp446
S'MAITRWFFSTNHKDIGTLYLVFGAWAGMVGTALSLLIRAELSQPGALLGDDQIYNVIVTAHAFVMIFFMVMPIMIGGFGNWLIPLMIGAPDMAFPRMNNMSFWLLPPSFLLLLASSGVEAGAGTGWTVYPPLAGNLAHAGASVDLTIFSLHLAGVSSILGAINFITTIINMKPPAISQYQTPLFVWAVLITAVLLLLSLPVLAAGITMLLTDRNLNTTFFDPAGGGDPILYQHLFWFFGHPEVYILILPGFGMISHIVAYYSGKKEPFGYMGMVWAMMAIGLLGFIVWAHHMFTVGMDVDTRAYFTSATMIIAIPTGVKVFSWLATLHGGSIKWETPMLWALGFIFLFTVGGLTGIVLANSSLDIVLHDTYYVVAHFHYVLSMGAVFAIMGAFVHWFPLFSGYTLHSTWTKIHFGVMFIGVNLTFFPQHFLGLAGMPRRYSDYPDAYALWNSVSSIGSMVSLVAVIMFLFILWEAFTAKREVQSVELTMTNVEWLHGCPPPYHTFEEPAFVQTQT'
p447
asS'gene'
p448
(lp449
S'COX1'
p450
asS'protein_id'
p451
(lp452
S'NP_694917.1'
p453
assbag1
(g102
g3
NtRp454
(dp455
g105
(lp456
sg107
S''
sg108
g109
sg50
g1
(g52
g3
NtRp457
(dp458
g55
Nsg56
g1
(g57
g58
I7066
tRp459
sg60
g1
(g57
g58
I6995
tRp460
sg62
I-1
sg63
Nsbsg114
S'tRNA'
p461
sg116
(dp462
S'anticodon'
p463
(lp464
S'(pos:complement(7032..7034),aa:Ser,seq:tga)'
p465
asS'codon_recognized'
p466
(lp467
S'UCN'
p468
asS'product'
p469
(lp470
S'tRNA-Ser'
p471
assbag1
(g102
g3
NtRp472
(dp473
g105
(lp474
sg107
S''
sg108
g109
sg50
g1
(g52
g3
NtRp475
(dp476
g55
Nsg56
g1
(g57
g58
I7141
tRp477
sg60
g1
(g57
g58
I7069
tRp478
sg62
I1
sg63
Nsbsg114
S'tRNA'
p479
sg116
(dp480
S'anticodon'
p481
(lp482
S'(pos:7103..7105,aa:Asp,seq:gtc)'
p483
asS'product'
p484
(lp485
S'tRNA-Asp'
p486
assbag1
(g102
g3
NtRp487
(dp488
g105
(lp489
sg107
S''
sg108
g109
sg50
g1
(g52
g3
NtRp490
(dp491
g55
Nsg56
g1
(g57
g58
I7838
tRp492
sg60
g1
(g57
g58
I7147
tRp493
sg62
I1
sg63
Nsbsg114
S'gene'
p494
sg116
(dp495
S'db_xref'
p496
(lp497
S'GeneID:805219'
p498
asS'gene'
p499
(lp500
S'COX2'
p501
assbag1
(g102
g3
NtRp502
(dp503
g105
(lp504
sg107
S''
sg108
g109
sg50
g1
(g52
g3
NtRp505
(dp506
g55
Nsg56
g1
(g57
g58
I7838
tRp507
sg60
g1
(g57
g58
I7147
tRp508
sg62
I1
sg63
Nsbsg114
S'CDS'
p509
sg116
(dp510
S'product'
p511
(lp512
S'cytochrome c oxidase subunit II'
p513
asS'transl_except'
p514
(lp515
S'(pos:7838,aa:TERM)'
p516
asS'codon_start'
p517
(lp518
S'1'
asS'transl_table'
p519
(lp520
S'2'
asS'note'
p521
(lp522
S"TAA stop codon is completed by the addition of 3' A residues to the mRNA"
p523
asS'db_xref'
p524
(lp525
S'GI:23397370'
p526
aS'GeneID:805219'
p527
asS'translation'
p528
(lp529
S'MAHPSQLGFQDAASPVMEELLHFHDHALMIVFLISTLVLYIIVAMVSTKLTNKYILDSQEIEIIWTILPAIILILIALPSLRILYLMDEINDPHLTIKAMGHQWYWSYEYTDYSDLAFDSYMVPTQDLAPGQFRLLETDHRMVVPVDSPIRILVSAEDVLHSWAVPSLGVKMDAVPGRLNQTAFILSRPGVFYGQCSEICGANHSFMPIVVEAVPLEHFENWSSLMLEDT'
p530
asS'gene'
p531
(lp532
S'COX2'
p533
asS'protein_id'
p534
(lp535
S'NP_694918.1'
p536
assbag1
(g102
g3
NtRp537
(dp538
g105
(lp539
sg107
S''
sg108
g109
sg50
g1
(g52
g3
NtRp540
(dp541
g55
Nsg56
g1
(g57
g58
I7911
tRp542
sg60
g1
(g57
g58
I7838
tRp543
sg62
I1
sg63
Nsbsg114
S'tRNA'
p544
sg116
(dp545
S'anticodon'
p546
(lp547
S'(pos:7873..7875,aa:Lys,seq:ttt)'
p548
asS'product'
p549
(lp550
S'tRNA-Lys'
p551
assbag1
(g102
g3
NtRp552
(dp553
g105
(lp554
sg107
S''
sg108
g109
sg50
g1
(g52
g3
NtRp555
(dp556
g55
Nsg56
g1
(g57
g58
I8080
tRp557
sg60
g1
(g57
g58
I7912
tRp558
sg62
I1
sg63
Nsbsg114
S'gene'
p559
sg116
(dp560
S'db_xref'
p561
(lp562
S'GeneID:805216'
p563
asS'gene'
p564
(lp565
S'ATP8'
p566
assbag1
(g102
g3
NtRp567
(dp568
g105
(lp569
sg107
S''
sg108
g109
sg50
g1
(g52
g3
NtRp570
(dp571
g55
Nsg56
g1
(g57
g58
I8080
tRp572
sg60
g1
(g57
g58
I7912
tRp573
sg62
I1
sg63
Nsbsg114
S'CDS'
p574
sg116
(dp575
S'product'
p576
(lp577
S'ATP synthase F0 subunit 8'
p578
asS'codon_start'
p579
(lp580
S'1'
asS'transl_table'
p581
(lp582
S'2'
asS'db_xref'
p583
(lp584
S'GI:23397371'
p585
aS'GeneID:805216'
p586
asS'translation'
p587
(lp588
S'MPQLNPAPWFLIMVFSWCVFLIFLPPKIMAHLFPNEPSSQNTCPKEIKPWPWSWH'
p589
asS'gene'
p590
(lp591
S'ATP8'
p592
asS'protein_id'
p593
(lp594
S'NP_694919.1'
p595
assbag1
(g102
g3
NtRp596
(dp597
g105
(lp598
sg107
S''
sg108
g109
sg50
g1
(g52
g3
NtRp599
(dp600
g55
Nsg56
g1
(g57
g58
I8754
tRp601
sg60
g1
(g57
g58
I8070
tRp602
sg62
I1
sg63
Nsbsg114
S'gene'
p603
sg116
(dp604
S'db_xref'
p605
(lp606
S'GeneID:805215'
p607
asS'gene'
p608
(lp609
S'ATP6'
p610
assbag1
(g102
g3
NtRp611
(dp612
g105
(lp613
sg107
S''
sg108
g109
sg50
g1
(g52
g3
NtRp614
(dp615
g55
Nsg56
g1
(g57
g58
I8754
tRp616
sg60
g1
(g57
g58
I8070
tRp617
sg62
I1
sg63
Nsbsg114
S'CDS'
p618
sg116
(dp619
S'product'
p620
(lp621
S'ATP synthase F0 subunit 6'
p622
asS'codon_start'
p623
(lp624
S'1'
asS'transl_table'
p625
(lp626
S'2'
asS'db_xref'
p627
(lp628
S'GI:23397372'
p629
aS'GeneID:805215'
p630
asS'translation'
p631
(lp632
S'MTLSFFDQFLSPTAFGIPLIALALLLPWTLFPTPTNRWTNNRLLTLQSQFINRFTQQLLLPLNMGGHKWGPYIASLMVFLITINMLGLLPYTFTPTTQLSVNMALAVPLWLATVIIGMRNNPTAALGHLLPEGTPNALIPILIIIETVSLFIRPLALGVRLTANLTAGHLLIQLIATAAFVLLPLMPTVAILTSTLLFLLTLLEVAVEMIQAYVFVLLLSLYLQENV'
p633
asS'gene'
p634
(lp635
S'ATP6'
p636
asS'protein_id'
p637
(lp638
S'NP_694920.1'
p639
assbag1
(g102
g3
NtRp640
(dp641
g105
(lp642
sg107
S''
sg108
g109
sg50
g1
(g52
g3
NtRp643
(dp644
g55
Nsg56
g1
(g57
g58
I9539
tRp645
sg60
g1
(g57
g58
I8753
tRp646
sg62
I1
sg63
Nsbsg114
S'gene'
p647
sg116
(dp648
S'db_xref'
p649
(lp650
S'GeneID:805220'
p651
asS'gene'
p652
(lp653
S'COX3'
p654
assbag1
(g102
g3
NtRp655
(dp656
g105
(lp657
sg107
S''
sg108
g109
sg50
g1
(g52
g3
NtRp658
(dp659
g55
Nsg56
g1
(g57
g58
I9539
tRp660
sg60
g1
(g57
g58
I8753
tRp661
sg62
I1
sg63
Nsbsg114
S'CDS'
p662
sg116
(dp663
S'product'
p664
(lp665
S'cytochrome c oxidase subunit III'
p666
asS'codon_start'
p667
(lp668
S'1'
asS'transl_table'
p669
(lp670
S'2'
asS'db_xref'
p671
(lp672
S'GI:23397373'
p673
aS'GeneID:805220'
p674
asS'translation'
p675
(lp676
S'MAHQAHPYHMVDPSPWPLTGAVAALLLTSGLAIWFHFNSTILMTLGLVLLLLTMLQWWRDIVREGTFQGHHTPPVQKGLRYGMILFITSEVFFFLGFFWAFYHASLAPTPELGGCWPPTGIIPLNPFEVPLLNTAVLLASGVTVTWAHHSIMEGERKQAIQSLTLTILLGFYFTFLQAMEYYEAPFTIADGVYGSTFFVATGFHGLHVIIGSTFLAVCLLRQIRFHFTSEHHFGFEAAAWYWHFVDVVWLFLYISIYWWGS'
p677
asS'gene'
p678
(lp679
S'COX3'
p680
asS'protein_id'
p681
(lp682
S'NP_694921.1'
p683
assbag1
(g102
g3
NtRp684
(dp685
g105
(lp686
sg107
S''
sg108
g109
sg50
g1
(g52
g3
NtRp687
(dp688
g55
Nsg56
g1
(g57
g58
I9610
tRp689
sg60
g1
(g57
g58
I9539
tRp690
sg62
I1
sg63
Nsbsg114
S'tRNA'
p691
sg116
(dp692
S'anticodon'
p693
(lp694
S'(pos:9572..9574,aa:Gly,seq:tcc)'
p695
asS'product'
p696
(lp697
S'tRNA-Gly'
p698
assbag1
(g102
g3
NtRp699
(dp700
g105
(lp701
sg107
S''
sg108
g109
sg50
g1
(g52
g3
NtRp702
(dp703
g55
Nsg56
g1
(g57
g58
I9961
tRp704
sg60
g1
(g57
g58
I9610
tRp705
sg62
I1
sg63
Nsbsg114
S'gene'
p706
sg116
(dp707
S'db_xref'
p708
(lp709
S'GeneID:805224'
p710
asS'gene'
p711
(lp712
S'ND3'
p713
assbag1
(g102
g3
NtRp714
(dp715
g105
(lp716
sg107
S''
sg108
g109
sg50
g1
(g52
g3
NtRp717
(dp718
g55
Nsg56
g1
(g57
g58
I9961
tRp719
sg60
g1
(g57
g58
I9610
tRp720
sg62
I1
sg63
Nsbsg114
S'CDS'
p721
sg116
(dp722
S'product'
p723
(lp724
S'NADH dehydrogenase subunit 3'
p725
asS'codon_start'
p726
(lp727
S'1'
asS'transl_table'
p728
(lp729
S'2'
asS'db_xref'
p730
(lp731
S'GI:23397374'
p732
aS'GeneID:805224'
p733
asS'translation'
p734
(lp735
S'MNLLTTMLIITTALSLILMTVSFWLPALTPDYQKLSPYECGFDPLGSARLPFSLRFFLVAILFLLFDLEIALLLPLPWGDQLPSPTLTLMWTSALLILLTIGLAYEWLQGGLEWAE'
p736
asS'gene'
p737
(lp738
S'ND3'
p739
asS'protein_id'
p740
(lp741
S'NP_694922.1'
p742
assbag1
(g102
g3
NtRp743
(dp744
g105
(lp745
sg107
S''
sg108
g109
sg50
g1
(g52
g3
NtRp746
(dp747
g55
Nsg56
g1
(g57
g58
I10029
tRp748
sg60
g1
(g57
g58
I9959
tRp749
sg62
I1
sg63
Nsbsg114
S'tRNA'
p750
sg116
(dp751
S'anticodon'
p752
(lp753
S'(pos:9990..9992,aa:Arg,seq:tcg)'
p754
asS'product'
p755
(lp756
S'tRNA-Arg'
p757
assbag1
(g102
g3
NtRp758
(dp759
g105
(lp760
sg107
S''
sg108
g109
sg50
g1
(g52
g3
NtRp761
(dp762
g55
Nsg56
g1
(g57
g58
I10326
tRp763
sg60
g1
(g57
g58
I10029
tRp764
sg62
I1
sg63
Nsbsg114
S'gene'
p765
sg116
(dp766
S'db_xref'
p767
(lp768
S'GeneID:805213'
p769
asS'gene'
p770
(lp771
S'ND4L'
p772
assbag1
(g102
g3
NtRp773
(dp774
g105
(lp775
sg107
S''
sg108
g109
sg50
g1
(g52
g3
NtRp776
(dp777
g55
Nsg56
g1
(g57
g58
I10326
tRp778
sg60
g1
(g57
g58
I10029
tRp779
sg62
I1
sg63
Nsbsg114
S'CDS'
p780
sg116
(dp781
S'product'
p782
(lp783
S'NADH dehydrogenase subunit 4L'
p784
asS'codon_start'
p785
(lp786
S'1'
asS'transl_table'
p787
(lp788
S'2'
asS'db_xref'
p789
(lp790
S'GI:23397375'
p791
aS'GeneID:805213'
p792
asS'translation'
p793
(lp794
S'MTLIQLSFTSIFFLGLFGLAFYRVHLLSALLCLESMMLALFLALSTWSLQMSSTSFSAAPLLLLAFSACEAGVGLALMVATARTHGSDHLQNLNLLQC'
p795
asS'gene'
p796
(lp797
S'ND4L'
p798
asS'protein_id'
p799
(lp800
S'NP_694923.1'
p801
assbag1
(g102
g3
NtRp802
(dp803
g105
(lp804
sg107
S''
sg108
g109
sg50
g1
(g52
g3
NtRp805
(dp806
g55
Nsg56
g1
(g57
g58
I11700
tRp807
sg60
g1
(g57
g58
I10319
tRp808
sg62
I1
sg63
Nsbsg114
S'gene'
p809
sg116
(dp810
S'db_xref'
p811
(lp812
S'GeneID:805214'
p813
asS'gene'
p814
(lp815
S'ND4'
p816
assbag1
(g102
g3
NtRp817
(dp818
g105
(lp819
sg107
S''
sg108
g109
sg50
g1
(g52
g3
NtRp820
(dp821
g55
Nsg56
g1
(g57
g58
I11700
tRp822
sg60
g1
(g57
g58
I10319
tRp823
sg62
I1
sg63
Nsbsg114
S'CDS'
p824
sg116
(dp825
S'product'
p826
(lp827
S'NADH dehydrogenase subunit 4'
p828
asS'transl_except'
p829
(lp830
S'(pos:11700,aa:TERM)'
p831
asS'codon_start'
p832
(lp833
S'1'
asS'transl_table'
p834
(lp835
S'2'
asS'note'
p836
(lp837
S"TAA stop codon is completed by the addition of 3' A residues to the mRNA"
p838
asS'db_xref'
p839
(lp840
S'GI:23397376'
p841
aS'GeneID:805214'
p842
asS'translation'
p843
(lp844
S'MLKILIPTTMLILATWLTPPKWLWPSSLLNSLLIALTSLLWLKNASETGWTFLNPYLATDPLSTPLLILSCWLLPLMILASQNHTSHEPINRQRMYITLLASLQFFLILAFSATEMIMFYVMFEATLIPTLILITRWGNQAERLNAGTYFLFYTLAGSLPLLIALLLLQNSNGSLSLLMLPHLGQLELTSYADKIWWAGCILAFLVKMPLYGVHLWLPKAHVEAPIAGSMVLAAVLLKLGGYGMMRILVTLDPLTKELSYPFIVLALWGVIMTGSICMRQTDLKSLIAYSSVSHMGLVVGGILIQTPWGFTGALILMIAHGLTSSALFCLANTSYERTHSRTMLLARGMQMILPLMAAWWFIASLANLALPPLPNLMGELMIITSLFNWSPWTIGLTGLGTLITAGYSLYMFLMTQRGPAPSHLLALEPSHTREHLLIALHLLPLILIITKPELIWGWTA'
p845
asS'gene'
p846
(lp847
S'ND4'
p848
asS'protein_id'
p849
(lp850
S'NP_694924.1'
p851
assbag1
(g102
g3
NtRp852
(dp853
g105
(lp854
sg107
S''
sg108
g109
sg50
g1
(g52
g3
NtRp855
(dp856
g55
Nsg56
g1
(g57
g58
I11769
tRp857
sg60
g1
(g57
g58
I11700
tRp858
sg62
I1
sg63
Nsbsg114
S'tRNA'
p859
sg116
(dp860
S'anticodon'
p861
(lp862
S'(pos:11731..11733,aa:His,seq:gtg)'
p863
asS'product'
p864
(lp865
S'tRNA-His'
p866
assbag1
(g102
g3
NtRp867
(dp868
g105
(lp869
sg107
S''
sg108
g109
sg50
g1
(g52
g3
NtRp870
(dp871
g55
Nsg56
g1
(g57
g58
I11837
tRp872
sg60
g1
(g57
g58
I11769
tRp873
sg62
I1
sg63
Nsbsg114
S'tRNA'
p874
sg116
(dp875
S'anticodon'
p876
(lp877
S'(pos:11796..11798,aa:Ser,seq:gct)'
p878
asS'codon_recognized'
p879
(lp880
S'AGY'
p881
asS'product'
p882
(lp883
S'tRNA-Ser'
p884
assbag1
(g102
g3
NtRp885
(dp886
g105
(lp887
sg107
S''
sg108
g109
sg50
g1
(g52
g3
NtRp888
(dp889
g55
Nsg56
g1
(g57
g58
I11915
tRp890
sg60
g1
(g57
g58
I11842
tRp891
sg62
I1
sg63
Nsbsg114
S'tRNA'
p892
sg116
(dp893
S'anticodon'
p894
(lp895
S'(pos:11876..11878,aa:Leu,seq:tag)'
p896
asS'codon_recognized'
p897
(lp898
S'CUN'
p899
asS'product'
p900
(lp901
S'tRNA-Leu'
p902
assbag1
(g102
g3
NtRp903
(dp904
g105
(lp905
sg107
S''
sg108
g109
sg50
g1
(g52
g3
NtRp906
(dp907
g55
Nsg56
g1
(g57
g58
I13754
tRp908
sg60
g1
(g57
g58
I11915
tRp909
sg62
I1
sg63
Nsbsg114
S'gene'
p910
sg116
(dp911
S'db_xref'
p912
(lp913
S'GeneID:805223'
p914
asS'gene'
p915
(lp916
S'ND5'
p917
assbag1
(g102
g3
NtRp918
(dp919
g105
(lp920
sg107
S''
sg108
g109
sg50
g1
(g52
g3
NtRp921
(dp922
g55
Nsg56
g1
(g57
g58
I13754
tRp923
sg60
g1
(g57
g58
I11915
tRp924
sg62
I1
sg63
Nsbsg114
S'CDS'
p925
sg116
(dp926
S'product'
p927
(lp928
S'NADH dehydrogenase subunit 5'
p929
asS'codon_start'
p930
(lp931
S'1'
asS'transl_table'
p932
(lp933
S'2'
asS'db_xref'
p934
(lp935
S'GI:23397377'
p936
aS'GeneID:805223'
p937
asS'translation'
p938
(lp939
S'MHSTPLIMTSTLIIIFALLIYPVLMTFSPKPQNPNWALIQVKTAVKYAFLVSLLPLCLHLNEGTESIITNLNWMNTLTFDINISLKFDSYSIIFTPVALYVTWSILEFASWYMHSDPFMNRFFKYLLVFLIAMIILVTANNMFQLFIGWEGVGIMSFLLIGWWYARADANTAALQAVIYNRVGDIGLIIAMAWMATHLNSWELQQIFFSTKNMDMTLPLVALILAATGKSAQFGLHPWLPSAMEGPTPVSALLHSSTMVVAGIFLMIRISPLLETNPTALTLCLCLGALTTLFTATCALTQNDIKKIVAFSTSSQLGLMMVTIGLNQPQLAFLHICTHAFFKAMLFLCSGSIIHSLNDEQDIRKMGGMHHLTPVTSSCLTIGSLALTGTPFLAGFFSKDAIIESLTTSQLNAWALCLTLLATSFTAIYSLRVVFYVSMGHPRFNSLSPINENNPSVINPIKRLAWGSIIAGLLITTNLLPTKTPVMSMPMVVKLTALIVTILGLLIALELASLTSKQLKPTPHLSPHHFSNMLGFFPTIVHRASPKINLILGQTIATQIIDLTWLEKVGPKTISSINTPLISTISNIQQGSIKTYLVLFLTTLALSTLVLLT'
p940
asS'gene'
p941
(lp942
S'ND5'
p943
asS'protein_id'
p944
(lp945
S'NP_694925.1'
p946
assbag1
(g102
g3
NtRp947
(dp948
g105
(lp949
sg107
S''
sg108
g109
sg50
g1
(g52
g3
NtRp950
(dp951
g55
Nsg56
g1
(g57
g58
I14271
tRp952
sg60
g1
(g57
g58
I13749
tRp953
sg62
I-1
sg63
Nsbsg114
S'gene'
p954
sg116
(dp955
S'db_xref'
p956
(lp957
S'GeneID:805212'
p958
asS'gene'
p959
(lp960
S'ND6'
p961
assbag1
(g102
g3
NtRp962
(dp963
g105
(lp964
sg107
S''
sg108
g109
sg50
g1
(g52
g3
NtRp965
(dp966
g55
Nsg56
g1
(g57
g58
I14271
tRp967
sg60
g1
(g57
g58
I13749
tRp968
sg62
I-1
sg63
Nsbsg114
S'CDS'
p969
sg116
(dp970
S'product'
p971
(lp972
S'NADH dehydrogenase subunit 6'
p973
asS'codon_start'
p974
(lp975
S'1'
asS'transl_table'
p976
(lp977
S'2'
asS'db_xref'
p978
(lp979
S'GI:23397378'
p980
aS'GeneID:805212'
p981
asS'translation'
p982
(lp983
S'MFYALVFLLLGMLVVMIVLSTNPAPFYGVFNLVLVALLCCGASVLHGGTFLSLVLLMIYMGGMLVVFIYSSALSADKDPKAPTGWQVVLFFFGYFFFVFGILYTNMVLDEEVWWGVSGEMDWDAVFRGDMDGVSLMYSSGGGVLLLGAWVLLLTLLVVLELVRGLGRGALRAV'
p984
asS'gene'
p985
(lp986
S'ND6'
p987
asS'protein_id'
p988
(lp989
S'NP_694926.1'
p990
assbag1
(g102
g3
NtRp991
(dp992
g105
(lp993
sg107
S''
sg108
g109
sg50
g1
(g52
g3
NtRp994
(dp995
g55
Nsg56
g1
(g57
g58
I14340
tRp996
sg60
g1
(g57
g58
I14271
tRp997
sg62
I-1
sg63
Nsbsg114
S'tRNA'
p998
sg116
(dp999
S'anticodon'
p1000
(lp1001
S'(pos:complement(14308..14310),aa:Glu,seq:ttc)'
p1002
asS'product'
p1003
(lp1004
S'tRNA-Glu'
p1005
assbag1
(g102
g3
NtRp1006
(dp1007
g105
(lp1008
sg107
S''
sg108
g109
sg50
g1
(g52
g3
NtRp1009
(dp1010
g55
Nsg56
g1
(g57
g58
I15481
tRp1011
sg60
g1
(g57
g58
I14344
tRp1012
sg62
I1
sg63
Nsbsg114
S'gene'
p1013
sg116
(dp1014
S'db_xref'
p1015
(lp1016
S'GeneID:805221'
p1017
asS'gene'
p1018
(lp1019
S'CYTB'
p1020
assbag1
(g102
g3
NtRp1021
(dp1022
g105
(lp1023
sg107
S''
sg108
g109
sg50
g1
(g52
g3
NtRp1024
(dp1025
g55
Nsg56
g1
(g57
g58
I15481
tRp1026
sg60
g1
(g57
g58
I14344
tRp1027
sg62
I1
sg63
Nsbsg114
S'CDS'
p1028
sg116
(dp1029
S'product'
p1030
(lp1031
S'cytochrome b'
p1032
asS'codon_start'
p1033
(lp1034
S'1'
asS'transl_table'
p1035
(lp1036
S'2'
asS'db_xref'
p1037
(lp1038
S'GI:23397379'
p1039
aS'GeneID:805221'
p1040
asS'translation'
p1041
(lp1042
S'MASLRKTHPLLKIVNDMVIDLPTPSNISAWWNFGSLLGLCLITQIITGLFLAMHYTSDISTAFSSVAHICRDVNYGWLIRNLHANGASFFFICLYSHIGRGLYYGSYLSKETWNVGVVLLLLVMATAFVGYVLPWGQMSFWGATVITNLLSAVPYVGNTLVQWVWGGFSVDSATLTRFFAFHFLLPFIVAAAAIVHLIFLHETGSNNPLGLNSNADKIPFHPYFSYKDLLGFTIMLSALATLALFSPNYLGDPDNFTPANPLVTPAHIKPEWYFLFAYAILRSIPNKLGGVLALLASILILMVVPFLHTSKQRSLTFRPLSQFLFWTLIADVVILTWIGGMPVEHPYIIIGQIASVLYFSLFLILMPMAGWLENKMLN'
p1043
asS'gene'
p1044
(lp1045
S'CYTB'
p1046
asS'protein_id'
p1047
(lp1048
S'NP_694927.1'
p1049
assbag1
(g102
g3
NtRp1050
(dp1051
g105
(lp1052
sg107
S''
sg108
g109
sg50
g1
(g52
g3
NtRp1053
(dp1054
g55
Nsg56
g1
(g57
g58
I15556
tRp1055
sg60
g1
(g57
g58
I15484
tRp1056
sg62
I1
sg63
Nsbsg114
S'tRNA'
p1057
sg116
(dp1058
S'anticodon'
p1059
(lp1060
S'(pos:15517..15519,aa:Thr,seq:tgt)'
p1061
asS'product'
p1062
(lp1063
S'tRNA-Thr'
p1064
assbag1
(g102
g3
NtRp1065
(dp1066
g105
(lp1067
sg107
S''
sg108
g109
sg50
g1
(g52
g3
NtRp1068
(dp1069
g55
Nsg56
g1
(g57
g58
I15626
tRp1070
sg60
g1
(g57
g58
I15555
tRp1071
sg62
I-1
sg63
Nsbsg114
S'tRNA'
p1072
sg116
(dp1073
S'anticodon'
p1074
(lp1075
S'(pos:complement(15592..15594),aa:Pro,seq:tgg)'
p1076
asS'product'
p1077
(lp1078
S'tRNA-Pro'
p1079
assbag1
(g102
g3
NtRp1080
(dp1081
g105
(lp1082
sg107
S''
sg108
g109
sg50
g1
(g52
g3
NtRp1083
(dp1084
g55
Nsg56
g1
(g57
g58
I16447
tRp1085
sg60
g1
(g57
g58
I15626
tRp1086
sg62
I1
sg63
Nsbsg114
S'D-loop'
p1087
sg116
(dp1088
S'note'
p1089
(lp1090
S'control region'
p1091
assbasS'_seq'
p1092
g1
(cBio.Seq
Seq
p1093
g3
NtRp1094
(dp1095
S'alphabet'
p1096
g1
(cBio.Alphabet.IUPAC
IUPACAmbiguousDNA
p1097
g3
NtRp1098
sS'_data'
p1099
S'GCTAGCGTAGCTTAACCAAAGCAGAGTACTGAAGATGCTAAGATGGGCCCTGAAAAGTCCCGCAGGCACAAAAGCTTGGTCCTGACTTTACTAACAACTCTGATCAAACTTACACATGCAAGTATCCGCATCCCAGTGAAAATGCCCCCCGCCCCCCGTCCGGAAATAGGGAGTTGGTATCAGGCACACAAATTTGTAGCCCATGACACCTAGCTTTGCCACGCCCCCAAGGGAATTCAGCAGTGATAAACATTAAGCCATAAGTGAAAACTTGACTTAGTTATGATCTAAAGAGTCGGTAAAACTCGTGCCAGCCACCGCGGTTATACGAGAGACCCAAGTTGTTAGCCAACGGCGTAAAGGGTGGTTAGAACTAAAAACAACAAACTGAGACCGAACACCTTCAAGGCTGTTATACGCTTCCGAAGCAACGAAGAACAATAACGAAAGTAGCCTCACTAACTCGAACCCACGAAAGCTAGGACACAAACTGGGATTAGATACCCCACTATGCCTACCCCTAAACACGATATGAAACTACGTACATATCCGCCTGGTTACTACGAGCATTAGCTTAAAACCCAAAGGACTTGGCGGTGCTTTAAAACCATCTAGAGGAGCCTGTTTTAAAACCGATACTCCCCGTTCAACCTCACCCCTCCTTGTTTTAACCGCCTATATACCACCGTCGTCAGCCTACCCTGTGAAGGGCAAATAGTAGACAAAATTGGCACAGCCAAAAACGTCAGGTCGAGGTGTAGCGAATGGAGGGGGACAAAATGGGCTACATTCTCTGCCTAGAGAACACGAAAGATGTGCTGAAATGCACACCCGAAGGAGGATTTAGCAGTAAGCAAGAAATAGAGTGTCATGCTGAAACCGGCTATGAAGCGCGCACACACCGCCCGTCACTCTCCCCAAACTCTTAATTTAAAAATAACTAATAAGCCACCAAAAGAAAAGGGGAGGCAAGTCGTAACATGGTAAGTGTACCGGAAGGTGCACTTGGAAAAACCGGAGCATAGCTTAACAGCTTAAAGCACCTCCCTTACACCGAGTTGACGCCCGTGCAAATCGAGCTGCCCCGACACCTAACAGCTAGCCCCCACCCCACCCACAACAAACCACTATAAATACCCCCTAAGATACTTAACTAAACAAAACAAATCATTTTTCCACCCTAGTATAGGAGATAGAAAAGGAACTAGGAGCTATAGATAAAGTACCGCAAGGGAACGCTGAAAGAGAAATGAAATAACCCAGTAAAGTAAAAAAAAGCAGAGATTACACCTCGTACCTTTTGCATCATGATTTAGCTAGTATAATTAGGCAAAGAGCACTTTAGTCTAACACCCCGAAACTGAATGAGCTACTCCAAGACAGCCTTTATAGGGCACATCCGTCTCTGTGGCAAAAGAGTGGAAAGAGCTTTGAGTAGAGGTGATAAACCTACCGAGTTCAGTTATAGCTGGTTGCCCGAGAACTGAGTATAAGCTCAGCCTTTTGGCTTCTTAACTCCATAACTATTTATATTAACCCGACTTTAAGAAACCAAAAGAGTTAATCAAAGGGGGTACAGCCCCTTTGATACAAGAAACAACTTTTAACAGGAGGATAAGGATCATAAAAAATCAAGGCACCGCGCTTAAGTAGGCTTAGAAGCAGCCACCACAAGAAAGCGTTAAAGCTCTAGCACATCCCTGCCACAAATACCAATAAAACACTCCTAACCCCTTCCCCTACCGGGCTTTTCTATGCTTCCATAGAAGAAATTATGCTAAAATGAGTAATAAGGGGCCGACCCCCTCCAAGCACAAGTGTACATCAGAACGAACCCCCACCGAAATTCAACGGACCCAACCAAAGAGGGAAATAAATATTAAACTCACAACAAGAAAAACATTTAACACTTTTCCGTTACCCCTACACTGGTGTGCCAAATAGGAAAGACTAAAAGAAAAAGAAGGAACTCGGCAAACTCAAAGCCTCGCCTGTTTACCAAAAACATCGCCTCTTGCTTCAATGAATAAGAGGTCACGCCTGCCCTGTGACTATATGTTTAACGGCCGCGGTATTTTGACCGTGCAAAGGTAGCGCAATCACTTGTCCTTTAAATGTGGACCTGTATGAATGGCATAACGAGGGCTTAGCTGTCTCCTTTCTCAAGTCAATGAACTTGATCTCCCCGTGCAGAAGCGGGGATAAAACCATAAGACGAGAAGACCCTATGGAGCTTTAGACAAAAAACAGCCCCTGTCAATAAACCCTAAATAAAGGGAATAAACCTAGTGAACCTGTTTTAATGTCTTTGGTTGGGGCGACCGCGGGGTAACAAAAAACCCCCATGTGGAATGAAAACACCCTTTTTAAACCCAAGAGTCACCACTCTAGGATACAGAACATCTGACCAATAATGATCGCCTAAAGCCGATTAACGAACCGAGTTACCCTAGGGATAACAGCGCAATCCTCTTTTAGAGTCCATATCGACAAGAGGGTTTACGACCTCGATGTTGGATCAGGACATCCTAATGGTGCAGCCGCTATTAAAGGTTCGTTTGTTCAACGATTAAAGTCCTACGTGATCTGAGTTCAGACCGGAGTAATCCAGGTCAGTTTCTATCTATGAAGTACCTTTTTCCAGTACGAAAGGACCGAAAAAGAGGGGCCAATGTACAAACAAGCCCCACTCTCACTTGCTGAATCCAGCTCAAGCAAATAAGAGAGTACAAAACTAAGTCAAAGAACATGACATGTTAGTGTGGCAGAGCCCGGTATTGCAAAAGCCTTAAACCCTTCGAACAGAGGTTCAACTCCTCTCCCTAACTATGACTACAATACTAATTACCCACTTAATTCACCCCCTAACCATTATTGTACCCGTTCTACTAGCCGTAGCTTTCTTAACATTAATTGAACGAAAAGTTTTAGGTTACATGCAGTTACGAAAGGGCCCCAACATCGTAGGACCTTACGGACTCCTCCAACCCATCGCCGATGGCGTTAAACTTTTCATCAAAGAACCAGTCCGACCATCTACCTCCGCTCCCATCCTATTCATTATTGCCCCTACACTAGCCCTTACTCTCGCCATAATAATATGAACACCAATGCCCCTCCCCTACCCCATCCTTGACTTAAATCTGGCCATTCTATTTGTCCTAGCTATCTCTAGCTTGGCAGTCTACTCTATTCTGGGCTCCGGATGGGCCTCCAACTCAAAATATGCCCTTATAGGATCCCTACGAGCAGTTGCACAAATAATCTCATACGAAGTAAGTCTAGGGCTAATCCTTTTATCATTGATTATTTTTACAGGCAACTTTACCCTACAAACATTTAACGTCACCCAGGAAAGCATTTGACTAATCATCCCAACATGACCCCTTGCAGCAATATGATACATCTCCACGCTAGCCGAAACAAACCGAGCCCCCTTTGACCTAACAGAGGGGGAGTCCGAACTGGTATCTGGGTTCAATGTTGAATATGCAGGAGGTCCCTTTGCCCTATTTTTTCTGGCAGAATATGCCAACATCCTCTTAATAAACACGCTCTCCACAATCCTGTTCCTAGGAGCCTTACATATGCCCGCTCTTCCAGAACTAACCTCTATCAATTTAATATCAAAAACAGCCATTTTATCCCTCATCTTCCTATGAGCCCGAGCCTCCTACCCACGATTCCGATATGACCAGCTAATACACCTCACATGAAAAAACTTCCTACCACTTACATTAGCATTCATTATCTGACATCTTGCACTCCCAACTACAATAGCAGGCCTTCCCCCTCAAATATAAAAGGAACTGTGCCTGAAACAAAGGACCACTTTGATAGAGTGAATCATGAGGGTTAAATTCCCTCCAGCTCCTTAGAAAGAAGGGACTTGAACCCAACCCGGAGAGATCAAAACTCTCAGTGCTTCCACTACACCACTTTCTAGTAAAGTCAGCTAAATAAGCTTTTAGGCCCATACCCTAAAAATGGAGGTTAAAATCCCCCCTTTACAAATGAACCCTTATATTACTGCCTCCCTTTTATTTGGCCTGCTGTTAGGTACAACTATTACAACTACCAGCACACACTGACTAATTGCATGAATGGGCCTAGAAATTAACACCCTAGCTATTATCCCCCTAATAGCCCAACAACACCACCCACGAGCAATTGAAGCCACTACAAAATACTTCTTGACTCAAGCTGCCGCAGCAGCAACCCTCCTCCTCGCAGCTACAACCAACGCCTGAATAACAGGCCAATGAGAGCTACAGCAAGCTACCCACCCAGTCCCAACAACCATAATTACCATTGCATTAGCCTTAAAAATTGGACTAGCCCCACTCCACACCTGACTCCCAGAAGTAATACAAGGACTAGACCTTACAACTGGACTTATCCTGGCCACATGACAAAAAATCGCACCATTCTCCCTTCTATTACAAATTCAACCTAATAACCAAACACTCTTAATCCTCCTCGCCATCCTCTCCATACTTGTCGGCGGATGAGGGGGCCTAAATCAAACCCAAGTACGTAAAATTCTAGCCTACTCCTCCATCGCCCACCTAGGCTGAATAGTCATTATTCTTCAATTCTCACCAACCCTAGCTGTAATAACCCTAGCACTTTATATCATCATAACCTCCTCCACCTTCCTTGCTTTCATGATAAACAAAACCACAACAATTGGAACCTTAACAATCTCGTGAGCCAAAACCCCGATCATTTCATCCCTAATACCCCTAATCCTTCTGTCATTAGGAGGTTTACCCCCACTAACTGGCTTCATGCCTAAATGACTTATCCTTCAAGAACTTACAAAACAAGACCTAGGCATAACAGCCACATTAGCAGCCCTTAGCGCCCTACTAAGTCTTTATTTCTATCTACGCCTATCCTACGCTATAACCCTAACCATCTCCCCAAATAACCTAACAGGAACACTACCCTGACGAACCCAGACAAATAAAAAAACATTACCAACCGCTATCTTATTATCCTCTTCCATTCTCCTCCTCCCCTTAACCCCTGAAGTACTTACACTCTTTAACACATAAGAGACTTAGGTTAACACCAGACCAAGAGCCTTCAAAGCTCTCAGTGGAAGTGAAAATCTTTCAGTCCCTGATAAGACTTGCAAGCCATTATCTCACATCTTCTGCATGCAAAACAGACACTTTAATTAAGCTAAAGCCTTAACTAGATAGACAGGCCTCGATCCTGCAAACTCTTAGTTAACAGCTAAGCGCCCAAAACCAACGAGCTTCCATCTAACTTTCCCCGCCTAGCAAAAGCAAAAGGCGGGGAAAGCCCCGGCAGACGTCAATCTGCTTCTTTAGATATGCAATCTAACATGTAACACCCCAGGGCTGATAGAAAGAGGACTTAAACCTCTGTATATGGGGCTACAAACCACCGCTTAACCCTCAGCCATTCTACCTGTGGCAATCACACGCTGATTTTTCTCAACCAATCACAAAGATATCGGCACCCTATACCTAGTTTTTGGTGCCTGAGCCGGAATAGTAGGCACAGCACTAAGTCTTCTTATTCGGGCCGAACTCAGTCAACCCGGCGCACTCTTGGGCGATGACCAGATCTACAATGTAATCGTTACAGCCCATGCATTCGTAATGATTTTCTTTATAGTAATACCAATCATGATTGGAGGCTTTGGGAACTGATTAATCCCACTTATAATCGGAGCCCCAGACATGGCCTTCCCCCGAATGAACAACATAAGCTTCTGACTGCTTCCCCCATCCTTCCTCCTTCTGCTCGCATCCTCTGGAGTAGAAGCCGGAGCGGGTACGGGCTGAACTGTTTACCCACCCCTAGCAGGAAATCTTGCCCACGCAGGGGCTTCTGTAGACCTCACCATCTTCTCTCTTCATCTTGCAGGGGTCTCCTCTATTCTAGGGGCAATCAACTTCATCACAACCATCATTAACATGAAGCCCCCAGCAATCTCACAATACCAAACACCTCTTTTCGTGTGAGCCGTTTTAATTACTGCTGTACTTCTCCTGCTCTCCCTTCCAGTCCTTGCAGCAGGGATTACAATACTTCTCACTGACCGAAACCTAAATACAACCTTCTTTGACCCAGCAGGAGGAGGAGACCCCATCTTGTACCAACACTTATTCTGATTCTTTGGACACCCTGAAGTCTACATTCTAATTCTCCCTGGCTTCGGAATAATTTCACACATCGTAGCCTACTACTCGGGCAAAAAAGAACCATTCGGCTACATGGGCATGGTCTGAGCCATAATGGCCATCGGTCTTCTTGGTTTTATTGTATGAGCCCACCACATGTTTACAGTCGGCATGGACGTAGACACCCGAGCCTACTTTACCTCTGCCACAATAATTATTGCCATCCCGACAGGAGTCAAAGTATTTAGCTGACTTGCAACCTTGCATGGAGGATCAATTAAATGAGAAACCCCTATACTATGAGCCCTCGGCTTCATCTTCCTATTTACAGTGGGTGGCCTAACCGGAATTGTCCTAGCCAATTCATCCCTAGACATCGTATTACACGACACCTACTACGTAGTTGCCCATTTCCACTACGTCCTCTCCATGGGTGCTGTATTTGCAATTATGGGTGCATTCGTACACTGATTCCCACTATTTTCAGGATACACACTCCACAGCACTTGAACTAAAATCCACTTCGGAGTAATGTTCATTGGTGTCAACCTAACCTTCTTCCCTCAACACTTCCTTGGTCTAGCTGGAATACCTCGACGATACTCCGACTACCCCGACGCCTACGCCCTATGAAACTCCGTCTCCTCAATTGGCTCAATAGTCTCTCTAGTGGCAGTAATTATGTTCCTCTTTATCCTCTGAGAAGCCTTCACCGCTAAGCGAGAAGTCCAATCAGTTGAACTAACAATGACAAATGTAGAATGACTACACGGGTGCCCTCCTCCTTACCACACATTCGAAGAGCCCGCCTTTGTCCAAACTCAAACCTCTATCCGAGAAAGGGAGGAATCGAACCCCCGTAAACTGGTTTCAAGCCAGCTACAAAACCACTCTGTCACTTTCTTCATAAGACTCTAGTAAAATGGCAATTACACTACTTTGTCAAGGTAGAATTGTGGGTTAAACCCCCACGTGTCTTATTATTAATGGCACATCCTTCACAACTAGGGTTTCAAGATGCAGCTTCACCAGTAATAGAAGAACTCCTTCACTTCCACGACCATGCTCTAATAATCGTATTCCTTATTAGCACATTAGTACTTTACATTATTGTTGCTATAGTCTCCACCAAACTAACTAACAAGTACATTCTAGACTCTCAAGAGATTGAAATTATCTGAACTATCCTACCAGCTATTATTCTTATCCTCATTGCCCTCCCTTCCCTCCGAATTCTTTACCTAATAGACGAAATCAACGACCCCCATCTAACAATTAAAGCTATAGGTCACCAATGATACTGAAGCTATGAATATACAGACTATAGCGACCTAGCCTTTGACTCATACATAGTCCCCACACAAGACCTGGCCCCCGGCCAATTCCGCCTTTTAGAAACTGACCATCGAATGGTCGTTCCAGTGGACTCCCCCATTCGAATCCTAGTCTCAGCAGAAGATGTCCTCCACTCCTGAGCCGTCCCCTCTCTAGGTGTAAAAATGGATGCCGTACCCGGCCGTCTAAACCAAACAGCCTTTATCCTGTCCCGACCTGGTGTTTTCTACGGCCAATGCTCTGAAATCTGCGGAGCTAACCACAGCTTCATACCAATCGTTGTTGAAGCCGTCCCCCTAGAACACTTTGAAAACTGATCCTCACTAATGCTCGAAGATACCTCACTAAGAAGCTAAAACGGACACAGCGTTAGCCTTTTAAGCTAAAAATGGTGCCTACCAAACACCCTTAGTGAAATGCCTCAACTCAACCCCGCACCTTGATTCCTCATTATGGTCTTCTCTTGATGTGTATTCCTAATCTTCCTCCCTCCAAAAATCATAGCTCACTTATTCCCAAATGAACCCTCCTCTCAAAACACTTGCCCCAAAGAAATCAAACCCTGACCCTGATCATGACACTAAGCTTCTTCGACCAATTTCTTAGCCCCACCGCCTTTGGTATTCCCCTGATTGCCCTCGCTCTCCTGTTACCTTGGACCCTCTTCCCCACACCAACCAACCGTTGAACCAACAATCGTCTTTTAACACTTCAAAGCCAATTTATTAATCGATTTACTCAACAACTGCTCCTCCCACTAAACATAGGAGGGCACAAATGAGGCCCTTATATTGCCTCATTAATAGTGTTCCTAATTACCATCAATATGCTAGGACTCCTTCCATACACATTCACCCCCACCACACAGCTTTCCGTAAATATAGCCCTAGCTGTACCCCTATGACTCGCAACAGTAATCATCGGAATACGAAACAACCCAACAGCAGCCCTAGGCCACCTTCTTCCAGAAGGCACCCCCAACGCTCTAATCCCTATCCTAATTATTATCGAAACTGTCAGCCTCTTCATTCGACCTTTAGCACTAGGAGTTCGACTAACCGCTAACCTCACAGCAGGCCACCTGTTGATTCAACTAATCGCTACAGCTGCTTTCGTACTCCTCCCCCTTATACCAACTGTCGCCATTCTGACATCAACCCTATTATTCCTCCTGACACTTCTAGAAGTCGCCGTCGAAATAATCCAAGCCTATGTTTTCGTACTTCTTCTAAGCCTCTATCTACAAGAAAACGTTTAATGGCCCATCAAGCACACCCATACCACATAGTAGACCCAAGCCCATGACCCCTAACAGGAGCAGTCGCTGCCCTTCTCCTTACATCCGGCCTAGCCATTTGATTCCACTTTAACTCAACTATCCTAATAACCCTAGGACTAGTCCTACTTTTACTCACAATACTTCAATGATGACGAGATATCGTACGAGAAGGCACATTCCAAGGCCACCACACCCCTCCTGTCCAAAAAGGCCTTCGATACGGAATAATTCTATTTATTACCTCCGAAGTATTCTTCTTCCTTGGCTTCTTCTGAGCATTCTACCACGCAAGCCTAGCCCCCACTCCTGAATTAGGAGGCTGCTGACCCCCTACAGGCATTATCCCCTTAAATCCCTTCGAAGTTCCCCTCCTAAACACAGCAGTCCTACTGGCATCAGGAGTTACCGTAACCTGAGCTCACCACAGCATTATAGAAGGTGAGCGAAAACAAGCAATCCAATCCCTCACCCTGACAATCCTTCTAGGTTTCTACTTTACATTCCTGCAAGCAATAGAGTACTATGAAGCCCCCTTCACAATCGCAGATGGTGTTTACGGCTCAACCTTCTTCGTCGCTACCGGCTTCCACGGCCTTCACGTCATCATCGGATCAACCTTCTTAGCCGTATGTCTGCTACGACAAATCCGATTCCACTTCACCTCCGAACACCACTTTGGCTTCGAAGCAGCCGCCTGATACTGACACTTTGTAGATGTTGTCTGATTATTCTTATACATCTCAATCTACTGATGAGGCTCATAAATCTTTCTAGTATAAAGTCAGTACCTGTGACTTCCAATCACCCAGTCTTGGTTAAACTCCAAGGAAAGATAATGAACTTACTAACAACAATATTAATTATTACCACAGCTTTATCCCTCATCTTAATGACCGTCTCATTTTGACTCCCCGCCCTTACACCAGACTACCAAAAATTATCACCATATGAATGTGGCTTCGACCCCCTAGGGTCAGCCCGACTCCCCTTCTCACTACGCTTCTTCTTAGTCGCAATTCTGTTCCTCCTTTTCGACTTAGAAATCGCCCTTCTCCTCCCCCTCCCTTGAGGAGATCAGCTCCCATCCCCCACCCTAACACTTATATGGACCTCCGCCCTTCTAATTCTCCTCACAATTGGCCTAGCCTACGAATGACTCCAAGGAGGCCTTGAATGAGCCGAATAGGTAATTAGTTTAATCAAAACATTTGATTTCGGCTCAAAAAACTATGGTTAAAGTCCATAATTAACCTGATGACCCTCATCCAACTCTCATTCACCTCAATCTTCTTCCTAGGACTATTCGGCCTTGCATTTTACCGAGTCCACCTTCTATCTGCACTCTTATGTCTTGAAAGCATAATATTAGCCCTATTCCTCGCACTTTCAACATGAAGCCTGCAAATATCCTCCACCAGTTTTTCAGCCGCGCCGTTACTCCTTCTAGCATTCTCAGCATGCGAAGCCGGTGTAGGACTAGCTTTAATAGTCGCCACAGCCCGTACCCACGGATCAGATCACCTACAAAACCTAAACCTCCTACAATGCTAAAAATCCTAATCCCAACCACTATACTTATCCTAGCAACATGATTGACACCCCCTAAATGATTGTGGCCCTCTTCACTCCTCAACAGCCTCCTAATTGCTCTCACTAGCCTACTATGGCTAAAAAACGCCTCTGAAACAGGGTGAACTTTCCTCAACCCCTACTTAGCCACTGACCCACTATCAACCCCCCTTTTAATCCTCTCATGCTGACTCCTTCCTCTAATAATCCTAGCCAGCCAAAACCACACATCTCATGAACCAATTAACCGTCAACGAATGTATATCACACTTCTTGCCTCCCTGCAATTCTTCCTGATCCTTGCCTTCTCCGCCACAGAAATGATCATGTTTTACGTAATATTTGAAGCCACTCTAATCCCCACCCTGATCCTCATTACTCGCTGAGGAAACCAAGCAGAACGTCTTAACGCAGGTACATACTTCCTTTTCTATACCCTAGCAGGCTCTCTACCCCTCCTCATCGCACTACTACTCTTACAAAACTCTAATGGGTCCCTATCCCTCCTTATGCTCCCCCACTTGGGCCAACTTGAACTAACATCATATGCAGATAAGATCTGGTGGGCAGGGTGTATCCTGGCATTCCTAGTTAAAATACCCCTTTACGGAGTTCACCTTTGACTACCCAAAGCTCACGTAGAAGCCCCCATTGCAGGATCTATAGTGCTAGCCGCTGTACTACTAAAACTAGGGGGCTACGGCATAATACGAATTTTAGTCACCCTAGACCCCTTAACCAAAGAACTCAGCTACCCATTCATTGTCTTAGCCCTCTGAGGAGTGATTATAACTGGTTCCATCTGCATACGTCAAACAGACCTAAAATCATTAATTGCCTACTCATCAGTCAGCCACATAGGACTGGTAGTTGGAGGTATTCTCATCCAAACCCCCTGAGGATTCACCGGCGCGCTAATCCTCATAATTGCCCACGGATTAACATCATCCGCCTTATTCTGTCTAGCTAATACTAGCTACGAGCGCACACACAGCCGAACTATACTACTTGCTCGAGGTATGCAAATAATCCTCCCTCTCATAGCAGCCTGATGATTCATCGCAAGCCTCGCCAATTTAGCATTACCACCCCTCCCCAACTTAATAGGAGAACTAATGATTATTACCTCCCTATTCAATTGATCCCCGTGAACAATTGGCCTTACTGGACTAGGTACACTTATTACTGCCGGCTACTCGCTCTATATATTCCTCATAACCCAACGAGGGCCCGCCCCCAGCCACCTCCTAGCTCTTGAACCCTCACACACCCGAGAGCACCTTCTTATCGCCCTCCACCTCCTCCCACTAATCCTAATTATTACAAAACCAGAACTAATCTGAGGGTGAACTGCCTGTAGACATAGTTTAATCAAAACATTAGATTGTGATTCTAAAAACAGAGGTTAAAACCCTCTTGTCCACCGAAAGAGGTTCGCAACAATGAAGACTGCTAATCTTCATCCCCCTCGGTTAAACTCCGGGGCTCATTCGACCCAGCTTTTGAAGGATAATAGCTAATCCGTTGGTCTTAGGAACCAAAAACTCTTGGTGCAACTCCAAGTAAAAGCTATGCACTCCACCCCTCTAATTATAACATCTACCCTAATTATCATTTTTGCACTACTCATTTACCCAGTTTTAATAACCTTTTCCCCAAAACCACAAAACCCAAACTGAGCACTTATTCAAGTGAAAACAGCAGTAAAATACGCCTTCCTCGTCAGCCTCCTGCCCCTATGCCTCCACCTTAATGAAGGAACTGAATCTATCATCACTAACTTAAACTGAATAAACACCCTCACCTTTGACATCAACATCAGCCTTAAATTCGACTCCTACTCAATTATCTTTACCCCAGTAGCACTATACGTAACCTGATCCATTTTAGAATTTGCATCCTGATACATACACTCAGACCCATTCATAAACCGATTCTTTAAATACCTTCTGGTCTTCCTAATTGCAATAATTATTCTTGTTACCGCCAATAACATATTTCAACTCTTCATCGGCTGAGAGGGGGTTGGTATCATATCATTCCTTCTTATCGGCTGATGATACGCACGAGCAGACGCTAATACAGCCGCCCTACAAGCAGTCATCTATAATCGAGTCGGAGACATTGGATTAATTATCGCTATAGCTTGAATAGCCACCCACCTAAACTCCTGAGAACTACAACAAATTTTCTTTTCCACTAAAAACATAGACATAACCCTCCCATTAGTTGCCCTGATCTTAGCCGCAACAGGCAAATCAGCCCAATTCGGCCTTCATCCGTGACTTCCTTCTGCAATAGAAGGTCCTACACCGGTCTCTGCCCTACTCCACTCCAGCACTATAGTTGTTGCAGGAATCTTCTTAATAATCCGCATCTCCCCCCTCTTAGAAACCAACCCAACAGCCCTCACACTCTGCCTATGCCTAGGAGCCCTAACCACCCTATTTACCGCCACCTGCGCCCTAACCCAGAACGATATCAAAAAAATTGTAGCTTTTTCAACTTCCAGTCAACTAGGCCTAATGATAGTCACCATTGGCCTAAATCAGCCCCAACTTGCCTTCCTGCACATCTGCACCCACGCTTTTTTCAAAGCCATATTATTCTTATGCTCTGGGTCTATTATTCACAGCTTAAATGATGAACAAGACATCCGCAAAATGGGAGGGATACACCACTTGACCCCTGTTACCTCTTCATGCCTAACAATTGGCAGCTTAGCCCTGACCGGAACCCCCTTCCTAGCCGGCTTCTTTTCCAAAGATGCCATCATCGAATCTTTAACCACCTCCCAATTAAACGCCTGAGCCCTATGCCTCACCCTCCTAGCAACTTCTTTCACAGCTATCTACAGCCTACGAGTCGTATTCTACGTATCCATAGGCCACCCTCGCTTTAATTCCCTTTCACCAATCAATGAAAATAACCCATCTGTAATTAACCCTATCAAACGACTGGCATGAGGCAGCATTATTGCTGGCCTATTAATCACCACAAACCTTCTCCCAACAAAAACACCTGTAATATCAATACCTATAGTTGTTAAACTTACTGCTCTTATCGTCACAATCTTGGGACTCCTAATTGCCCTAGAATTAGCTTCCTTAACCTCCAAACAACTTAAACCTACACCACACCTGTCCCCCCACCACTTCTCAAACATACTTGGCTTCTTCCCAACAATTGTACACCGTGCCTCTCCTAAAATTAATCTCATTTTAGGACAAACAATTGCTACCCAAATTATCGACCTAACCTGACTAGAAAAAGTTGGACCCAAAACAATTTCATCTATCAACACTCCCCTCATCTCTACCATCAGTAACATCCAACAAGGATCAATCAAGACATACCTTGTCCTCTTCCTCACGACCCTTGCTCTATCAACCCTCGTTCTTCTTACCTAACTGCTCGAAGAGCCCCCCGACCCAGCCCCCGCACCAGCTCTAATACTACAAGCAACGTCAATAACAAGACCCAGGCCCCCAATAGTAATACTCCCCCACCGCTAGAATATATAAGTGAAACCCCGTCCATATCACCTCGAAAAACTGCATCTCAGTCTATCTCTCCAGAAACCCCTCATCACACCTCTTCATCAAGGACCATATTTGTGTACAAGATACCAAAAACAAAAAAAAAATATCCAAAAAAGAATAAAACCACCTGTCAACCTGTAGGCGCCTTAGGATCCTTATCTGCAGACAGCGCTGACGAATAAATAAACACAACCAGTATACCCCCCATATAAATCATTAACAACACCAAAGACAAGAAAGTTCCCCCGTGCAAAACTGAAGCCCCACAGCAAAGAAGTGCAACCAGCACCAAATTGAAAACTCCATAAAAAGGAGCAGGATTTGTAGACAACACAATTATTACAACCAACATCCCTAATAAAAGAAAAACAAGCGCATAAAACATAGTTTCTGCCAGGATTTTAACCAGGACCTATGGCGTGAAAAACCATCGTTGTTACTCAACTACAAAAACACTAATGGCCAGCCTACGCAAAACCCACCCCCTACTAAAAATCGTAAACGACATAGTAATTGACCTTCCTACCCCCTCAAACATTTCCGCCTGATGAAACTTTGGCTCTCTACTCGGATTATGCCTTATTACACAAATCATCACAGGACTGTTCCTTGCAATACACTACACATCCGACATCTCTACCGCCTTTTCATCCGTAGCCCACATTTGCCGAGACGTAAACTACGGCTGACTAATTCGCAATCTACACGCAAACGGTGCCTCATTCTTTTTTATTTGCTTATACTCCCACATCGGCCGAGGTCTTTACTATGGCTCTTACCTAAGTAAAGAAACCTGAAACGTAGGGGTAGTCCTCTTACTTTTAGTAATGGCCACCGCTTTCGTAGGCTACGTTCTTCCATGAGGACAAATATCCTTCTGAGGCGCCACTGTAATTACAAACCTGCTCTCTGCTGTCCCCTACGTAGGAAACACGCTCGTTCAATGAGTATGAGGAGGCTTTTCAGTAGACAGCGCCACTCTAACACGATTCTTTGCCTTCCACTTCCTCCTCCCATTTATCGTTGCAGCCGCTGCCATCGTACATCTTATTTTTCTTCACGAAACAGGCTCCAACAATCCCCTAGGACTCAATTCAAACGCAGACAAAATCCCATTCCACCCATACTTCTCTTACAAAGACCTCCTGGGCTTCACAATCATACTCTCAGCCCTCGCAACACTCGCCCTATTCTCTCCAAACTACCTCGGAGACCCTGACAACTTCACACCAGCCAATCCTCTAGTTACCCCCGCCCACATTAAACCAGAATGGTATTTCCTATTTGCATACGCAATTCTACGATCTATCCCCAATAAGCTAGGAGGTGTTCTGGCCCTTCTTGCCTCAATCTTAATTCTTATAGTAGTTCCTTTCTTACACACCTCTAAACAACGAAGCCTAACATTCCGCCCACTATCACAATTCCTATTCTGAACCCTAATTGCCGACGTCGTCATCCTAACCTGAATTGGAGGCATGCCCGTCGAACATCCTTACATTATTATCGGACAAATTGCCTCAGTACTTTACTTCTCTCTCTTCCTAATCTTGATGCCAATAGCCGGTTGACTAGAAAATAAAATACTAAACTAACAAGCATTAGTAGCTCAGATTCAGAGCGTCGGTCTTGTAAACCGAATGTCGGGGGTTAAAATCCCCCCTTATGCTCAAAAAGAAGGGACTTCAACCCCCACCACTGGCTCCCAAAGCCAGCATTCTTAATTAAACTACTTTTTGATAATACATATATGTATTATCCCCATTCATATATATTAAACATTAATATAATGCATAATTAAGACATAGTACTATATATTCACCTATAGTTCCTATAACCCATAAAGCAAGTACAGGAAGCTAAAAATGCTAAAAGCATAACTGGAAAAATCCCTAAAAATTGTTCAAAAACTGAACGAAATTTAAGACCGAACAATAAACTCATCAGTTAAGATATACCAGGACTCAACACCCCGTAAAATACCAATTATTAATGTAGTAAGAACCGACCATCAGTTGATTTCTTAATGCATATTATTATTGAAGGTGAGGGACAATAACAGTGGGGGTTTCACTAAATGAACTATTCCTGGCATTTGGTTCCTACTTCAGGGCCATTAATCGATTTATTCCTCATTCTTTCATCGACGCTGACATAAGTTGTTGGTGGAGTTCATCAGTGAGATAATCCCACATGCCGGGCGTTCTCTCCACAGGGGTCAGGTTATTTTTTCTCTCTTTCCTTTCAATTGACATTTCAGAGTGCAGCGCGTCAATGGTTCATCAAGGTTGAACATTTTTTCTTGGTTTATGGTAATGTTAATTAATGAATTAAGACATTATTTAAGAATTACATTACTGATATCAAGGACATAAATAATAATACGATTCAACAATCATACAATTTCACCCCCTTCTTCTTTTTAAAAAAATTAACGTATACCCCCCCTACCCCCCCTAAAAAATAGGAGAGACCTTTAAGTTTGAACCAAGCTCTCCACTTAATTAAATATTCATCATATTATTATCATATATTATAATATTATAATAATATAATTATAT'
p1100
sbsS'_per_letter_annotations'
p1101
g1
(cBio.SeqRecord
_RestrictedDict
p1102
c__builtin__
dict
p1103
(dtRp1104
(dp1105
S'_length'
p1106
I16447
sbsg108
S'NC_004299.1'
p1107
sS'name'
p1108
S'NC_004299'
p1109
sb.