ccopy_reg
_reconstructor
p1
(cBio.SeqRecord
SeqRecord
p2
c__builtin__
object
p3
NtRp4
(dp5
S'dbxrefs'
p6
(lp7
S'Project:28993 BioProject:PRJNA28993'
p8
asS'description'
p9
S'Sus scrofa mitochondrion, complete genome.'
p10
sS'annotations'
p11
(dp12
S'comment'
p13
S'REVIEWED REFSEQ: This record has been curated by NCBI staff. The\nreference sequence was derived from AF034253.\nCOMPLETENESS: full length.'
p14
sS'sequence_version'
p15
I1
sS'source'
p16
S'mitochondrion Sus scrofa (pig)'
p17
sS'taxonomy'
p18
(lp19
S'Eukaryota'
p20
aS'Metazoa'
p21
aS'Chordata'
p22
aS'Craniata'
p23
aS'Vertebrata'
p24
aS'Euteleostomi'
p25
aS'Mammalia'
p26
aS'Eutheria'
p27
aS'Laurasiatheria'
p28
aS'Cetartiodactyla'
p29
aS'Suina'
p30
aS'Suidae'
p31
aS'Sus'
p32
asS'keywords'
p33
(lp34
S''
asS'references'
p35
(lp36
g1
(cBio.SeqFeature
Reference
p37
g3
NtRp38
(dp39
g13
S''
sS'title'
p40
S'Complete nucleotide sequence of pig (Sus scrofa) mitochondrial genome and dating evolutionary divergence within Artiodactyla'
p41
sS'consrtm'
p42
S''
sS'journal'
p43
S'Gene 236 (1), 107-114 (1999)'
p44
sS'location'
p45
(lp46
g1
(cBio.SeqFeature
FeatureLocation
p47
g3
NtRp48
(dp49
S'ref'
p50
NsS'_end'
p51
g1
(cBio.SeqFeature
ExactPosition
p52
c__builtin__
int
p53
I16613
tRp54
sS'_start'
p55
g1
(g52
g53
I0
tRp56
sS'_strand'
p57
NsS'ref_db'
p58
NsbasS'pubmed_id'
p59
S'10433971'
p60
sS'authors'
p61
S'Lin,C.S., Sun,Y.L., Liu,C.Y., Yang,P.C., Chang,L.C., Cheng,I.C., Mao,S.J. and Huang,M.C.'
p62
sS'medline_id'
p63
S''
sbag1
(g37
g3
NtRp64
(dp65
g13
S''
sg40
S'SSCP analysis in the D-loop region of porcine mitochondrial DNA as confirmed by sequence diversity'
p66
sg42
S''
sg43
S'J. Anim. Breed. Genet. 115, 73-78 (1998)'
p67
sg45
(lp68
g1
(g47
g3
NtRp69
(dp70
g50
Nsg51
g1
(g52
g53
I16613
tRp71
sg55
g1
(g52
g53
I0
tRp72
sg57
Nsg58
Nsbasg59
S''
sg61
S'Lin,C.S., Liu,C.Y., Wu,H.T., Sun,Y.L., Chang,L.C., Yen,N.T., Yang,P.C., Huang,M.C. and Mao,S.J.T.'
p73
sg63
S''
sbag1
(g37
g3
NtRp74
(dp75
g13
S''
sg40
S'Direct Submission'
p76
sg42
S'NCBI Genome Project'
p77
sg43
S'Submitted (08-SEP-1999) National Center for Biotechnology Information, NIH, Bethesda, MD 20894, USA'
p78
sg45
(lp79
g1
(g47
g3
NtRp80
(dp81
g50
Nsg51
g1
(g52
g53
I16613
tRp82
sg55
g1
(g52
g53
I0
tRp83
sg57
Nsg58
Nsbasg59
S''
sg61
S''
sg63
S''
sbag1
(g37
g3
NtRp84
(dp85
g13
S''
sg40
S'Direct Submission'
p86
sg42
S''
sg43
S'Submitted (12-NOV-1997) Comparative Medicine, Pig Research Institute Taiwan, P.O. Box 23, Chunan, Miaoli 350, Taiwan, ROC'
p87
sg45
(lp88
g1
(g47
g3
NtRp89
(dp90
g50
Nsg51
g1
(g52
g53
I16613
tRp91
sg55
g1
(g52
g53
I0
tRp92
sg57
Nsg58
Nsbasg59
S''
sg61
S'Lin,C.S.'
p93
sg63
S''
sbasS'accessions'
p94
(lp95
S'NC_000845'
p96
asS'data_file_division'
p97
S'MAM'
p98
sS'date'
p99
S'01-FEB-2010'
p100
sS'organism'
p101
S'Sus scrofa'
p102
sS'gi'
p103
S'5835862'
p104
ssS'features'
p105
(lp106
g1
(cBio.SeqFeature
SeqFeature
p107
g3
NtRp108
(dp109
S'sub_features'
p110
(lp111
sS'location_operator'
p112
S''
sS'id'
p113
S'<unknown id>'
p114
sg45
g1
(g47
g3
NtRp115
(dp116
g50
Nsg51
g1
(g52
g53
I16613
tRp117
sg55
g1
(g52
g53
I0
tRp118
sg57
I1
sg58
NsbsS'type'
p119
S'source'
p120
sS'qualifiers'
p121
(dp122
S'mol_type'
p123
(lp124
S'genomic DNA'
p125
asS'breed'
p126
(lp127
S'Landrace'
p128
asS'organelle'
p129
(lp130
S'mitochondrion'
p131
asS'db_xref'
p132
(lp133
S'taxon:9823'
p134
asS'tissue_type'
p135
(lp136
S'heart'
p137
asS'organism'
p138
(lp139
S'Sus scrofa'
p140
assbag1
(g107
g3
NtRp141
(dp142
g110
(lp143
sg112
S''
sg113
g114
sg45
g1
(g47
g3
NtRp144
(dp145
g50
Nsg51
g1
(g52
g53
I1175
tRp146
sg55
g1
(g52
g53
I0
tRp147
sg57
I1
sg58
Nsbsg119
S'D-loop'
p148
sg121
(dp149
sbag1
(g107
g3
NtRp150
(dp151
g110
(lp152
sg112
S''
sg113
g114
sg45
g1
(g47
g3
NtRp153
(dp154
g50
Nsg51
g1
(g52
g53
I836
tRp155
sg55
g1
(g52
g53
I706
tRp156
sg57
I1
sg58
Nsbsg119
S'repeat_region'
p157
sg121
(dp158
S'rpt_unit_seq'
p159
(lp160
S'tacacgtgcg'
p161
assbag1
(g107
g3
NtRp162
(dp163
g110
(lp164
sg112
S''
sg113
g114
sg45
g1
(g47
g3
NtRp165
(dp166
g50
Nsg51
g1
(g52
g53
I1245
tRp167
sg55
g1
(g52
g53
I1175
tRp168
sg57
I1
sg58
Nsbsg119
S'tRNA'
p169
sg121
(dp170
S'product'
p171
(lp172
S'tRNA-Phe'
p173
assbag1
(g107
g3
NtRp174
(dp175
g110
(lp176
sg112
S''
sg113
g114
sg45
g1
(g47
g3
NtRp177
(dp178
g50
Nsg51
g1
(g52
g53
I2205
tRp179
sg55
g1
(g52
g53
I1245
tRp180
sg57
I1
sg58
Nsbsg119
S'rRNA'
p181
sg121
(dp182
S'product'
p183
(lp184
S'12S ribosomal RNA'
p185
assbag1
(g107
g3
NtRp186
(dp187
g110
(lp188
sg112
S''
sg113
g114
sg45
g1
(g47
g3
NtRp189
(dp190
g50
Nsg51
g1
(g52
g53
I2273
tRp191
sg55
g1
(g52
g53
I2205
tRp192
sg57
I1
sg58
Nsbsg119
S'tRNA'
p193
sg121
(dp194
S'product'
p195
(lp196
S'tRNA-Val'
p197
assbag1
(g107
g3
NtRp198
(dp199
g110
(lp200
sg112
S''
sg113
g114
sg45
g1
(g47
g3
NtRp201
(dp202
g50
Nsg51
g1
(g52
g53
I3844
tRp203
sg55
g1
(g52
g53
I2273
tRp204
sg57
I1
sg58
Nsbsg119
S'rRNA'
p205
sg121
(dp206
S'product'
p207
(lp208
S'16S ribosomal RNA'
p209
assbag1
(g107
g3
NtRp210
(dp211
g110
(lp212
sg112
S''
sg113
g114
sg45
g1
(g47
g3
NtRp213
(dp214
g50
Nsg51
g1
(g52
g53
I3556
tRp215
sg55
g1
(g52
g53
I3415
tRp216
sg57
I1
sg58
Nsbsg119
S'STS'
p217
sg121
(dp218
S'db_xref'
p219
(lp220
S'UniSTS:273091'
p221
asS'standard_name'
p222
(lp223
S'PMC31832P1'
p224
assbag1
(g107
g3
NtRp225
(dp226
g110
(lp227
sg112
S''
sg113
g114
sg45
g1
(g47
g3
NtRp228
(dp229
g50
Nsg51
g1
(g52
g53
I3711
tRp230
sg55
g1
(g52
g53
I3517
tRp231
sg57
I1
sg58
Nsbsg119
S'STS'
p232
sg121
(dp233
S'db_xref'
p234
(lp235
S'UniSTS:210357'
p236
asS'standard_name'
p237
(lp238
S'RH136367'
p239
assbag1
(g107
g3
NtRp240
(dp241
g110
(lp242
sg112
S''
sg113
g114
sg45
g1
(g47
g3
NtRp243
(dp244
g50
Nsg51
g1
(g52
g53
I3919
tRp245
sg55
g1
(g52
g53
I3844
tRp246
sg57
I1
sg58
Nsbsg119
S'tRNA'
p247
sg121
(dp248
S'codon_recognized'
p249
(lp250
S'UUR'
p251
asS'product'
p252
(lp253
S'tRNA-Leu'
p254
assbag1
(g107
g3
NtRp255
(dp256
g110
(lp257
sg112
S''
sg113
g114
sg45
g1
(g47
g3
NtRp258
(dp259
g50
Nsg51
g1
(g52
g53
I4878
tRp260
sg55
g1
(g52
g53
I3921
tRp261
sg57
I1
sg58
Nsbsg119
S'gene'
p262
sg121
(dp263
S'db_xref'
p264
(lp265
S'GeneID:808501'
p266
asS'gene'
p267
(lp268
S'ND1'
p269
assbag1
(g107
g3
NtRp270
(dp271
g110
(lp272
sg112
S''
sg113
g114
sg45
g1
(g47
g3
NtRp273
(dp274
g50
Nsg51
g1
(g52
g53
I4878
tRp275
sg55
g1
(g52
g53
I3921
tRp276
sg57
I1
sg58
Nsbsg119
S'CDS'
p277
sg121
(dp278
S'product'
p279
(lp280
S'NADH dehydrogenase subunit 1'
p281
asS'codon_start'
p282
(lp283
S'1'
asS'transl_table'
p284
(lp285
S'2'
asS'db_xref'
p286
(lp287
S'GI:5835863'
p288
aS'GeneID:808501'
p289
asS'translation'
p290
(lp291
S'MFMINILSLIIPILLAVAFLTLVERKVLGYMQLRKGPNVVGPYGLLQPIADALKLVTKEPLRPGTSSISMFIIAPILGLSLALTMWVPLPMPYPLINMNLGVLFMLAMSSLAVYSILWSGWASNSKYALIGALRAVAQTISYEVTLAIILLSVLLMNGSYTLSTLITTQEHIWMIFTSWPLAMMWFISTLAETNRAPFDLTEGESELVSGFNVEYAAGPFAMFFMAEYANIIMMNAFTAILFLGASHDPHTPELYTINFVLKTLALTITFLWIRASYPRFRYDQLMHLLWKSFLPLTLALCMWHISLPIMTASIPPQS'
p292
asS'gene'
p293
(lp294
S'ND1'
p295
asS'protein_id'
p296
(lp297
S'NP_008634.1'
p298
assbag1
(g107
g3
NtRp299
(dp300
g110
(lp301
sg112
S''
sg113
g114
sg45
g1
(g47
g3
NtRp302
(dp303
g50
Nsg51
g1
(g52
g53
I4945
tRp304
sg55
g1
(g52
g53
I4876
tRp305
sg57
I1
sg58
Nsbsg119
S'tRNA'
p306
sg121
(dp307
S'product'
p308
(lp309
S'tRNA-Ile'
p310
assbag1
(g107
g3
NtRp311
(dp312
g110
(lp313
sg112
S''
sg113
g114
sg45
g1
(g47
g3
NtRp314
(dp315
g50
Nsg51
g1
(g52
g53
I5015
tRp316
sg55
g1
(g52
g53
I4942
tRp317
sg57
I-1
sg58
Nsbsg119
S'tRNA'
p318
sg121
(dp319
S'product'
p320
(lp321
S'tRNA-Gln'
p322
assbag1
(g107
g3
NtRp323
(dp324
g110
(lp325
sg112
S''
sg113
g114
sg45
g1
(g47
g3
NtRp326
(dp327
g50
Nsg51
g1
(g52
g53
I5086
tRp328
sg55
g1
(g52
g53
I5016
tRp329
sg57
I1
sg58
Nsbsg119
S'tRNA'
p330
sg121
(dp331
S'product'
p332
(lp333
S'tRNA-Met'
p334
assbag1
(g107
g3
NtRp335
(dp336
g110
(lp337
sg112
S''
sg113
g114
sg45
g1
(g47
g3
NtRp338
(dp339
g50
Nsg51
g1
(g52
g53
I6130
tRp340
sg55
g1
(g52
g53
I5086
tRp341
sg57
I1
sg58
Nsbsg119
S'gene'
p342
sg121
(dp343
S'db_xref'
p344
(lp345
S'GeneID:808502'
p346
asS'gene'
p347
(lp348
S'ND2'
p349
assbag1
(g107
g3
NtRp350
(dp351
g110
(lp352
sg112
S''
sg113
g114
sg45
g1
(g47
g3
NtRp353
(dp354
g50
Nsg51
g1
(g52
g53
I6130
tRp355
sg55
g1
(g52
g53
I5086
tRp356
sg57
I1
sg58
Nsbsg119
S'CDS'
p357
sg121
(dp358
S'product'
p359
(lp360
S'NADH dehydrogenase subunit 2'
p361
asS'codon_start'
p362
(lp363
S'1'
asS'transl_table'
p364
(lp365
S'2'
asS'db_xref'
p366
(lp367
S'GI:5835864'
p368
aS'GeneID:808502'
p369
asS'translation'
p370
(lp371
S'MNPIIYTTLIMTVMSGTMLVMISSHWLLIWIGFEMNLLAMIPVLMKNFNPRATEAATKYFLTQATASMMLMMAIIINLLYSGQWTITKMFNPVAMTMMTMALAMKLGLSPFHFWVPEVTQGISLQAGLLLLTWQKLAPLSVLCQISQSINPNLMLTMAMLSILIGGWGGLNQTQLRKIMAYSSIAHMGWMTAVLPYNTTMTILNLLIYITMTLAMFMLLIHSSATTTLSLSHTWNKMPVITSLMMVTLLSMGGLPPLSGFMPKWMIIQEMTKNESIIMPTLMAMTALLNLYFYMRLAYSSSLTMFPSTNNMKMKWQFEHTKQMKLLPTMIVLSTLVLPMTPALSSLN'
p372
asS'gene'
p373
(lp374
S'ND2'
p375
asS'protein_id'
p376
(lp377
S'NP_008635.1'
p378
assbag1
(g107
g3
NtRp379
(dp380
g110
(lp381
sg112
S''
sg113
g114
sg45
g1
(g47
g3
NtRp382
(dp383
g50
Nsg51
g1
(g52
g53
I6196
tRp384
sg55
g1
(g52
g53
I6128
tRp385
sg57
I1
sg58
Nsbsg119
S'tRNA'
p386
sg121
(dp387
S'product'
p388
(lp389
S'tRNA-Trp'
p390
assbag1
(g107
g3
NtRp391
(dp392
g110
(lp393
sg112
S''
sg113
g114
sg45
g1
(g47
g3
NtRp394
(dp395
g50
Nsg51
g1
(g52
g53
I6270
tRp396
sg55
g1
(g52
g53
I6202
tRp397
sg57
I-1
sg58
Nsbsg119
S'tRNA'
p398
sg121
(dp399
S'product'
p400
(lp401
S'tRNA-Ala'
p402
assbag1
(g107
g3
NtRp403
(dp404
g110
(lp405
sg112
S''
sg113
g114
sg45
g1
(g47
g3
NtRp406
(dp407
g50
Nsg51
g1
(g52
g53
I6346
tRp408
sg55
g1
(g52
g53
I6271
tRp409
sg57
I-1
sg58
Nsbsg119
S'tRNA'
p410
sg121
(dp411
S'product'
p412
(lp413
S'tRNA-Asn'
p414
assbag1
(g107
g3
NtRp415
(dp416
g110
(lp417
sg112
S''
sg113
g114
sg45
g1
(g47
g3
NtRp418
(dp419
g50
Nsg51
g1
(g52
g53
I6444
tRp420
sg55
g1
(g52
g53
I6378
tRp421
sg57
I-1
sg58
Nsbsg119
S'tRNA'
p422
sg121
(dp423
S'product'
p424
(lp425
S'tRNA-Cys'
p426
assbag1
(g107
g3
NtRp427
(dp428
g110
(lp429
sg112
S''
sg113
g114
sg45
g1
(g47
g3
NtRp430
(dp431
g50
Nsg51
g1
(g52
g53
I6509
tRp432
sg55
g1
(g52
g53
I6443
tRp433
sg57
I-1
sg58
Nsbsg119
S'tRNA'
p434
sg121
(dp435
S'product'
p436
(lp437
S'tRNA-Tyr'
p438
assbag1
(g107
g3
NtRp439
(dp440
g110
(lp441
sg112
S''
sg113
g114
sg45
g1
(g47
g3
NtRp442
(dp443
g50
Nsg51
g1
(g52
g53
I8055
tRp444
sg55
g1
(g52
g53
I6510
tRp445
sg57
I1
sg58
Nsbsg119
S'gene'
p446
sg121
(dp447
S'db_xref'
p448
(lp449
S'GeneID:808503'
p450
asS'gene'
p451
(lp452
S'COX1'
p453
assbag1
(g107
g3
NtRp454
(dp455
g110
(lp456
sg112
S''
sg113
g114
sg45
g1
(g47
g3
NtRp457
(dp458
g50
Nsg51
g1
(g52
g53
I8055
tRp459
sg55
g1
(g52
g53
I6510
tRp460
sg57
I1
sg58
Nsbsg119
S'CDS'
p461
sg121
(dp462
S'product'
p463
(lp464
S'cytochrome c oxidase subunit I'
p465
asS'codon_start'
p466
(lp467
S'1'
asS'transl_table'
p468
(lp469
S'2'
asS'db_xref'
p470
(lp471
S'GI:5835865'
p472
aS'GeneID:808503'
p473
asS'translation'
p474
(lp475
S'MFVNRWLYSTNHKDIGTLYLLFGAWAGMVGTALSLLIRAELGQPGTLLGDDQIYNVIVTAHAFVMIFFMVMPIMIGGFGNWLVPLMIGAPDMAFPRMNNMSFWLLPPSFLLLLASSMVEAGAGTGWTVYPPLAGNLAHAGASVDLTIFSLHLAGVSSILGAINFITTIINMKPPAMSQYQTPLFVWSVLITAVLLLLSLPVLAAGITMLLTDRNLNTTFFDPAGGGDPILYQHLFWFFGHPEVYILILPGFGMISHIVTYYSGKKEPFGYMGMVWAMMSIGFLGFIVWAHHMFTVGMDVDTRAYFTSATMIIAIPTGVKVFSWLATLHGGNIKWSPAMLWALGFIFLFTVGGLTGIVLANSSLDIVLHDTYYVVAHFHYVLSMGAVFAIMGGFVHWFPLFSGYTLNQAWAKIHFVIMFVGVNMTFFPQHFLGLSGMPRRYSDYPDAYTAWNTISSMGSFISLTAVMLMIFIIWEAFASKREVSAVELTSTNLEWLHGCPPPYHTFEEPTYINLK'
p476
asS'gene'
p477
(lp478
S'COX1'
p479
asS'protein_id'
p480
(lp481
S'NP_008636.1'
p482
assbag1
(g107
g3
NtRp483
(dp484
g110
(lp485
sg112
S''
sg113
g114
sg45
g1
(g47
g3
NtRp486
(dp487
g50
Nsg51
g1
(g52
g53
I8129
tRp488
sg55
g1
(g52
g53
I8058
tRp489
sg57
I-1
sg58
Nsbsg119
S'tRNA'
p490
sg121
(dp491
S'codon_recognized'
p492
(lp493
S'UCN'
p494
asS'product'
p495
(lp496
S'tRNA-Ser'
p497
assbag1
(g107
g3
NtRp498
(dp499
g110
(lp500
sg112
S''
sg113
g114
sg45
g1
(g47
g3
NtRp501
(dp502
g50
Nsg51
g1
(g52
g53
I8202
tRp503
sg55
g1
(g52
g53
I8134
tRp504
sg57
I1
sg58
Nsbsg119
S'tRNA'
p505
sg121
(dp506
S'product'
p507
(lp508
S'tRNA-Asp'
p509
assbag1
(g107
g3
NtRp510
(dp511
g110
(lp512
sg112
S''
sg113
g114
sg45
g1
(g47
g3
NtRp513
(dp514
g50
Nsg51
g1
(g52
g53
I8890
tRp515
sg55
g1
(g52
g53
I8202
tRp516
sg57
I1
sg58
Nsbsg119
S'gene'
p517
sg121
(dp518
S'db_xref'
p519
(lp520
S'GeneID:808504'
p521
asS'gene'
p522
(lp523
S'COX2'
p524
assbag1
(g107
g3
NtRp525
(dp526
g110
(lp527
sg112
S''
sg113
g114
sg45
g1
(g47
g3
NtRp528
(dp529
g50
Nsg51
g1
(g52
g53
I8890
tRp530
sg55
g1
(g52
g53
I8202
tRp531
sg57
I1
sg58
Nsbsg119
S'CDS'
p532
sg121
(dp533
S'product'
p534
(lp535
S'cytochrome c oxidase subunit II'
p536
asS'transl_except'
p537
(lp538
S'(pos:8890,aa:TERM)'
p539
asS'codon_start'
p540
(lp541
S'1'
asS'transl_table'
p542
(lp543
S'2'
asS'note'
p544
(lp545
S"TAA stop codon is completed by the addition of 3' A residues to the mRNA"
p546
asS'db_xref'
p547
(lp548
S'GI:5835866'
p549
aS'GeneID:808504'
p550
asS'translation'
p551
(lp552
S'MAYPFQLGFQDATSPIMEELLHFHDHTLMIVFLISSLVLYIISLMLTTKLTHTSTMDAQEVETIWTILPAIILILIALPSLRILYMMDEINNPALTVKTMGHQWYWSYEYTDYEDLTFDSYMIPTSDLKPGEMRLLEVDNRVVLPMEMTIRMLVSSEDVLHSWAVPSLGLKTDAIPGRLNQTTLMSTRPGLYYGQCSEICGSNHSFMPIVLELVPLKYFEKWSTSMLTG'
p553
asS'gene'
p554
(lp555
S'COX2'
p556
asS'protein_id'
p557
(lp558
S'NP_008637.1'
p559
assbag1
(g107
g3
NtRp560
(dp561
g110
(lp562
sg112
S''
sg113
g114
sg45
g1
(g47
g3
NtRp563
(dp564
g50
Nsg51
g1
(g52
g53
I8957
tRp565
sg55
g1
(g52
g53
I8890
tRp566
sg57
I1
sg58
Nsbsg119
S'tRNA'
p567
sg121
(dp568
S'product'
p569
(lp570
S'tRNA-Lys'
p571
assbag1
(g107
g3
NtRp572
(dp573
g110
(lp574
sg112
S''
sg113
g114
sg45
g1
(g47
g3
NtRp575
(dp576
g50
Nsg51
g1
(g52
g53
I9162
tRp577
sg55
g1
(g52
g53
I8958
tRp578
sg57
I1
sg58
Nsbsg119
S'gene'
p579
sg121
(dp580
S'db_xref'
p581
(lp582
S'GeneID:808505'
p583
asS'gene'
p584
(lp585
S'ATP8'
p586
assbag1
(g107
g3
NtRp587
(dp588
g110
(lp589
sg112
S''
sg113
g114
sg45
g1
(g47
g3
NtRp590
(dp591
g50
Nsg51
g1
(g52
g53
I9162
tRp592
sg55
g1
(g52
g53
I8958
tRp593
sg57
I1
sg58
Nsbsg119
S'CDS'
p594
sg121
(dp595
S'product'
p596
(lp597
S'ATP synthase F0 subunit 8'
p598
asS'codon_start'
p599
(lp600
S'1'
asS'transl_table'
p601
(lp602
S'2'
asS'db_xref'
p603
(lp604
S'GI:5835867'
p605
aS'GeneID:808505'
p606
asS'translation'
p607
(lp608
S'MPQLDTSTWFITITSMIMTLFILFQLKISNYSYPASPESIELKTQKHSTPWEMKWTKIYLPLLLPPR'
p609
asS'gene'
p610
(lp611
S'ATP8'
p612
asS'protein_id'
p613
(lp614
S'NP_008638.1'
p615
assbag1
(g107
g3
NtRp616
(dp617
g110
(lp618
sg112
S''
sg113
g114
sg45
g1
(g47
g3
NtRp619
(dp620
g50
Nsg51
g1
(g52
g53
I9800
tRp621
sg55
g1
(g52
g53
I9119
tRp622
sg57
I1
sg58
Nsbsg119
S'gene'
p623
sg121
(dp624
S'db_xref'
p625
(lp626
S'GeneID:808506'
p627
asS'gene'
p628
(lp629
S'ATP6'
p630
assbag1
(g107
g3
NtRp631
(dp632
g110
(lp633
sg112
S''
sg113
g114
sg45
g1
(g47
g3
NtRp634
(dp635
g50
Nsg51
g1
(g52
g53
I9800
tRp636
sg55
g1
(g52
g53
I9119
tRp637
sg57
I1
sg58
Nsbsg119
S'CDS'
p638
sg121
(dp639
S'product'
p640
(lp641
S'ATP synthase F0 subunit 6'
p642
asS'codon_start'
p643
(lp644
S'1'
asS'transl_table'
p645
(lp646
S'2'
asS'db_xref'
p647
(lp648
S'GI:5835868'
p649
aS'GeneID:808506'
p650
asS'translation'
p651
(lp652
S'MNENLFASFIAPTMMGLPIVTLIIMFPSLLFPTPKRLINNRTISIQQWLIQLTSKQMMAIHNQKGQTWSLMLMSLIMFIGSTNILGLLPHSFTPTTQLSMNLGMAIPLWSATVFTGFRYKTKTSLAHFLPQGTPALLIPMLVIIETISLFIQPVALAVRLTANITAGHLLIHLIGGATLALLNINTMTAFITFTILILLTILEFAVALIQAYVFTLLVSLYLHDNT'
p653
asS'gene'
p654
(lp655
S'ATP6'
p656
asS'protein_id'
p657
(lp658
S'NP_008639.1'
p659
assbag1
(g107
g3
NtRp660
(dp661
g110
(lp662
sg112
S''
sg113
g114
sg45
g1
(g47
g3
NtRp663
(dp664
g50
Nsg51
g1
(g52
g53
I10583
tRp665
sg55
g1
(g52
g53
I9799
tRp666
sg57
I1
sg58
Nsbsg119
S'gene'
p667
sg121
(dp668
S'db_xref'
p669
(lp670
S'GeneID:808507'
p671
asS'gene'
p672
(lp673
S'COX3'
p674
assbag1
(g107
g3
NtRp675
(dp676
g110
(lp677
sg112
S''
sg113
g114
sg45
g1
(g47
g3
NtRp678
(dp679
g50
Nsg51
g1
(g52
g53
I10583
tRp680
sg55
g1
(g52
g53
I9799
tRp681
sg57
I1
sg58
Nsbsg119
S'CDS'
p682
sg121
(dp683
S'product'
p684
(lp685
S'cytochrome c oxidase subunit III'
p686
asS'transl_except'
p687
(lp688
S'(pos:10583,aa:TERM)'
p689
asS'codon_start'
p690
(lp691
S'1'
asS'transl_table'
p692
(lp693
S'2'
asS'note'
p694
(lp695
S"TAA stop codon is completed by the addition of 3' A residues to the mRNA"
p696
asS'db_xref'
p697
(lp698
S'GI:5835869'
p699
aS'GeneID:808507'
p700
asS'translation'
p701
(lp702
S'MTHQTHAYHMVNPSPWPLTGALSALLMTSGLTMWFHFNSMLLLSLGLLTNTLTMYQWWRDIIRESTFQGHHTSVVQKGLRYGMILFIISEVLFFTGFFWAFYHSSLAPTPELGGCWPPTGIHPLNPLEVPLLNTSILLASGVSITWAHHSLMEGDRKHMIQALSITIALGVYFTLLQASEYYEAPFTISDGVYGSTFFVATGFHGLHVIIGSTFLAVCLLRQLKFHFTSNHHFGFEAAAWYWHFVDVVWLFLYVSIYWWGS'
p703
asS'gene'
p704
(lp705
S'COX3'
p706
asS'protein_id'
p707
(lp708
S'NP_008640.1'
p709
assbag1
(g107
g3
NtRp710
(dp711
g110
(lp712
sg112
S''
sg113
g114
sg45
g1
(g47
g3
NtRp713
(dp714
g50
Nsg51
g1
(g52
g53
I10652
tRp715
sg55
g1
(g52
g53
I10583
tRp716
sg57
I1
sg58
Nsbsg119
S'tRNA'
p717
sg121
(dp718
S'product'
p719
(lp720
S'tRNA-Gly'
p721
assbag1
(g107
g3
NtRp722
(dp723
g110
(lp724
sg112
S''
sg113
g114
sg45
g1
(g47
g3
NtRp725
(dp726
g50
Nsg51
g1
(g52
g53
I10998
tRp727
sg55
g1
(g52
g53
I10652
tRp728
sg57
I1
sg58
Nsbsg119
S'gene'
p729
sg121
(dp730
S'db_xref'
p731
(lp732
S'GeneID:808508'
p733
asS'gene'
p734
(lp735
S'ND3'
p736
assbag1
(g107
g3
NtRp737
(dp738
g110
(lp739
sg112
S''
sg113
g114
sg45
g1
(g47
g3
NtRp740
(dp741
g50
Nsg51
g1
(g52
g53
I10998
tRp742
sg55
g1
(g52
g53
I10652
tRp743
sg57
I1
sg58
Nsbsg119
S'CDS'
p744
sg121
(dp745
S'product'
p746
(lp747
S'NADH dehydrogenase subunit 3'
p748
asS'transl_except'
p749
(lp750
S'(pos:10998,aa:TERM)'
p751
asS'codon_start'
p752
(lp753
S'1'
asS'transl_table'
p754
(lp755
S'2'
asS'note'
p756
(lp757
S"TAA stop codon is completed by the addition of 3' A residues to the mRNA"
p758
asS'db_xref'
p759
(lp760
S'GI:5835870'
p761
aS'GeneID:808508'
p762
asS'translation'
p763
(lp764
S'MNIMLTLLTNVTLASLLVLIAFWLPQLNAYSEKTSPYECGFDPMGSARLPFSMKFFLVAITFLLFDLEIALLLPLPWASQTNNLKTMLTMALFLLILLAASLAYEWTQKGLEWAE'
p765
asS'gene'
p766
(lp767
S'ND3'
p768
asS'protein_id'
p769
(lp770
S'NP_008641.1'
p771
assbag1
(g107
g3
NtRp772
(dp773
g110
(lp774
sg112
S''
sg113
g114
sg45
g1
(g47
g3
NtRp775
(dp776
g50
Nsg51
g1
(g52
g53
I11068
tRp777
sg55
g1
(g52
g53
I10999
tRp778
sg57
I1
sg58
Nsbsg119
S'tRNA'
p779
sg121
(dp780
S'product'
p781
(lp782
S'tRNA-Arg'
p783
assbag1
(g107
g3
NtRp784
(dp785
g110
(lp786
sg112
S''
sg113
g114
sg45
g1
(g47
g3
NtRp787
(dp788
g50
Nsg51
g1
(g52
g53
I11365
tRp789
sg55
g1
(g52
g53
I11068
tRp790
sg57
I1
sg58
Nsbsg119
S'gene'
p791
sg121
(dp792
S'db_xref'
p793
(lp794
S'GeneID:808509'
p795
asS'gene'
p796
(lp797
S'ND4L'
p798
assbag1
(g107
g3
NtRp799
(dp800
g110
(lp801
sg112
S''
sg113
g114
sg45
g1
(g47
g3
NtRp802
(dp803
g50
Nsg51
g1
(g52
g53
I11365
tRp804
sg55
g1
(g52
g53
I11068
tRp805
sg57
I1
sg58
Nsbsg119
S'CDS'
p806
sg121
(dp807
S'product'
p808
(lp809
S'NADH dehydrogenase subunit 4L'
p810
asS'codon_start'
p811
(lp812
S'1'
asS'transl_table'
p813
(lp814
S'2'
asS'db_xref'
p815
(lp816
S'GI:5835871'
p817
aS'GeneID:808509'
p818
asS'translation'
p819
(lp820
S'MPLVYMNIIMAFAIALAGLLMYRSHLMSSLLCLEGMMLSLFIMSTLIILNTHFTLANMMPIILLVFAACEAALGLSLLVMVSNTYGTDYVQNLNLLQC'
p821
asS'gene'
p822
(lp823
S'ND4L'
p824
asS'protein_id'
p825
(lp826
S'NP_008642.1'
p827
assbag1
(g107
g3
NtRp828
(dp829
g110
(lp830
sg112
S''
sg113
g114
sg45
g1
(g47
g3
NtRp831
(dp832
g50
Nsg51
g1
(g52
g53
I12736
tRp833
sg55
g1
(g52
g53
I11358
tRp834
sg57
I1
sg58
Nsbsg119
S'gene'
p835
sg121
(dp836
S'db_xref'
p837
(lp838
S'GeneID:808510'
p839
asS'gene'
p840
(lp841
S'ND4'
p842
assbag1
(g107
g3
NtRp843
(dp844
g110
(lp845
sg112
S''
sg113
g114
sg45
g1
(g47
g3
NtRp846
(dp847
g50
Nsg51
g1
(g52
g53
I12736
tRp848
sg55
g1
(g52
g53
I11358
tRp849
sg57
I1
sg58
Nsbsg119
S'CDS'
p850
sg121
(dp851
S'product'
p852
(lp853
S'NADH dehydrogenase subunit 4'
p854
asS'transl_except'
p855
(lp856
S'(pos:12736,aa:TERM)'
p857
asS'codon_start'
p858
(lp859
S'1'
asS'transl_table'
p860
(lp861
S'2'
asS'note'
p862
(lp863
S"TAA stop codon is completed by the addition of 3' A residues to the mRNA"
p864
asS'db_xref'
p865
(lp866
S'GI:5835872'
p867
aS'GeneID:808510'
p868
asS'translation'
p869
(lp870
S'MLKIIIPTTMLLPMTWMSKHNMIWINATVHSLLISLISLSLLNQLGENSLNFSLTFFSDSLSAPLLVLTTWLLPLMLMASQSHLSKETTTRKKLYITMLILLQLFLIMTFTATELILFYILFEATLVPTLIIITRWGNQTERLNAGLYFLFYTLAGSLPLLVALVYIQNTTGSLNFLIIHYWSHPLSNSWSNIFMWLACIMAFMVKMPLYGLHLWLPKAHVEAPIAGSMVLAAVLLKLGGYGMMRITTILNPLTNYMAYPFLMLSMWGMIMTSSICLRQTDLKSLIAYSSVSHMALVIVAIMIQTPWSFMGATALMIAHGLTSSMLFCLANTNYERVHSRTMILARGLQTLLPLMATWWLMASLTNLALPPSINLIGELFIITASFSWSNITIILMGMNMMITALYSLYMLITTQRGKYTHHINNIKASFTRENALMALHILPLLLLTLNPKMILGPLY'
p871
asS'gene'
p872
(lp873
S'ND4'
p874
asS'protein_id'
p875
(lp876
S'NP_008643.1'
p877
assbag1
(g107
g3
NtRp878
(dp879
g110
(lp880
sg112
S''
sg113
g114
sg45
g1
(g47
g3
NtRp881
(dp882
g50
Nsg51
g1
(g52
g53
I12805
tRp883
sg55
g1
(g52
g53
I12736
tRp884
sg57
I1
sg58
Nsbsg119
S'tRNA'
p885
sg121
(dp886
S'product'
p887
(lp888
S'tRNA-His'
p889
assbag1
(g107
g3
NtRp890
(dp891
g110
(lp892
sg112
S''
sg113
g114
sg45
g1
(g47
g3
NtRp893
(dp894
g50
Nsg51
g1
(g52
g53
I12864
tRp895
sg55
g1
(g52
g53
I12805
tRp896
sg57
I1
sg58
Nsbsg119
S'tRNA'
p897
sg121
(dp898
S'codon_recognized'
p899
(lp900
S'AGY'
p901
asS'product'
p902
(lp903
S'tRNA-Ser'
p904
assbag1
(g107
g3
NtRp905
(dp906
g110
(lp907
sg112
S''
sg113
g114
sg45
g1
(g47
g3
NtRp908
(dp909
g50
Nsg51
g1
(g52
g53
I12934
tRp910
sg55
g1
(g52
g53
I12864
tRp911
sg57
I1
sg58
Nsbsg119
S'tRNA'
p912
sg121
(dp913
S'codon_recognized'
p914
(lp915
S'CUN'
p916
asS'product'
p917
(lp918
S'tRNA-Leu'
p919
assbag1
(g107
g3
NtRp920
(dp921
g110
(lp922
sg112
S''
sg113
g114
sg45
g1
(g47
g3
NtRp923
(dp924
g50
Nsg51
g1
(g52
g53
I14755
tRp925
sg55
g1
(g52
g53
I12934
tRp926
sg57
I1
sg58
Nsbsg119
S'gene'
p927
sg121
(dp928
S'db_xref'
p929
(lp930
S'GeneID:808511'
p931
asS'gene'
p932
(lp933
S'ND5'
p934
assbag1
(g107
g3
NtRp935
(dp936
g110
(lp937
sg112
S''
sg113
g114
sg45
g1
(g47
g3
NtRp938
(dp939
g50
Nsg51
g1
(g52
g53
I14755
tRp940
sg55
g1
(g52
g53
I12934
tRp941
sg57
I1
sg58
Nsbsg119
S'CDS'
p942
sg121
(dp943
S'product'
p944
(lp945
S'NADH dehydrogenase subunit 5'
p946
asS'codon_start'
p947
(lp948
S'1'
asS'transl_table'
p949
(lp950
S'2'
asS'db_xref'
p951
(lp952
S'GI:5835873'
p953
aS'GeneID:808511'
p954
asS'translation'
p955
(lp956
S'MNPFASLTLTTLIILTIPIMMSNSNIYKTNLYPNYVKTTVSYAFTLSLVPLLMFMHTGQEMIISNWHWMTLQTVELSLSFKMDYFSVMFIPVALFVTWSIMEFSMWYMHSDPFINRFFKYLVLFLITMMILVTANNLFQLFIGWEGVGIMSFLLIGWWHGRTDANTAALQAILYNRIGDIGFVLSMAWFLTHSNAWDLQQIFMLNNECPNMPLIGLLLAAAGKSAQFGLHPWLPSAMEGPTPVSALLHSSTMVVAGVFLLIRFYPLMETNKLVQTMTLCLGAITTLFTALCAITQNDIKKIVAFSTSSQLGLMMVTIGINQPHLAFLHICMHAFFKAMLFMCSGSIIHSLNDEQDIRKMGGLYKAMPFTTTALIIGSLALTGMPYLTGFYSKDLIIEAVNMSYTNAWALLMTLIATSLTAAYSTRIIFFAFLGKPRFPPLVLINENNPLLINSIKRLLIGSIFAGFIISNNIPPMTVPNTTMPLYMKMTALIVTIMGFMLALELNNTTYYLKFKYPSQTYKFSNMLGYYPSIMHRLPTYHNLSMSQKSASSLLDLIWLETILPKTTSFIQMKMSIMVSNQKGLIKLYFLSFLITIMISMTLFNYHE'
p957
asS'gene'
p958
(lp959
S'ND5'
p960
asS'protein_id'
p961
(lp962
S'NP_008644.1'
p963
assbag1
(g107
g3
NtRp964
(dp965
g110
(lp966
sg112
S''
sg113
g114
sg45
g1
(g47
g3
NtRp967
(dp968
g50
Nsg51
g1
(g52
g53
I15266
tRp969
sg55
g1
(g52
g53
I14738
tRp970
sg57
I-1
sg58
Nsbsg119
S'gene'
p971
sg121
(dp972
S'db_xref'
p973
(lp974
S'GeneID:808512'
p975
asS'gene'
p976
(lp977
S'ND6'
p978
assbag1
(g107
g3
NtRp979
(dp980
g110
(lp981
sg112
S''
sg113
g114
sg45
g1
(g47
g3
NtRp982
(dp983
g50
Nsg51
g1
(g52
g53
I15266
tRp984
sg55
g1
(g52
g53
I14738
tRp985
sg57
I-1
sg58
Nsbsg119
S'CDS'
p986
sg121
(dp987
S'product'
p988
(lp989
S'NADH dehydrogenase subunit 6'
p990
asS'codon_start'
p991
(lp992
S'1'
asS'transl_table'
p993
(lp994
S'2'
asS'db_xref'
p995
(lp996
S'GI:5835874'
p997
aS'GeneID:808512'
p998
asS'translation'
p999
(lp1000
S'MTMYIAFILSTIFVIGFVGFSSKPSPIYGGLGLIVSGGVGCGIVLNFGGSFLGLMVFLIYLGGMLVVFGYTTAMATEMYPEVWVSNKTVFGAFVSGLMMEFCMVYYALKEEEVEIIFKFNGLGDWVIYDTGDSGFFSEEAMGIAALYSYGTWLVIVTGWSLLIGVVVIMEITRGN'
p1001
asS'gene'
p1002
(lp1003
S'ND6'
p1004
asS'protein_id'
p1005
(lp1006
S'NP_008645.1'
p1007
assbag1
(g107
g3
NtRp1008
(dp1009
g110
(lp1010
sg112
S''
sg113
g114
sg45
g1
(g47
g3
NtRp1011
(dp1012
g50
Nsg51
g1
(g52
g53
I15335
tRp1013
sg55
g1
(g52
g53
I15266
tRp1014
sg57
I-1
sg58
Nsbsg119
S'tRNA'
p1015
sg121
(dp1016
S'product'
p1017
(lp1018
S'tRNA-Glu'
p1019
assbag1
(g107
g3
NtRp1020
(dp1021
g110
(lp1022
sg112
S''
sg113
g114
sg45
g1
(g47
g3
NtRp1023
(dp1024
g50
Nsg51
g1
(g52
g53
I16481
tRp1025
sg55
g1
(g52
g53
I15341
tRp1026
sg57
I1
sg58
Nsbsg119
S'gene'
p1027
sg121
(dp1028
S'db_xref'
p1029
(lp1030
S'GeneID:808513'
p1031
asS'gene'
p1032
(lp1033
S'CYTB'
p1034
assbag1
(g107
g3
NtRp1035
(dp1036
g110
(lp1037
sg112
S''
sg113
g114
sg45
g1
(g47
g3
NtRp1038
(dp1039
g50
Nsg51
g1
(g52
g53
I16481
tRp1040
sg55
g1
(g52
g53
I15341
tRp1041
sg57
I1
sg58
Nsbsg119
S'CDS'
p1042
sg121
(dp1043
S'product'
p1044
(lp1045
S'cytochrome b'
p1046
asS'codon_start'
p1047
(lp1048
S'1'
asS'transl_table'
p1049
(lp1050
S'2'
asS'db_xref'
p1051
(lp1052
S'GI:5835875'
p1053
aS'GeneID:808513'
p1054
asS'translation'
p1055
(lp1056
S'MTNIRKSHPLMKIINNAFIDLPAPSNISSWWNFGSLLGICLILQILTGLFLAMHYTSDTTTAFSSVTHICRDVNYGWVIRYLHANGASMFFICLFIHVGRGLYYGSYMFLETWNIGVVLLFTVMATAFMGYVLPWGQMSFWGATVITNLLSAIPYIGTDLVEWIWGGFSVDKATLTRFFAFHFILPFIITALAAVHLLFLHETGSNNPTGISSDMDKIPFHPYYTIKDILGALFMMLILLILVLFSPDLLGDPDNYTPANPLNTPPHIKPEWYFLFAYAILRSIPNKLGGVLALVASILILILMPMLHTSKQRSMMFRPLSQCLFWMLVADLITLTWIGGQPVEHPFIIIGQLASILYFLIILVLMPITSIIENNLLKW'
p1057
asS'gene'
p1058
(lp1059
S'CYTB'
p1060
asS'protein_id'
p1061
(lp1062
S'NP_008646.1'
p1063
assbag1
(g107
g3
NtRp1064
(dp1065
g110
(lp1066
sg112
S''
sg113
g114
sg45
g1
(g47
g3
NtRp1067
(dp1068
g50
Nsg51
g1
(g52
g53
I16549
tRp1069
sg55
g1
(g52
g53
I16481
tRp1070
sg57
I1
sg58
Nsbsg119
S'tRNA'
p1071
sg121
(dp1072
S'product'
p1073
(lp1074
S'tRNA-Thr'
p1075
assbag1
(g107
g3
NtRp1076
(dp1077
g110
(lp1078
sg112
S''
sg113
g114
sg45
g1
(g47
g3
NtRp1079
(dp1080
g50
Nsg51
g1
(g52
g53
I16613
tRp1081
sg55
g1
(g52
g53
I16549
tRp1082
sg57
I-1
sg58
Nsbsg119
S'tRNA'
p1083
sg121
(dp1084
S'product'
p1085
(lp1086
S'tRNA-Pro'
p1087
assbasS'_seq'
p1088
g1
(cBio.Seq
Seq
p1089
g3
NtRp1090
(dp1091
S'alphabet'
p1092
g1
(cBio.Alphabet.IUPAC
IUPACAmbiguousDNA
p1093
g3
NtRp1094
sS'_data'
p1095
S'CAACCAAAACAAGCATTCCATTCGTATGCAAACCAAAACGCCAAGTACTTAATTACTATCTTTAAAACAAAAAAACCCATAAAAATTGCGCACAAACATACAAATATGTGACCCCAAAAATTTTACCATTGAAAACCAAAAAATCTAATATACTATAACCCTATGTACGTCGTGCATTAATTGCTAGTCCCCATGCATATAAGCATGTACATATTATTATTAATATTACATAGTACATATTATTATTGATCGTACATAGCACATATCATGTCAAATAACTCCAGTCAACATGCATATCACCACCACTAGATCACGAGCTTAACTACCATGCCGCGTGAAACCAGCAACCCGCTTGGCAGGGATCCCTCTTCTCGCTCCGGGCCCATAAACCGTGGGGGTTTCTATTGATGAACTTTAACAGGCATCTGGTTCTTACTTCAGGACCATCTCACCTAAAATCGCCCACTCTTTCCCCTTAAATAAGACATCTCGATGGACTAATGACTAATCAGCCCATGCTCACACATAACTGAGGTTTCATACATTTGGTATTTTTTAATTTTTGGGGATGCTTAGACTCAGCCATGGCCGTCAAAGGCCCTAACACAGTCAAATCAATTGTAGCTGGACTTCATGGAACTCATGATCCGGCACGACAATCCAAACAAGGTGCTATTCAGTCAATGGTTACGGGACATAACGTACATACACGTGCGTACACGTGCGTACACGTGCGTACACGTGCGTACACGTGCGTACACGTGCGTACACGTGCGTACACGTGCGTACACGTGCGTACACGTGCGTACACGTGCGTACACGTGCGTACACGTGCGTACACGCGCATATAAGCAGGTAAATTATTAGCTCATTCAAACCCCCCTTACCCCCCATTAAACTTATGCTCTACACACCCTATAACGCCTTGCCAAACCCCAAAAACAAAGCAGAGTGTACAAATACAATAAGCCTAACTTACACTAAACAACATTTAACAACACAAACCACCATATCTTATAAAACACTTACTTAAATACGTGCTACGAAAGCAGGCACTTACCCCCCTAGATTTTTACGCCAATCTACCATAAATAAATTTAAAATTACTACACAATAACCTCCCATAATATATGCACCTATTTAAGTATACGCCCACAATCTGAATATAGCTTATAGTTAATGTAGCTTAAATTATCAAAGCAAGGCACTGAAAATGCCTAGATGAGCCTCACAGCTCCATAAACACACAGGTTTGGTCCTGGCCTTTCTATTAATTCTTAATAAAATTACACATGCAAGTATCCGCGCCCCGGTGAGAATGCCCTCCAGATCTTAAAGATCAAAAGGAGCAGGTATCAAGCACACCTATAACGGTAGCTCATAACGCCTTGCTCAACCACACCCCCACGGGAAACAGCAGTGATAAAAATTAAGCCATGAACGAAAGTTTGACTAAGTTATATTAATTAGAGTTGGTAAATCTCGTGCCAGCCACCGCGGTCATACGATTAACCCAAATTAATAGATCCACGGCGTAAAGAGTGTTTAAGAAAAAAAATCACAATAGAGTTAAATTATAACTAAGCTGTAAAAAGCCCTAGTTAAAATAAAATAACCCACGAAAGTGACTCTAATAATCCTGACACACGATAGCTAGGACCCAAACTGGGATTAGATACCCCACTATGCCTAGCCCTAAACCCAAATAGTTACATAACAAAACTATTCGCCAGAGTACTACTCGCAACTGCCTAAAACTCAAAGGACTTGGCGGTGCTTCACATCCACCTAGAGGAGCCTGTTCTATAATCGATAAACCCCGATAGACCTTACCAACCCTTGCCAATTCAGCCTATATACCGCCATCTTCAGCAAACCCTAAAAAGGAACAATAGTAAGCACAATCATAGCACATAAAAACGTTAGGTCAAGGTGTAGCTTATGGGTTGGAAAGAAATGGGCTACATTTTCTACATGAGTATATCCACCACACGAAAGTTTTTATGAAACTAAAAACCCAAGGAGGATTTAGCAGTAAATCGAGAATAGAGTGCTTGATTGAATAAGGCCATGAAGCACGCACACACCGCCCGTCACCCTCCTCAAGCATGTAGTAATAAAAATAACCTATATTCAATTACACAACCATGCAAGAAGAGACAAGTCGTAACAAGGTAAGCATACTGGAAAGTGTGCTTGGATTACCAAAGCATAGCTTAAACTAAAGCACCTAGTTTACACCTAGAAGATCCCACAATGTATGGGTACTTTGAACCAAAGCTAGCTCAACATACTAAACAAATACAACAATACACCAAAATGAAATAAAACATTCACCTAACATTAAAGTATAGGAGATAGAAATTTTTATCCTGACGCTATAGAGATAGTACCGTAAGGGATAGATGAAAGAATAAAATTCAAAGTAAGAAAAAGCAAAGATTACCCCTTCTACCTTTTGCATAATGGTTTAACCAGAAAAAATCTAACAAAGAGAACTTTAGCTAGATACCCCGAAACCAGACGAGCTACCCATGAGCAGTTTAAAAGAACCAACTCATCTATGTGGCAAAATAGTGAGAAGACTTGTAGGTAGAGGTGAAAAGCCTAACGAGCCTGGTGATAGCTGGTTGTCCGAGAAAGAATTTTAGTTCAACTTTAAAAATACCCCAAAAACCTTAAATTCCAATGTATTTTTAAGAGATAGTCTAAAAAGGTACAGCTTTTTAGAAACGGATACAACCTTGACTAGAGAGTAAAATCTTAATACTACCATAGTAGGCCTAAAAGCAGCCATCAATTGAGAAAGCGTTAAAGCTCAACAAATTCACCAACATAATCCCAAAAACTAATAACAAACTCCTAGCCCAATACCGGACTAATCTATCGAAACATAGAAGCAATAATGTCAATATGAGTAACAAGAAGCCTTTCTCCTCGCACACGCTTACATCAGTAACTAATAATATACTGATAATTAACAACCAATAAACCAAAACAACACTAAAACGTTTATTAATTACATTGTTAACCCAACACAGGAGTGCACCAAGGAAAGATTAAAAGAAGTAAAAGGAACTCGGCAAACACAAACCCCGCCTGTTTACCAAAAACATCACCTCTAGCATTACTAGTATTAGAGGCAATGCCTGCCCAGTGACACCAGTTTAACGGCCGCGGTATTCTGACCGTGCAAAGGTAGCATAATCACTTGTTCTCCAAATAAGGACTTGTATGAATGGCCACACGAGGGTTTTACTGTCTCTTACTTCCAATCAGTGAAATTAACCTTCCCGTGAAGAGGCGGGAATAAAAAAATAAGACGAGAAGACCCTATGGAGCTTTAATTAACTATTCCAAAAGTTAAACAACTCAACCACAAAGGGATAAAACATAACTTAACATGGACTAGCAATTTCGGTTGGGGTGACCTCGGAGTACAAAAAACCCTCCGAGTGATTTTAATCTAGACAAACCAGTCAAAATAACCATAACATCACTTATTGATCCAAAATTTTGATCAACGGAACAAGTTACCCTAGGGATAACAGCGCAATCCTGTTCTAGAGTTCCTATCGACAATAGGGTTTACGACCTCGATGTTGGATCAGGACACCCAAATGGTGCAACCGCTATTAAAGGTTCGTTTGTTCAACGATTAAAGTCCTACGTGATCTGAGTTCAGACCGGAGCAATCCAGGTCGGTTTCTATCTATTATAAATTTCTCCCAGTACGAAAGGACAAGAGAAATGGGACCAACCTCACAAACGCGTCTCAGAGATAATTAATGATTTAATCTTAACCTAATTAACTCATAATAAATCCAGCCCTAGAACAGGGCACATTAGGGTGGCAGAGACCGGTAATTGCGTAAAACTTAAACCTTTATTACCAGAGGTTCAACTCCTCTCCCTAATAACATGTTCATAATTAATATTCTAAGCCTAATTATTCCTATCCTACTGGCCGTAGCATTCCTCACCCTAGTAGAACGAAAAGTGCTAGGTTATATGCAACTACGAAAAGGACCCAACGTTGTAGGCCCCTACGGGCTACTCCAACCCATCGCCGATGCCCTAAAACTAGTCACCAAAGAACCCCTACGACCAGGCACATCCTCAATCTCCATGTTCATTATTGCACCAATCCTAGGCTTATCCCTAGCACTAACAATATGAGTTCCACTACCAATACCCTACCCTCTAATCAACATAAATCTAGGAGTACTATTCATGCTAGCCATGTCAAGCCTAGCAGTCTACTCTATCCTATGATCAGGATGAGCATCCAACTCAAAATACGCACTCATCGGGGCCCTACGAGCAGTAGCCCAAACAATCTCATATGAAGTAACACTAGCAATCATCCTACTATCAGTACTCCTAATAAATGGATCATATACTCTATCAACCCTAATCACAACACAAGAGCACATTTGAATAATCTTTACATCCTGACCCCTAGCCATAATATGATTTATCTCAACCCTAGCAGAAACCAACCGAGCCCCGTTCGACCTTACAGAAGGAGAGTCAGAACTTGTATCAGGCTTTAACGTAGAATATGCAGCCGGACCTTTCGCCATATTCTTCATAGCAGAATATGCCAACATCATCATAATAAATGCATTTACAGCAATTCTCTTCCTAGGAGCATCCCACGACCCACACACACCAGAACTATATACAATCAACTTCGTACTAAAAACACTCGCATTAACAATCACCTTCCTATGAATCCGAGCATCATACCCACGATTCCGATACGACCAACTAATACATTTACTATGAAAAAGCTTCCTGCCCCTAACACTAGCTCTATGTATATGACACATCTCACTCCCTATTATAACAGCAAGCATTCCCCCACAATCATAGAAATATGTCTGATAAAAGAGTTACTTTGATAGAGTAAAAAATAGAGGTTCAAACCCTCTTATTTCTAGAACAATAGGACTCGAACCTAAACCTGAGAATTCAAAATTCTCCGTGCTACCAAAATACACCACATTCTACAGTAAGGTCAGCTAAGCTAAGCTATCGGGCCCATACCCCGAAAATGTTGGTTCATACCCTTCCCATACTAATTAATCCCATTATCTACACTACCCTTATCATAACAGTAATGTCCGGAACCATACTAGTAATAATCAGCTCACACTGACTACTCATCTGAATCGGATTCGAAATAAACCTATTAGCAATAATCCCAGTATTAATAAAAAATTTTAACCCACGAGCCACAGAAGCAGCCACAAAATATTTCCTAACACAAGCCACAGCCTCCATAATACTAATAATAGCCATCATCATCAACCTCCTATATTCTGGCCAATGGACCATTACAAAAATATTTAACCCAGTAGCAATAACAATAATAACCATGGCCCTAGCCATAAAACTAGGACTCTCACCTTTCCACTTCTGAGTCCCAGAAGTAACCCAAGGCATTTCACTACAAGCAGGCCTACTGTTACTAACATGACAAAAACTAGCCCCATTATCAGTACTATGCCAAATCTCACAATCAATCAACCCAAACCTAATACTAACTATAGCCATATTATCAATTTTAATCGGAGGGTGAGGAGGGCTAAATCAAACCCAACTTCGAAAAATCATAGCATACTCATCAATCGCACACATAGGATGAATGACAGCAGTATTACCATACAACACAACCATAACAATCTTAAACCTACTAATTTACATCACAATAACACTAGCAATATTCATACTATTAATCCACAGCTCAGCAACCACAACTTTATCCCTATCCCATACATGAAACAAAATACCCGTCATCACAAGCCTAATAATAGTAACCCTACTCTCAATAGGAGGCCTGCCTCCACTATCAGGATTTATGCCAAAATGAATAATTATTCAAGAAATAACAAAAAATGAAAGCATCATCATGCCAACACTCATAGCAATAACAGCACTGCTAAACCTCTATTTCTACATACGACTAGCCTACTCCTCCTCACTGACTATGTTCCCATCCACCAACAACATAAAAATAAAATGACAATTCGAACACACAAAACAAATAAAATTACTTCCCACAATAATTGTATTATCAACACTAGTCCTACCTATAACACCAGCCCTCTCGTCCCTAAACTAGGAATTTAGGTTAACACAGACCAAGAGCCTTCAAAGCTCTAAGTAAGTACAAAGTACTTAACTCCTGAAAACCTAAGGACTGCAGGACTTATCCTACATCAATTGAATGCAAATCAAACACTTTAATTAAGCTAAGTCCTCACTAGATTGGTGGGATTACATACCCACGAAACTTTTAGTTAACAGCTAAACACCCTAATCAACTGGCTTCAATCTACTTCTCCCGCCGCAGGAAAAAAAAGGCGGGAGAAGTCCCGGCAGAATTGAAGCTGCTTCTTTGAATTTGCAATTCAACATGATATTCACCACGGAACTGGCAAAAAGAGGGCTTAACCTCTGTCTTTAGATTTACAGTCTAATGCTTACTCAGCCATTTTACCTATGTTCGTAAATCGTTGACTATACTCAACAAACCACAAAGACATCGGCACCCTGTACCTACTATTTGGTGCCTGAGCAGGAATAGTGGGCACTGCCTTGAGCCTACTAATTCGCGCTGAACTAGGTCAGCCCGGAACCCTACTTGGCGATGATCAAATCTATAATGTAATTGTTACAGCTCATGCCTTTGTAATAATCTTCTTTATAGTAATACCCATTATGATTGGGGGTTTTGGTAACTGACTCGTACCGCTAATAATCGGAGCTCCCGATATGGCCTTTCCACGTATAAACAACATAAGTTTCTGACTACTTCCACCATCCTTCCTATTACTTCTGGCATCCTCAATAGTAGAAGCCGGAGCGGGTACTGGATGAACTGTATACCCACCTTTAGCTGGAAACTTAGCCCATGCAGGGGCTTCAGTTGATTTAACAATTTTCTCCCTACACCTTGCAGGTGTATCATCAATCCTAGGGGCTATTAATTTCATTACCACAATTATTAACATAAAACCCCCCGCAATGTCTCAATACCAAACACCCCTGTTTGTCTGATCAGTACTAATCACAGCCGTACTACTTCTACTATCCCTGCCAGTTCTAGCAGCTGGCATTACTATACTACTGACAGACCGCAACCTGAACACAACCTTTTTTGATCCAGCAGGTGGTGGAGACCCTATCCTTTATCAACACTTGTTCTGATTTTTCGGACACCCAGAAGTATACATTCTCATCTTACCAGGATTCGGAATAATCTCCCACATTGTAACCTACTATTCAGGTAAAAAAGAACCATTTGGATATATAGGCATAGTATGAGCCATAATGTCCATTGGATTCTTAGGTTTTATTGTATGGGCTCACCACATATTCACCGTAGGAATAGACGTAGATACCCGAGCATACTTTACATCTGCTACAATAATCATTGCTATTCCCACTGGAGTAAAAGTATTTAGTTGATTAGCTACCCTGCACGGCGGCAATATTAAATGATCACCCGCAATACTATGAGCTCTGGGCTTCATCTTCCTATTCACCGTAGGAGGTCTAACGGGCATTGTACTAGCTAATTCCTCCCTAGACATTGTATTACATGATACATATTATGTAGTCGCACACTTCCACTATGTCTTATCTATAGGAGCAGTGTTCGCCATTATAGGGGGCTTTGTTCACTGATTCCCCCTATTCTCCGGGTACACACTCAACCAAGCATGAGCAAAAATTCACTTTGTAATCATATTCGTAGGAGTAAATATAACATTCTTTCCACAACACTTTCTAGGACTATCCGGAATACCTCGACGATACTCCGATTATCCTGACGCATACACAGCATGAAATACTATTTCCTCAATAGGCTCATTCATCTCACTAACAGCAGTGATATTAATAATCTTCATTATCTGAGAAGCATTCGCATCAAAACGAGAAGTATCTGCAGTAGAACTGACAAGCACAAACCTAGAATGACTACACGGATGTCCTCCTCCCTATCACACATTTGAAGAACCAACATATATCAACCTAAAATAAGCATAAGAAAGGAAGGAATCGAACCCTCTCCCACTGGTTTCAAGCCAACGTCATAACCACTATGTCTTTCTCGATAATCGAGGTATTAGTAAAATATTACATAACTTTGTCGAAGTTATATTATAGGTGAAAGCCCTATATGCCTCTATGGCTTACCCTTTCCAACTAGGCTTCCAAGACGCCACTTCACCCATCATAGAAGAACTCCTACACTTTCACGATCACACCTTAATAATCGTATTCTTAATCAGCTCTTTAGTGTTATATATCATTTCACTCATACTAACAACAAAACTGACACACACTAGCACAATGGATGCCCAAGAAGTAGAAACAATTTGAACAATCCTACCCGCTATTATTCTAATTCTTATTGCCCTTCCATCATTACGAATCCTTTATATAATAGACGAAATTAATAACCCAGCCTTAACCGTAAAAACCATAGGACATCAATGATACTGAAGCTACGAGTATACAGACTATGAAGACCTCACCTTTGACTCATATATAATCCCCACATCAGATCTTAAACCTGGAGAAATACGACTACTAGAAGTAGACAATCGAGTTGTTCTACCAATAGAAATAACAATCCGAATATTAGTATCCTCTGAAGACGTACTGCACTCATGAGCCGTCCCATCCCTCGGTTTAAAAACAGATGCTATCCCAGGACGACTAAACCAAACAACTCTAATATCCACACGACCTGGCCTTTATTACGGACAGTGCTCAGAAATCTGTGGATCAAACCACAGCTTCATGCCCATTGTACTTGAACTTGTCCCATTAAAGTACTTCGAAAAATGGTCAACATCAATATTAACAGGTTCATTGAGAAGCTAGTCAGCACTAACCTTTTAAGTTAGAGATCGGGAGCCTAAATCTCCCCTCAATGGTATGCCACAACTAGATACATCCACATGATTCATTACAATTACATCAATAATTATAACATTATTTATTTTATTCCAACTAAAAATCTCAAACTACTCATACCCAGCAAGCCCAGAATCAATTGAACTCAAAACTCAAAAACATAGCACCCCTTGAGAAATAAAATGAACGAAAATCTATTTGCCTCTTTTATTGCCCCCACGATAATAGGACTACCTATTGTCACCTTAATTATTATATTCCCAAGCTTACTATTCCCAACACCCAAACGACTCATTAATAACCGCACAATCTCGATCCAACAATGATTAATCCAACTAACATCCAAACAAATAATAGCTATTCACAACCAAAAAGGCCAAACCTGATCACTAATACTTATATCTCTAATTATATTCATCGGCTCAACAAACATCCTAGGCCTACTACCACACTCATTCACACCCACCACACAACTATCAATAAACCTGGGTATAGCAATCCCCCTATGATCAGCAACCGTATTCACAGGATTCCGCTATAAAACCAAAACATCACTAGCCCACTTTCTACCACAAGGAACACCCGCCCTATTAATTCCTATGCTCGTAATTATTGAAACTATTAGCCTATTTATTCAACCAGTAGCCCTAGCCGTACGACTGACAGCCAACATTACAGCAGGGCACCTATTAATTCATCTAATTGGAGGGGCCACATTAGCACTACTCAACATCAACACTATAACAGCTTTTATCACATTTACTATCCTCATTCTATTAACTATTCTTGAATTTGCAGTAGCTCTGATCCAAGCTTATGTGTTTACACTGCTAGTAAGCTTATACCTACACGACAATACATAATGACCCACCAAACACATGCATACCACATAGTAAACCCAAGCCCATGACCACTTACCGGAGCCCTATCAGCCCTTTTAATAACATCAGGCCTAACTATATGATTCCACTTTAACTCTATACTCTTACTATCTCTAGGACTATTAACCAATACTTTGACAATATACCAATGGTGACGAGACATTATTCGAGAGAGCACTTTCCAAGGCCACCACACATCAGTTGTCCAAAAAGGCTTACGATACGGTATAATTTTATTTATTATTTCCGAGGTTCTGTTCTTCACTGGATTCTTTTGAGCTTTCTACCACTCAAGCCTAGCACCAACACCCGAATTAGGAGGTTGCTGACCACCAACAGGAATTCACCCACTAAACCCCCTAGAAGTACCCCTACTAAACACCTCAATCCTCCTCGCCTCAGGAGTATCCATTACCTGAGCCCATCACAGCCTAATAGAAGGGGACCGAAAACACATAATCCAAGCACTATCCATCACCATTGCACTAGGCGTATACTTCACCCTCCTCCAAGCCTCAGAATATTACGAAGCACCATTCACAATCTCCGACGGAGTGTATGGATCCACTTTCTTTGTGGCTACAGGGTTTCACGGGTTGCACGTAATCATCGGATCTACTTTCCTAGCAGTATGCTTACTACGACAACTAAAATTCCACTTCACATCCAACCACCACTTCGGCTTTGAAGCCGCAGCCTGATACTGACACTTCGTAGATGTAGTTTGACTATTCCTTTACGTATCAATCTATTGATGAGGATCCTACTCTTTTAGTATTAAGTAGTACAATTGACTTCCAATCAATCAGTTTCGGTAAACTCCGAAAAAGAGTAATAAATATTATACTAACACTACTCACAAACGTAACCCTAGCCTCCCTACTCGTACTAATCGCATTCTGACTACCCCAACTAAACGCATATTCAGAAAAAACAAGCCCATATGAATGTGGATTTGACCCCATAGGATCAGCACGCCTCCCATTCTCAATAAAATTTTTCCTAGTAGCCATTACATTTCTCCTTTTTGATCTAGAAATCGCCCTTCTCCTTCCCCTACCATGAGCATCCCAAACAAACAATCTAAAAACAATACTTACAATAGCACTATTCCTTCTTATCCTACTAGCAGCAAGCCTAGCATACGAATGAACCCAAAAAGGCCTAGAATGAGCAGAATATGATAATTAGTTTAAAACAAAACAAATGATTTCGACTCATTAGACTATGATTTACTTCATAATTATCAAGTGCCATTAGTATATATAAACATCATTATAGCATTCGCGATCGCCCTTGCAGGGTTACTTATATATCGATCTCACTTAATATCTTCACTACTATGCCTAGAAGGAATGATACTATCACTATTCATCATATCGACTCTAATTATCCTAAACACACACTTCACCCTAGCTAACATAATACCCATTATTTTACTAGTGTTTGCAGCCTGCGAAGCTGCACTAGGCCTGTCACTACTAGTAATAGTATCCAACACATACGGTACCGATTACGTCCAAAACTTAAACCTTTTACAATGCTAAAAATTATTATCCCAACAACAATACTACTACCCATAACATGAATATCTAAACACAACATAATCTGAATCAATGCAACAGTACATAGTCTCCTCATTAGCCTGATCAGTCTATCCCTACTAAACCAACTAGGCGAAAACAGCCTTAATTTTTCCTTAACATTCTTCTCCGACTCACTATCAGCACCCCTACTAGTTCTAACCACATGACTCCTCCCCCTTATACTAATAGCTAGCCAATCTCACCTATCAAAAGAAACCACAACCCGAAAAAAACTATATATTACCATACTAATCCTACTACAACTATTCCTAATTATAACCTTCACCGCCACCGAACTAATCCTATTCTATATCCTATTCGAAGCAACACTAGTACCCACACTAATTATCATCACACGCTGAGGAAACCAAACAGAACGACTCAATGCAGGACTTTATTTCCTATTCTACACCCTAGCAGGATCCCTACCACTGCTAGTAGCACTAGTTTATATCCAAAATACCACAGGCTCACTAAACTTCTTAATTATCCATTACTGATCCCACCCATTATCCAACTCTTGATCAAACATTTTTATATGATTAGCATGCATCATAGCCTTCATAGTAAAAATACCTCTGTACGGACTCCATCTTTGACTGCCAAAAGCCCATGTAGAAGCCCCCATTGCAGGTTCAATAGTACTTGCAGCCGTACTGCTAAAACTCGGAGGCTATGGCATAATGCGAATCACTACTATTCTAAACCCACTAACAAACTACATAGCCTATCCATTCCTCATGCTTTCCATATGAGGCATAATCATAACCAGCTCTATCTGCTTACGTCAAACCGACCTAAAATCCTTAATCGCCTATTCATCAGTAAGTCATATAGCACTTGTAATCGTAGCAATCATAATTCAAACCCCTTGAAGCTTCATAGGGGCCACAGCTCTCATAATTGCCCACGGACTAACATCCTCCATACTATTCTGCCTAGCCAACACTAACTATGAACGAGTACACAGCCGAACCATAATCCTGGCCCGAGGACTGCAAACACTCCTACCACTCATAGCAACATGATGACTAATAGCAAGCCTCACAAACCTAGCCCTACCCCCATCCATCAATCTAATCGGAGAATTATTTATCATCACAGCATCATTTTCATGATCCAACATCACAATTATTCTCATAGGAATAAACATAATAATTACAGCCCTCTACTCTCTCTACATACTAATTACTACACAACGAGGAAAATACACCCACCACATTAACAACATCAAAGCCTCATTCACACGAGAAAACGCCCTCATAGCCCTACATATTCTACCACTACTACTACTGACCTTAAACCCTAAAATAATCCTAGGACCCCTTTACTGTAGATATAGTTTAATAAAAACCCTAGATTGTGAATCTAGTAATAGAAAATTAAATATTCTTATCTACCGAAAAAGTTTGCAAGAACTGCTAACTCATGCTTCCACACTTAAAAATGTGGCTTTTTCAACTTTTAAAGGATAACAGCTATCCGTTGGTCTTAGGAACCAAAAAATTGGTGCAACTCCAAATAAAAGTAATAAACCCATTCGCCTCACTCACATTAACCACACTAATTATTCTAACCATCCCAATTATAATATCCAACTCAAACATCTACAAAACTAACCTTTACCCTAACTACGTAAAAACCACCGTATCCTACGCCTTCACTCTCAGCCTAGTCCCCTTACTAATATTTATACACACAGGCCAAGAAATAATCATTTCAAACTGACATTGAATAACCCTACAGACCGTAGAACTCTCTCTTAGCTTTAAAATAGACTATTTCTCAGTAATATTCATTCCCGTAGCACTATTCGTCACATGATCAATTATAGAATTCTCCATATGATACATACACTCAGACCCCTTCATCAACCGATTCTTTAAATACCTAGTACTATTCTTAATCACTATAATAATCCTCGTAACCGCCAACAACCTCTTCCAACTATTTATCGGATGAGAAGGCGTAGGAATTATATCATTCCTGCTAATTGGATGATGACACGGACGAACAGACGCCAACACAGCTGCACTACAAGCAATCCTATACAACCGCATCGGAGACATTGGATTTGTCCTATCCATAGCATGATTCCTAACCCACTCAAACGCATGAGATCTTCAACAAATCTTTATACTAAACAATGAATGCCCAAACATACCATTAATCGGCCTACTCCTAGCTGCAGCAGGAAAATCAGCTCAATTCGGACTACATCCCTGATTGCCCTCAGCAATAGAAGGCCCAACTCCCGTATCAGCATTACTACACTCCAGTACAATAGTAGTAGCAGGGGTATTTCTACTCATCCGCTTCTACCCCTTAATAGAAACTAACAAACTAGTTCAAACTATAACACTATGCCTAGGAGCTATCACCACCTTATTTACAGCACTATGTGCAATCACACAAAATGATATCAAAAAAATCGTAGCCTTCTCAACTTCAAGCCAACTAGGCTTGATAATAGTGACAATCGGCATCAACCAACCCCACCTAGCATTTCTTCACATCTGCATGCACGCTTTCTTCAAAGCAATACTATTCATATGCTCCGGATCCATTATCCACAGCCTCAATGACGAACAAGACATCCGAAAAATAGGCGGACTGTATAAAGCAATACCATTCACAACAACAGCACTAATTATTGGAAGCCTGGCATTAACAGGAATGCCTTATCTCACAGGATTCTACTCAAAAGACCTTATCATTGAAGCAGTAAATATATCCTACACAAACGCCTGAGCCCTACTAATAACATTAATTGCCACATCCCTAACCGCTGCCTACAGCACTCGAATTATCTTCTTTGCATTCCTAGGGAAACCACGTTTCCCACCCCTAGTCCTAATTAATGAAAATAACCCCCTACTAATTAACTCTATTAAACGCCTTTTAATCGGAAGCATTTTCGCTGGCTTTATCATCTCCAACAACATCCCACCAATAACAGTACCAAACACAACAATACCCCTTTACATAAAAATAACAGCCCTAATCGTAACCATCATAGGATTCATACTAGCCCTAGAGCTAAACAACACAACCTACTACCTGAAATTTAAATACCCCTCACAAACATACAAATTTTCCAACATACTAGGATATTATCCCTCCATCATACACCGCCTACCAACATACCACAACCTATCTATAAGCCAAAAATCCGCATCATCATTACTAGACTTAATTTGACTAGAAACTATTCTACCAAAAACAACCTCTTTCATCCAAATAAAAATATCAATCATAGTATCAAATCAAAAAGGCCTAATCAAACTATACTTTCTCTCCTTCCTAATCACTATTATAATCAGCATAACACTATTTAATTACCACGAGTAATCTCTATAATAACAACAACTCCAATAAGCAATGATCAACCAGTAACAATAACTAATCAAGTACCATAACTATATAAAGCAGCAATCCCCATAGCTTCCTCACTAAAAAACCCCGAATCACCCGTATCATAAATTACTCAATCCCCAAGCCCATTAAACTTAAAGATAATTTCTACTTCCTCTTCCTTCAACGCATAATAAACCATACAAAACTCCATTATTAAACCAGAAACAAATGCTCCAAAAACAGTCTTATTAGAAACTCAAACCTCAGGATACATCTCAGTAGCCATAGCAGTAGTATAACCAAAAACCACCAACATACCCCCCAAATAAATCAAAAACACCATTAAACCTAAAAAAGACCCACCAAAATTCAATACAATACCACAACCAACTCCACCACTTACAATCAACCCAAGTCCACCATAAATAGGAGAGGGCTTAGAAGAAAAACCAACAAACCCAATAACAAAAATAGTACTTAAAATAAATGCAATATACATTGTCATTATTCTCACATGGAATTTAACCACGACCAATGACATGAAAAATCATCGTTGTACTTCAACTACAAGAACCTTAATATGACCAACATCCGAAAATCACACCCACTAATAAAAATTATCAACAACGCATTCATTGACCTCCCAGCCCCCTCAAACATCTCATCATGATGAAACTTCGGTTCCCTCTTAGGCATCTGCCTAATCTTGCAAATCCTAACAGGCCTGTTCTTAGCAATACATTACACATCAGACACAACAACAGCTTTCTCATCAGTTACACACATTTGTCGAGACGTAAATTACGGATGAGTTATTCGCTATCTACATGCAAACGGAGCATCCATATTCTTTATTTGCCTATTCATCCACGTAGGCCGAGGTCTATACTACGGATCCTATATATTCCTAGAAACATGAAACATTGGAGTAGTCCTACTATTTACCGTTATAGCAACAGCCTTCATAGGCTACGTCCTGCCCTGAGGACAAATATCATTCTGAGGAGCTACGGTCATCACAAATCTACTATCAGCTATCCCTTATATCGGAACAGACCTCGTAGAATGAATCTGAGGGGGCTTTTCCGTCGACAAAGCAACCCTCACACGATTCTTCGCCTTCCACTTTATCCTGCCATTCATCATTACCGCCCTCGCAGCCGTACATCTCCTATTCCTGCACGAAACCGGATCCAACAACCCTACCGGAATCTCATCAGACATAGACAAAATTCCATTTCACCCATACTACACTATTAAAGACATTCTAGGAGCCTTATTTATAATACTAATCCTACTAATCCTTGTACTATTCTCACCAGACCTACTAGGAGACCCAGACAACTACACCCCAGCAAACCCACTAAACACCCCACCCCATATTAAACCAGAATGATATTTCTTATTCGCCTACGCTATTCTACGTTCAATTCCTAATAAACTAGGTGGAGTGTTGGCCCTAGTAGCCTCCATCCTAATCCTAATTTTAATGCCCATACTACACACATCCAAACAACGAAGCATAATATTTCGACCACTAAGTCAATGCCTATTCTGAATACTAGTAGCAGACCTCATTACACTAACATGAATTGGAGGACAACCCGTAGAACACCCGTTCATCATCATCGGCCAACTAGCCTCCATCTTATACTTCCTAATCATTCTAGTATTGATACCAATCACTAGCATCATCGAAAACAACCTATTAAAATGAAGAGTCTTCGTAGTATATAAAATACCCTGGTCTTGTAAACCAGAAAAGGAGGGCCACCCCTCCCCAAGACTCAAGGAAGGAGACTAACTCCGCCATCAGCACCCAAAGCTGAAATTCTAACTAAATTATTCCCTG'
p1096
sbsS'_per_letter_annotations'
p1097
g1
(cBio.SeqRecord
_RestrictedDict
p1098
c__builtin__
dict
p1099
(dtRp1100
(dp1101
S'_length'
p1102
I16613
sbsg113
S'NC_000845.1'
p1103
sS'name'
p1104
S'NC_000845'
p1105
sb.