ccopy_reg
_reconstructor
p1
(cBio.SeqRecord
SeqRecord
p2
c__builtin__
object
p3
NtRp4
(dp5
S'dbxrefs'
p6
(lp7
S'Project:11865 BioProject:PRJNA11865'
p8
asS'description'
p9
S'Pongo abelii mitochondrion, complete genome.'
p10
sS'annotations'
p11
(dp12
S'comment'
p13
S'REVIEWED REFSEQ: This record has been curated by NCBI staff. The\nreference sequence was derived from X97707.\nCOMPLETENESS: full length.'
p14
sS'sequence_version'
p15
I1
sS'source'
p16
S'mitochondrion Pongo abelii (Sumatran orangutan)'
p17
sS'taxonomy'
p18
(lp19
S'Eukaryota'
p20
aS'Metazoa'
p21
aS'Chordata'
p22
aS'Craniata'
p23
aS'Vertebrata'
p24
aS'Euteleostomi'
p25
aS'Mammalia'
p26
aS'Eutheria'
p27
aS'Euarchontoglires'
p28
aS'Primates'
p29
aS'Haplorrhini'
p30
aS'Catarrhini'
p31
aS'Hominidae'
p32
aS'Pongo'
p33
asS'keywords'
p34
(lp35
S''
asS'references'
p36
(lp37
g1
(cBio.SeqFeature
Reference
p38
g3
NtRp39
(dp40
g13
S''
sS'title'
p41
S'The mitochondrial DNA molecule of Sumatran orangutan and a molecular proposal for two (Bornean and Sumatran) species of orangutan'
p42
sS'consrtm'
p43
S''
sS'journal'
p44
S'J. Mol. Evol. 43 (5), 431-437 (1996)'
p45
sS'location'
p46
(lp47
g1
(cBio.SeqFeature
FeatureLocation
p48
g3
NtRp49
(dp50
S'ref'
p51
NsS'_end'
p52
g1
(cBio.SeqFeature
ExactPosition
p53
c__builtin__
int
p54
I16499
tRp55
sS'_start'
p56
g1
(g53
g54
I0
tRp57
sS'_strand'
p58
NsS'ref_db'
p59
NsbasS'pubmed_id'
p60
S'8875856'
p61
sS'authors'
p62
S'Xu,X. and Arnason,U.'
p63
sS'medline_id'
p64
S''
sbag1
(g38
g3
NtRp65
(dp66
g13
S''
sg41
S'Direct Submission'
p67
sg43
S'NCBI Genome Project'
p68
sg44
S'Submitted (11-FEB-2008) National Center for Biotechnology Information, NIH, Bethesda, MD 20894, USA'
p69
sg46
(lp70
g1
(g48
g3
NtRp71
(dp72
g51
Nsg52
g1
(g53
g54
I16499
tRp73
sg56
g1
(g53
g54
I0
tRp74
sg58
Nsg59
Nsbasg60
S''
sg62
S''
sg64
S''
sbag1
(g38
g3
NtRp75
(dp76
g13
S''
sg41
S'Direct Submission'
p77
sg43
S''
sg44
S'Submitted (09-MAY-1996) U. Arnason, University of Lund, Department of Genetics, Division of Evolutionary Molecular Systematics, Solvegatan 29, S-223 63 Lund, SWEDEN'
p78
sg46
(lp79
g1
(g48
g3
NtRp80
(dp81
g51
Nsg52
g1
(g53
g54
I16499
tRp82
sg56
g1
(g53
g54
I0
tRp83
sg58
Nsg59
Nsbasg60
S''
sg62
S'Arnason,U.'
p84
sg64
S''
sbasS'accessions'
p85
(lp86
S'NC_002083'
p87
asS'data_file_division'
p88
S'PRI'
p89
sS'date'
p90
S'01-FEB-2010'
p91
sS'organism'
p92
S'Pongo abelii'
p93
sS'gi'
p94
S'5835834'
p95
ssS'features'
p96
(lp97
g1
(cBio.SeqFeature
SeqFeature
p98
g3
NtRp99
(dp100
S'sub_features'
p101
(lp102
sS'location_operator'
p103
S''
sS'id'
p104
S'<unknown id>'
p105
sg46
g1
(g48
g3
NtRp106
(dp107
g51
Nsg52
g1
(g53
g54
I16499
tRp108
sg56
g1
(g53
g54
I0
tRp109
sg58
I1
sg59
NsbsS'type'
p110
S'source'
p111
sS'qualifiers'
p112
(dp113
S'sub_species'
p114
(lp115
S'abelii'
p116
asS'mol_type'
p117
(lp118
S'genomic DNA'
p119
asS'isolate'
p120
(lp121
S'YN93-312'
p122
asS'organelle'
p123
(lp124
S'mitochondrion'
p125
asS'db_xref'
p126
(lp127
S'taxon:9601'
p128
asS'organism'
p129
(lp130
S'Pongo abelii'
p131
assbag1
(g98
g3
NtRp132
(dp133
g101
(lp134
sg103
S''
sg104
g105
sg46
g1
(g48
g3
NtRp135
(dp136
g51
Nsg52
g1
(g53
g54
I71
tRp137
sg56
g1
(g53
g54
I0
tRp138
sg58
I1
sg59
Nsbsg110
S'tRNA'
p139
sg112
(dp140
S'product'
p141
(lp142
S'tRNA-Phe'
p143
assbag1
(g98
g3
NtRp144
(dp145
g101
(lp146
sg103
S''
sg104
g105
sg46
g1
(g48
g3
NtRp147
(dp148
g51
Nsg52
g1
(g53
g54
I1025
tRp149
sg56
g1
(g53
g54
I71
tRp150
sg58
I1
sg59
Nsbsg110
S'rRNA'
p151
sg112
(dp152
S'note'
p153
(lp154
S'12S ribosomal RNA'
p155
asS'product'
p156
(lp157
S's-rRNA'
p158
assbag1
(g98
g3
NtRp159
(dp160
g101
(lp161
sg103
S''
sg104
g105
sg46
g1
(g48
g3
NtRp162
(dp163
g51
Nsg52
g1
(g53
g54
I1094
tRp164
sg56
g1
(g53
g54
I1025
tRp165
sg58
I1
sg59
Nsbsg110
S'tRNA'
p166
sg112
(dp167
S'product'
p168
(lp169
S'tRNA-Val'
p170
assbag1
(g98
g3
NtRp171
(dp172
g101
(lp173
sg103
S''
sg104
g105
sg46
g1
(g48
g3
NtRp174
(dp175
g51
Nsg52
g1
(g53
g54
I2654
tRp176
sg56
g1
(g53
g54
I1094
tRp177
sg58
I1
sg59
Nsbsg110
S'rRNA'
p178
sg112
(dp179
S'note'
p180
(lp181
S'16S ribosomal RNA'
p182
asS'product'
p183
(lp184
S'l-rRNA'
p185
assbag1
(g98
g3
NtRp186
(dp187
g101
(lp188
sg103
S''
sg104
g105
sg46
g1
(g48
g3
NtRp189
(dp190
g51
Nsg52
g1
(g53
g54
I2729
tRp191
sg56
g1
(g53
g54
I2654
tRp192
sg58
I1
sg59
Nsbsg110
S'tRNA'
p193
sg112
(dp194
S'codon_recognized'
p195
(lp196
S'UUR'
p197
asS'product'
p198
(lp199
S'tRNA-Leu'
p200
assbag1
(g98
g3
NtRp201
(dp202
g101
(lp203
sg103
S''
sg104
g105
sg46
g1
(g48
g3
NtRp204
(dp205
g51
Nsg52
g1
(g53
g54
I3687
tRp206
sg56
g1
(g53
g54
I2731
tRp207
sg58
I1
sg59
Nsbsg110
S'gene'
p208
sg112
(dp209
S'db_xref'
p210
(lp211
S'GeneID:808473'
p212
asS'gene'
p213
(lp214
S'ND1'
p215
asS'gene_synonym'
p216
(lp217
S'NADH1'
p218
assbag1
(g98
g3
NtRp219
(dp220
g101
(lp221
sg103
S''
sg104
g105
sg46
g1
(g48
g3
NtRp222
(dp223
g51
Nsg52
g1
(g53
g54
I3687
tRp224
sg56
g1
(g53
g54
I2731
tRp225
sg58
I1
sg59
Nsbsg110
S'CDS'
p226
sg112
(dp227
S'product'
p228
(lp229
S'NADH dehydrogenase subunit 1'
p230
asS'transl_except'
p231
(lp232
S'(pos:3686..3687,aa:TERM)'
p233
asS'codon_start'
p234
(lp235
S'1'
asS'gene_synonym'
p236
(lp237
S'NADH1'
p238
asS'transl_table'
p239
(lp240
S'2'
asS'note'
p241
(lp242
S"TAA stop codon is completed by the addition of 3' A residues to the mRNA"
p243
asS'db_xref'
p244
(lp245
S'GI:5835835'
p246
aS'UniProtKB/Swiss-Prot:P92690'
p247
aS'GeneID:808473'
p248
asS'translation'
p249
(lp250
S'MPMINLLLLIMSILIAMAFLMLTERKILGHTQLRKGPNIVGPYGLLQPFADALKLFTKEPLKPSTSTITLYIISPALALTIALLLWTPLPMPIPLINLNLGLLFILAASSLTVYSILWSGWASNSNYALIGALRAVAQTISYEITLALILLSVLLMSGSFNLSALITTQEHSWLLLPSWPLALMWFISTLAETNRAPFDLTEGESELVSGFNTEYAAGPFALFFMAEYTNIILMNALTTMIFLGTTFNIHSPELYTTLFTIKTLLLTSLFLWIRSTYPRFRYDQLMHLLWKNFLPLTLALLMWHISVPIATSGIPPQT'
p251
asS'gene'
p252
(lp253
S'ND1'
p254
asS'protein_id'
p255
(lp256
S'NP_007835.1'
p257
assbag1
(g98
g3
NtRp258
(dp259
g101
(lp260
sg103
S''
sg104
g105
sg46
g1
(g48
g3
NtRp261
(dp262
g51
Nsg52
g1
(g53
g54
I3756
tRp263
sg56
g1
(g53
g54
I3687
tRp264
sg58
I1
sg59
Nsbsg110
S'tRNA'
p265
sg112
(dp266
S'product'
p267
(lp268
S'tRNA-Ile'
p269
assbag1
(g98
g3
NtRp270
(dp271
g101
(lp272
sg103
S''
sg104
g105
sg46
g1
(g48
g3
NtRp273
(dp274
g51
Nsg52
g1
(g53
g54
I3825
tRp275
sg56
g1
(g53
g54
I3753
tRp276
sg58
I-1
sg59
Nsbsg110
S'tRNA'
p277
sg112
(dp278
S'product'
p279
(lp280
S'tRNA-Gln'
p281
assbag1
(g98
g3
NtRp282
(dp283
g101
(lp284
sg103
S''
sg104
g105
sg46
g1
(g48
g3
NtRp285
(dp286
g51
Nsg52
g1
(g53
g54
I3894
tRp287
sg56
g1
(g53
g54
I3826
tRp288
sg58
I1
sg59
Nsbsg110
S'tRNA'
p289
sg112
(dp290
S'product'
p291
(lp292
S'tRNA-Met'
p293
assbag1
(g98
g3
NtRp294
(dp295
g101
(lp296
sg103
S''
sg104
g105
sg46
g1
(g48
g3
NtRp297
(dp298
g51
Nsg52
g1
(g53
g54
I4936
tRp299
sg56
g1
(g53
g54
I3894
tRp300
sg58
I1
sg59
Nsbsg110
S'gene'
p301
sg112
(dp302
S'db_xref'
p303
(lp304
S'GeneID:808478'
p305
asS'gene'
p306
(lp307
S'ND2'
p308
asS'gene_synonym'
p309
(lp310
S'NADH2'
p311
assbag1
(g98
g3
NtRp312
(dp313
g101
(lp314
sg103
S''
sg104
g105
sg46
g1
(g48
g3
NtRp315
(dp316
g51
Nsg52
g1
(g53
g54
I4936
tRp317
sg56
g1
(g53
g54
I3894
tRp318
sg58
I1
sg59
Nsbsg110
S'CDS'
p319
sg112
(dp320
S'product'
p321
(lp322
S'NADH dehydrogenase subunit 2'
p323
asS'transl_except'
p324
(lp325
S'(pos:4936,aa:TERM)'
p326
asS'codon_start'
p327
(lp328
S'1'
asS'gene_synonym'
p329
(lp330
S'NADH2'
p331
asS'transl_table'
p332
(lp333
S'2'
asS'note'
p334
(lp335
S"TAA stop codon is completed by the addition of 3' A residues to the mRNA"
p336
asS'db_xref'
p337
(lp338
S'GI:5835836'
p339
aS'UniProtKB/Swiss-Prot:P92691'
p340
aS'GeneID:808478'
p341
asS'translation'
p342
(lp343
S'MNPLAQPIIYPTIFTGTLITALSSHWFFAWLGLEMNMLAFIPVLTKKTSPRSTEAAIKYFLTQATASMILLMAILYNNMLSGQWTTTNTTNPYSSLMIVTALAMKLGMAPFHFWVPEVTQGVPLTSGLLLLTWQKLAPISIMYQMSSSVDTNILLTLSILSILVGGWGGLNQTQLRKILAYSSITHMGWMMAVLPYNPDITILNLIIYIILTTTAFLILDLNSSVTILMLTRTWNKLTWLMPLIPSTLLSLGGLPPLTGFLPKWAIIEEFAKNGNLITPTIMAIITLLNLYFYVRLIYATSITLLPMSNNAKMKWQFENTKPTPLLPTLTILTTLLLPISPLILSIS'
p344
asS'gene'
p345
(lp346
S'ND2'
p347
asS'protein_id'
p348
(lp349
S'NP_007836.1'
p350
assbag1
(g98
g3
NtRp351
(dp352
g101
(lp353
sg103
S''
sg104
g105
sg46
g1
(g48
g3
NtRp354
(dp355
g51
Nsg52
g1
(g53
g54
I5003
tRp356
sg56
g1
(g53
g54
I4936
tRp357
sg58
I1
sg59
Nsbsg110
S'tRNA'
p358
sg112
(dp359
S'product'
p360
(lp361
S'tRNA-Trp'
p362
assbag1
(g98
g3
NtRp363
(dp364
g101
(lp365
sg103
S''
sg104
g105
sg46
g1
(g48
g3
NtRp366
(dp367
g51
Nsg52
g1
(g53
g54
I5078
tRp368
sg56
g1
(g53
g54
I5009
tRp369
sg58
I-1
sg59
Nsbsg110
S'tRNA'
p370
sg112
(dp371
S'product'
p372
(lp373
S'tRNA-Ala'
p374
assbag1
(g98
g3
NtRp375
(dp376
g101
(lp377
sg103
S''
sg104
g105
sg46
g1
(g48
g3
NtRp378
(dp379
g51
Nsg52
g1
(g53
g54
I5152
tRp380
sg56
g1
(g53
g54
I5079
tRp381
sg58
I-1
sg59
Nsbsg110
S'tRNA'
p382
sg112
(dp383
S'product'
p384
(lp385
S'tRNA-Asn'
p386
assbag1
(g98
g3
NtRp387
(dp388
g101
(lp389
sg103
S''
sg104
g105
sg46
g1
(g48
g3
NtRp390
(dp391
g51
Nsg52
g1
(g53
g54
I5185
tRp392
sg56
g1
(g53
g54
I5152
tRp393
sg58
I1
sg59
Nsbsg110
S'rep_origin'
p394
sg112
(dp395
S'direction'
p396
(lp397
S'LEFT'
p398
assbag1
(g98
g3
NtRp399
(dp400
g101
(lp401
sg103
S''
sg104
g105
sg46
g1
(g48
g3
NtRp402
(dp403
g51
Nsg52
g1
(g53
g54
I5249
tRp404
sg56
g1
(g53
g54
I5182
tRp405
sg58
I-1
sg59
Nsbsg110
S'tRNA'
p406
sg112
(dp407
S'product'
p408
(lp409
S'tRNA-Cys'
p410
assbag1
(g98
g3
NtRp411
(dp412
g101
(lp413
sg103
S''
sg104
g105
sg46
g1
(g48
g3
NtRp414
(dp415
g51
Nsg52
g1
(g53
g54
I5315
tRp416
sg56
g1
(g53
g54
I5248
tRp417
sg58
I-1
sg59
Nsbsg110
S'tRNA'
p418
sg112
(dp419
S'product'
p420
(lp421
S'tRNA-Tyr'
p422
assbag1
(g98
g3
NtRp423
(dp424
g101
(lp425
sg103
S''
sg104
g105
sg46
g1
(g48
g3
NtRp426
(dp427
g51
Nsg52
g1
(g53
g54
I6884
tRp428
sg56
g1
(g53
g54
I5341
tRp429
sg58
I1
sg59
Nsbsg110
S'gene'
p430
sg112
(dp431
S'db_xref'
p432
(lp433
S'GeneID:808482'
p434
asS'gene'
p435
(lp436
S'COX1'
p437
asS'gene_synonym'
p438
(lp439
S'COI'
p440
assbag1
(g98
g3
NtRp441
(dp442
g101
(lp443
sg103
S''
sg104
g105
sg46
g1
(g48
g3
NtRp444
(dp445
g51
Nsg52
g1
(g53
g54
I6884
tRp446
sg56
g1
(g53
g54
I5341
tRp447
sg58
I1
sg59
Nsbsg110
S'CDS'
p448
sg112
(dp449
S'product'
p450
(lp451
S'cytochrome c oxidase subunit I'
p452
asS'transl_except'
p453
(lp454
S'(pos:6884,aa:TERM)'
p455
asS'codon_start'
p456
(lp457
S'1'
asS'gene_synonym'
p458
(lp459
S'COI'
p460
asS'transl_table'
p461
(lp462
S'2'
asS'note'
p463
(lp464
S"TAA stop codon is completed by the addition of 3' A residues to the mRNA"
p465
asS'db_xref'
p466
(lp467
S'GI:5835837'
p468
aS'UniProtKB/Swiss-Prot:P92692'
p469
aS'GeneID:808482'
p470
asS'translation'
p471
(lp472
S'MFADRWLFSTNHKDIGTLYLLFGAWAGVLGTALSLLIRAELGQPGNLLGNDHIYNVIVTAHAFVMIFFMVMPIMIGGFGNWLVPLMIGAPDMAFPRMNNMSFWLLPPSFLLLLASATVEAGAGTGWTVYPPLAGNYSHPGASVDLTIFSLHLAGISSILGAINFITTIINMKPPAMSQYQTPLFVWSVLITAVLLLLSLPVLAAGITMLLTDRNLNTTFFDPAGGGDPILYQHLFWFFGHPEVYILILPGFGMISHIVTHYSGKEEPFGYMGMVWAMVSIGFLGFIVWAHHMFTVGMDVDTRAYFTSATMIIAIPTGVKVFSWLATLHGSNTKWSAAILWALGFIFLFTVGGLTGIVLANSSLDIVLHDTYYVVAHFHYVLSMGAVFAIMGGFIHWFPLFSGYTLDQTYAKIHFITMFIGVNLTFFPQHFLGLSGMPRRYSDYPDAYTTWNILSSAGSFISLTAVMLMIFMIWEAFASKRKVPMVEQPSTSLEWLYGCPPPYHTFEEPVYMKPE'
p473
asS'gene'
p474
(lp475
S'COX1'
p476
asS'protein_id'
p477
(lp478
S'NP_007837.1'
p479
assbag1
(g98
g3
NtRp480
(dp481
g101
(lp482
sg103
S''
sg104
g105
sg46
g1
(g48
g3
NtRp483
(dp484
g51
Nsg52
g1
(g53
g54
I6952
tRp485
sg56
g1
(g53
g54
I6883
tRp486
sg58
I-1
sg59
Nsbsg110
S'tRNA'
p487
sg112
(dp488
S'codon_recognized'
p489
(lp490
S'UCN'
p491
asS'product'
p492
(lp493
S'tRNA-Ser'
p494
assbag1
(g98
g3
NtRp495
(dp496
g101
(lp497
sg103
S''
sg104
g105
sg46
g1
(g48
g3
NtRp498
(dp499
g51
Nsg52
g1
(g53
g54
I7022
tRp500
sg56
g1
(g53
g54
I6954
tRp501
sg58
I1
sg59
Nsbsg110
S'tRNA'
p502
sg112
(dp503
S'product'
p504
(lp505
S'tRNA-Asp'
p506
assbag1
(g98
g3
NtRp507
(dp508
g101
(lp509
sg103
S''
sg104
g105
sg46
g1
(g48
g3
NtRp510
(dp511
g51
Nsg52
g1
(g53
g54
I7706
tRp512
sg56
g1
(g53
g54
I7022
tRp513
sg58
I1
sg59
Nsbsg110
S'gene'
p514
sg112
(dp515
S'db_xref'
p516
(lp517
S'GeneID:808475'
p518
asS'gene'
p519
(lp520
S'COX2'
p521
asS'gene_synonym'
p522
(lp523
S'COII'
p524
assbag1
(g98
g3
NtRp525
(dp526
g101
(lp527
sg103
S''
sg104
g105
sg46
g1
(g48
g3
NtRp528
(dp529
g51
Nsg52
g1
(g53
g54
I7706
tRp530
sg56
g1
(g53
g54
I7022
tRp531
sg58
I1
sg59
Nsbsg110
S'CDS'
p532
sg112
(dp533
S'product'
p534
(lp535
S'cytochrome c oxidase subunit II'
p536
asS'codon_start'
p537
(lp538
S'1'
asS'gene_synonym'
p539
(lp540
S'COII'
p541
asS'transl_table'
p542
(lp543
S'2'
asS'db_xref'
p544
(lp545
S'GI:5835838'
p546
aS'UniProtKB/Swiss-Prot:P92693'
p547
aS'GeneID:808475'
p548
asS'translation'
p549
(lp550
S'MAHAAQVGLQDATSPIMEELVIFHDHALMIIFLICFLVLYALFLTLTTKLTNTSISDAQEMETIWTILPAIILILIALPSLRILYLTDEINDPSFTIKSIGHQWYWTYEYTDYGGLIFNSYMLPPLFLEPGDLRLLDVDNRVVLPVEAPVRMMITSQDVLHSWTVPSLGLKTDAIPGRLNQTTFTATRPGVYYGQCSEICGANHSFMPIVLELIPLKIFEMGPVFTL'
p551
asS'gene'
p552
(lp553
S'COX2'
p554
asS'protein_id'
p555
(lp556
S'NP_007838.1'
p557
assbag1
(g98
g3
NtRp558
(dp559
g101
(lp560
sg103
S''
sg104
g105
sg46
g1
(g48
g3
NtRp561
(dp562
g51
Nsg52
g1
(g53
g54
I7820
tRp563
sg56
g1
(g53
g54
I7750
tRp564
sg58
I1
sg59
Nsbsg110
S'tRNA'
p565
sg112
(dp566
S'product'
p567
(lp568
S'tRNA-Lys'
p569
assbag1
(g98
g3
NtRp570
(dp571
g101
(lp572
sg103
S''
sg104
g105
sg46
g1
(g48
g3
NtRp573
(dp574
g51
Nsg52
g1
(g53
g54
I8028
tRp575
sg56
g1
(g53
g54
I7821
tRp576
sg58
I1
sg59
Nsbsg110
S'gene'
p577
sg112
(dp578
S'db_xref'
p579
(lp580
S'GeneID:808474'
p581
asS'gene'
p582
(lp583
S'ATP8'
p584
asS'gene_synonym'
p585
(lp586
S'ATPase8'
p587
assbag1
(g98
g3
NtRp588
(dp589
g101
(lp590
sg103
S''
sg104
g105
sg46
g1
(g48
g3
NtRp591
(dp592
g51
Nsg52
g1
(g53
g54
I8028
tRp593
sg56
g1
(g53
g54
I7821
tRp594
sg58
I1
sg59
Nsbsg110
S'CDS'
p595
sg112
(dp596
S'product'
p597
(lp598
S'ATP synthase F0 subunit 8'
p599
asS'codon_start'
p600
(lp601
S'1'
asS'gene_synonym'
p602
(lp603
S'ATPase8'
p604
asS'transl_table'
p605
(lp606
S'2'
asS'db_xref'
p607
(lp608
S'GI:5835839'
p609
aS'UniProtKB/Swiss-Prot:P92694'
p610
aS'GeneID:808474'
p611
asS'translation'
p612
(lp613
S'MPQLNTTTWPTIITPMLLALFLITQLKLLNSHLHPPTPPKFTKPKLHAKPWGPKWTKVYLPHSLPPQY'
p614
asS'gene'
p615
(lp616
S'ATP8'
p617
asS'protein_id'
p618
(lp619
S'NP_007839.1'
p620
assbag1
(g98
g3
NtRp621
(dp622
g101
(lp623
sg103
S''
sg104
g105
sg46
g1
(g48
g3
NtRp624
(dp625
g51
Nsg52
g1
(g53
g54
I8663
tRp626
sg56
g1
(g53
g54
I7982
tRp627
sg58
I1
sg59
Nsbsg110
S'gene'
p628
sg112
(dp629
S'db_xref'
p630
(lp631
S'GeneID:808485'
p632
asS'gene'
p633
(lp634
S'ATP6'
p635
asS'gene_synonym'
p636
(lp637
S'ATPase6'
p638
assbag1
(g98
g3
NtRp639
(dp640
g101
(lp641
sg103
S''
sg104
g105
sg46
g1
(g48
g3
NtRp642
(dp643
g51
Nsg52
g1
(g53
g54
I8663
tRp644
sg56
g1
(g53
g54
I7982
tRp645
sg58
I1
sg59
Nsbsg110
S'CDS'
p646
sg112
(dp647
S'product'
p648
(lp649
S'ATP synthase F0 subunit 6'
p650
asS'codon_start'
p651
(lp652
S'1'
asS'gene_synonym'
p653
(lp654
S'ATPase6'
p655
asS'transl_table'
p656
(lp657
S'2'
asS'db_xref'
p658
(lp659
S'GI:5835840'
p660
aS'UniProtKB/Swiss-Prot:P92695'
p661
aS'GeneID:808485'
p662
asS'translation'
p663
(lp664
S'MNESLFTPFITPTVLGLPAAVLVILFPPLLIPTSKHLINNRLIIIQQWLIRLILKQMMTTHNAKGRTWSLMLTSLIIFIASTNLLGLLPYSFTPTTQLSMNLAMAIPLWASTVAMGLRFKAKITLTHLLPQGTPTPLIPMLIIIETVSLFIQPLALAVRLTANITAGHLLMHLIGSSALAMLAINLPLTLITLTILTLLTILETAIALIQAYVFTLLVSLYLHDNS'
p665
asS'gene'
p666
(lp667
S'ATP6'
p668
asS'protein_id'
p669
(lp670
S'NP_007840.1'
p671
assbag1
(g98
g3
NtRp672
(dp673
g101
(lp674
sg103
S''
sg104
g105
sg46
g1
(g48
g3
NtRp675
(dp676
g51
Nsg52
g1
(g53
g54
I9446
tRp677
sg56
g1
(g53
g54
I8662
tRp678
sg58
I1
sg59
Nsbsg110
S'gene'
p679
sg112
(dp680
S'db_xref'
p681
(lp682
S'GeneID:808480'
p683
asS'gene'
p684
(lp685
S'COX3'
p686
asS'gene_synonym'
p687
(lp688
S'COIII'
p689
assbag1
(g98
g3
NtRp690
(dp691
g101
(lp692
sg103
S''
sg104
g105
sg46
g1
(g48
g3
NtRp693
(dp694
g51
Nsg52
g1
(g53
g54
I9446
tRp695
sg56
g1
(g53
g54
I8662
tRp696
sg58
I1
sg59
Nsbsg110
S'CDS'
p697
sg112
(dp698
S'product'
p699
(lp700
S'cytochrome c oxidase subunit III'
p701
asS'transl_except'
p702
(lp703
S'(pos:9446,aa:TERM)'
p704
asS'codon_start'
p705
(lp706
S'1'
asS'gene_synonym'
p707
(lp708
S'COIII'
p709
asS'transl_table'
p710
(lp711
S'2'
asS'note'
p712
(lp713
S"TAA stop codon is completed by the addition of 3' A residues to the mRNA"
p714
asS'db_xref'
p715
(lp716
S'GI:5835841'
p717
aS'UniProtKB/Swiss-Prot:P92696'
p718
aS'GeneID:808480'
p719
asS'translation'
p720
(lp721
S'MAHQSHAYHMVKPSPWPLTGALSALLTTSGLTMWFHFHSTTLLLTGLLTNALTMYQWWRDVVRESTYQGHHTLPVQKGLRYGMILFITSEVFFFAGFFWAFYHSSLAPTPQLGGHWPPTGIIPLNPLEVPLLNTSVLLASGVSITWAHHSLMENNRTQMIQALLITILLGIYFTLLQASEYIEAPFTISDGIYGSTFFMATGFHGLHVIIGSTFLTVCLARQLLFHFTSKHHFGFEAAAWYWHFVDVVWLFLYVSIYWWGS'
p722
asS'gene'
p723
(lp724
S'COX3'
p725
asS'protein_id'
p726
(lp727
S'NP_007841.1'
p728
assbag1
(g98
g3
NtRp729
(dp730
g101
(lp731
sg103
S''
sg104
g105
sg46
g1
(g48
g3
NtRp732
(dp733
g51
Nsg52
g1
(g53
g54
I9514
tRp734
sg56
g1
(g53
g54
I9446
tRp735
sg58
I1
sg59
Nsbsg110
S'tRNA'
p736
sg112
(dp737
S'product'
p738
(lp739
S'tRNA-Gly'
p740
assbag1
(g98
g3
NtRp741
(dp742
g101
(lp743
sg103
S''
sg104
g105
sg46
g1
(g48
g3
NtRp744
(dp745
g51
Nsg52
g1
(g53
g54
I9860
tRp746
sg56
g1
(g53
g54
I9514
tRp747
sg58
I1
sg59
Nsbsg110
S'gene'
p748
sg112
(dp749
S'db_xref'
p750
(lp751
S'GeneID:808479'
p752
asS'gene'
p753
(lp754
S'ND3'
p755
asS'gene_synonym'
p756
(lp757
S'NADH3'
p758
assbag1
(g98
g3
NtRp759
(dp760
g101
(lp761
sg103
S''
sg104
g105
sg46
g1
(g48
g3
NtRp762
(dp763
g51
Nsg52
g1
(g53
g54
I9860
tRp764
sg56
g1
(g53
g54
I9514
tRp765
sg58
I1
sg59
Nsbsg110
S'CDS'
p766
sg112
(dp767
S'product'
p768
(lp769
S'NADH dehydrogenase subunit 3'
p770
asS'transl_except'
p771
(lp772
S'(pos:9860,aa:TERM)'
p773
asS'codon_start'
p774
(lp775
S'1'
asS'gene_synonym'
p776
(lp777
S'NADH3'
p778
asS'transl_table'
p779
(lp780
S'2'
asS'note'
p781
(lp782
S"TAA stop codon is completed by the addition of 3' A residues to the mRNA"
p783
asS'db_xref'
p784
(lp785
S'GI:5835842'
p786
aS'UniProtKB/Swiss-Prot:P92697'
p787
aS'GeneID:808479'
p788
asS'translation'
p789
(lp790
S'MNFVLALTVNTLLALLLMTITFWLPQLYPYMEKSDPYECGFDPAYPARIPFSMKFFLVAITFLLFDLEIALLLPLPWALQTTNLPLMTTSSLMLIIILALGLTYEWSQKGLDWAE'
p791
asS'gene'
p792
(lp793
S'ND3'
p794
asS'protein_id'
p795
(lp796
S'NP_007842.1'
p797
assbag1
(g98
g3
NtRp798
(dp799
g101
(lp800
sg103
S''
sg104
g105
sg46
g1
(g48
g3
NtRp801
(dp802
g51
Nsg52
g1
(g53
g54
I9925
tRp803
sg56
g1
(g53
g54
I9860
tRp804
sg58
I1
sg59
Nsbsg110
S'tRNA'
p805
sg112
(dp806
S'product'
p807
(lp808
S'tRNA-Arg'
p809
assbag1
(g98
g3
NtRp810
(dp811
g101
(lp812
sg103
S''
sg104
g105
sg46
g1
(g48
g3
NtRp813
(dp814
g51
Nsg52
g1
(g53
g54
I10222
tRp815
sg56
g1
(g53
g54
I9925
tRp816
sg58
I1
sg59
Nsbsg110
S'gene'
p817
sg112
(dp818
S'db_xref'
p819
(lp820
S'GeneID:808477'
p821
asS'gene'
p822
(lp823
S'ND4L'
p824
asS'gene_synonym'
p825
(lp826
S'NADH4L'
p827
assbag1
(g98
g3
NtRp828
(dp829
g101
(lp830
sg103
S''
sg104
g105
sg46
g1
(g48
g3
NtRp831
(dp832
g51
Nsg52
g1
(g53
g54
I10222
tRp833
sg56
g1
(g53
g54
I9925
tRp834
sg58
I1
sg59
Nsbsg110
S'CDS'
p835
sg112
(dp836
S'product'
p837
(lp838
S'NADH dehydrogenase subunit 4L'
p839
asS'codon_start'
p840
(lp841
S'1'
asS'gene_synonym'
p842
(lp843
S'NADH4L'
p844
asS'transl_table'
p845
(lp846
S'2'
asS'db_xref'
p847
(lp848
S'GI:5835843'
p849
aS'UniProtKB/Swiss-Prot:Q35585'
p850
aS'GeneID:808477'
p851
asS'translation'
p852
(lp853
S'MPLIYMNITLAFTMSLLGMLVYRSHLMSSLLCLEGMMLSLFIMITLMTLNTHSLLANIMPITMLVFAACEAAVGLALLASISNTYGLDYVNNLNLLQC'
p854
asS'gene'
p855
(lp856
S'ND4L'
p857
asS'protein_id'
p858
(lp859
S'NP_007843.1'
p860
assbag1
(g98
g3
NtRp861
(dp862
g101
(lp863
sg103
S''
sg104
g105
sg46
g1
(g48
g3
NtRp864
(dp865
g51
Nsg52
g1
(g53
g54
I11593
tRp866
sg56
g1
(g53
g54
I10215
tRp867
sg58
I1
sg59
Nsbsg110
S'gene'
p868
sg112
(dp869
S'db_xref'
p870
(lp871
S'GeneID:808481'
p872
asS'gene'
p873
(lp874
S'ND4'
p875
asS'gene_synonym'
p876
(lp877
S'NAD4'
p878
assbag1
(g98
g3
NtRp879
(dp880
g101
(lp881
sg103
S''
sg104
g105
sg46
g1
(g48
g3
NtRp882
(dp883
g51
Nsg52
g1
(g53
g54
I11593
tRp884
sg56
g1
(g53
g54
I10215
tRp885
sg58
I1
sg59
Nsbsg110
S'CDS'
p886
sg112
(dp887
S'product'
p888
(lp889
S'NADH dehydrogenase subunit 4'
p890
asS'transl_except'
p891
(lp892
S'(pos:11593,aa:TERM)'
p893
asS'codon_start'
p894
(lp895
S'1'
asS'gene_synonym'
p896
(lp897
S'NAD4'
p898
asS'transl_table'
p899
(lp900
S'2'
asS'note'
p901
(lp902
S"TAA stop codon is completed by the addition of 3' A residues to the mRNA"
p903
asS'db_xref'
p904
(lp905
S'GI:5835844'
p906
aS'UniProtKB/Swiss-Prot:P92698'
p907
aS'GeneID:808481'
p908
asS'translation'
p909
(lp910
S'MLKLIIPTIMLLPLTWLSKTHMIWINTTTHSLIISSIPLLFLNQTNSNLYSYSLLFSSDPLSTPLLMLTTWLLPLMIMASQHHLSNEPPSRKKLYLTMLISLQISLIMTFTATELIMFYILFETTLIPTLVIITRWGNQPERLNAGTYFLFYTLVGSLPLLIALIHTYNTLGSLNIVLLTLTARELTDSWSNSLMWLAYTMAFMVKMPLYGLHLWLPKAHVEAPIAGSMVLAAVLLKLGGYGMMRLIPILNPLTKHMAYPFIMLSLWGMIMTSSICLRQTDLKSLIAYSSVSHMALVVAAILIQTPWSFTGATTLMIAHGLTSSLLFCLANSNYERTHSRIMILSQGLQTLLPLMALWWLLASLTNLALPPTINLLGELSVLMAMFSWSNITILLTGLNMLITTLYSLYMFTTTQRGTPTHHTNNMKPSFTRENTLMLMHLSPILLLSLNPSIIAGFAY'
p911
asS'gene'
p912
(lp913
S'ND4'
p914
asS'protein_id'
p915
(lp916
S'NP_007844.1'
p917
assbag1
(g98
g3
NtRp918
(dp919
g101
(lp920
sg103
S''
sg104
g105
sg46
g1
(g48
g3
NtRp921
(dp922
g51
Nsg52
g1
(g53
g54
I11661
tRp923
sg56
g1
(g53
g54
I11593
tRp924
sg58
I1
sg59
Nsbsg110
S'tRNA'
p925
sg112
(dp926
S'product'
p927
(lp928
S'tRNA-His'
p929
assbag1
(g98
g3
NtRp930
(dp931
g101
(lp932
sg103
S''
sg104
g105
sg46
g1
(g48
g3
NtRp933
(dp934
g51
Nsg52
g1
(g53
g54
I11719
tRp935
sg56
g1
(g53
g54
I11661
tRp936
sg58
I1
sg59
Nsbsg110
S'tRNA'
p937
sg112
(dp938
S'codon_recognized'
p939
(lp940
S'AGY'
p941
asS'product'
p942
(lp943
S'tRNA-Ser'
p944
assbag1
(g98
g3
NtRp945
(dp946
g101
(lp947
sg103
S''
sg104
g105
sg46
g1
(g48
g3
NtRp948
(dp949
g51
Nsg52
g1
(g53
g54
I11790
tRp950
sg56
g1
(g53
g54
I11719
tRp951
sg58
I1
sg59
Nsbsg110
S'tRNA'
p952
sg112
(dp953
S'codon_recognized'
p954
(lp955
S'CUN'
p956
asS'product'
p957
(lp958
S'tRNA-Leu'
p959
assbag1
(g98
g3
NtRp960
(dp961
g101
(lp962
sg103
S''
sg104
g105
sg46
g1
(g48
g3
NtRp963
(dp964
g51
Nsg52
g1
(g53
g54
I13602
tRp965
sg56
g1
(g53
g54
I11796
tRp966
sg58
I1
sg59
Nsbsg110
S'gene'
p967
sg112
(dp968
S'db_xref'
p969
(lp970
S'GeneID:808484'
p971
asS'gene'
p972
(lp973
S'ND5'
p974
asS'gene_synonym'
p975
(lp976
S'NAD5'
p977
assbag1
(g98
g3
NtRp978
(dp979
g101
(lp980
sg103
S''
sg104
g105
sg46
g1
(g48
g3
NtRp981
(dp982
g51
Nsg52
g1
(g53
g54
I13602
tRp983
sg56
g1
(g53
g54
I11796
tRp984
sg58
I1
sg59
Nsbsg110
S'CDS'
p985
sg112
(dp986
S'product'
p987
(lp988
S'NADH dehydrogenase subunit 5'
p989
asS'codon_start'
p990
(lp991
S'1'
asS'gene_synonym'
p992
(lp993
S'NAD5'
p994
asS'transl_table'
p995
(lp996
S'2'
asS'db_xref'
p997
(lp998
S'GI:5835845'
p999
aS'GeneID:808484'
p1000
asS'translation'
p1001
(lp1002
S'MFTTMTALTLTSLIPPITATLINPNKKNSYPHYVKTAIASAFTISLIPTTMFICLGQETIVTNWCWTTTQTLQLSLSFKLDYFSMTFLPVALLITWSIMEFSLWYMASDPNINQFLKFLLIFLITMIILVTANNLLQLFIGWEGVGIMSFLLISWWYARTDANTAAIQAILYNRIGDIGFILALAWFLLHSNSWELQQVFLLNNNPNLLPLLGLLLAAAGKSAQLGLHPWLPSAMEGPTPVSALLHSSTMVVAGVFLLIRFHPLTENSPHIQTLTLCLGAITTLFAAICALTQNDIKKIVAFSTSSQLGLMMVTIGINQPHLALLHICTHAFFKALLFMCSGSIIHNLNNEQDIRKMGGLLKTMPLTSTSLTISSLALAGMPFLSGFYSKDLIIETANMSYTNTWALSITLIATSLTGAYSTRMILHTLTSKPHFPTPISINENNPTLLKPIKRLMLGSLFAGFLITNNIPPMSLPQVTTPPYLKLAALAATLLGLLVALDLNYLANKLKTKTPPPTFYFSIMLGFYPSIIHRMIPHLSLLMSQNLSLLLLDLTWLKKLMPKTISQHQTSASITISTQKGLIKLYFLSFLIPLLLILLMIS'
p1003
asS'gene'
p1004
(lp1005
S'ND5'
p1006
asS'protein_id'
p1007
(lp1008
S'NP_007845.1'
p1009
assbag1
(g98
g3
NtRp1010
(dp1011
g101
(lp1012
sg103
S''
sg104
g105
sg46
g1
(g48
g3
NtRp1013
(dp1014
g51
Nsg52
g1
(g53
g54
I14127
tRp1015
sg56
g1
(g53
g54
I13602
tRp1016
sg58
I-1
sg59
Nsbsg110
S'gene'
p1017
sg112
(dp1018
S'db_xref'
p1019
(lp1020
S'GeneID:808476'
p1021
asS'gene'
p1022
(lp1023
S'ND6'
p1024
asS'gene_synonym'
p1025
(lp1026
S'NADH6'
p1027
assbag1
(g98
g3
NtRp1028
(dp1029
g101
(lp1030
sg103
S''
sg104
g105
sg46
g1
(g48
g3
NtRp1031
(dp1032
g51
Nsg52
g1
(g53
g54
I14127
tRp1033
sg56
g1
(g53
g54
I13602
tRp1034
sg58
I-1
sg59
Nsbsg110
S'CDS'
p1035
sg112
(dp1036
S'product'
p1037
(lp1038
S'NADH dehydrogenase subunit 6'
p1039
asS'codon_start'
p1040
(lp1041
S'1'
asS'gene_synonym'
p1042
(lp1043
S'NADH6'
p1044
asS'transl_table'
p1045
(lp1046
S'2'
asS'db_xref'
p1047
(lp1048
S'GI:5835846'
p1049
aS'UniProtKB/Swiss-Prot:P92700'
p1050
aS'GeneID:808476'
p1051
asS'translation'
p1052
(lp1053
S'MTYALFLLSVILVMGFVGFSSKPSPIYGGLVLIISGAVGCAVILNCGGGYMGLMVFLIYLGGMMVVFGYTTAMAIEEYPEAWGSGVEVLVSVLVGLVMEVGLVLWVKEYDGVVVVVNFNSVGSWMIYEGEGSGLIREDPIGAGALYDYGRWLVVVTGWTLFVGVYVVIEIARGN'
p1054
asS'gene'
p1055
(lp1056
S'ND6'
p1057
asS'protein_id'
p1058
(lp1059
S'NP_007846.1'
p1060
assbag1
(g98
g3
NtRp1061
(dp1062
g101
(lp1063
sg103
S''
sg104
g105
sg46
g1
(g48
g3
NtRp1064
(dp1065
g51
Nsg52
g1
(g53
g54
I14196
tRp1066
sg56
g1
(g53
g54
I14127
tRp1067
sg58
I-1
sg59
Nsbsg110
S'tRNA'
p1068
sg112
(dp1069
S'product'
p1070
(lp1071
S'tRNA-Glu'
p1072
assbag1
(g98
g3
NtRp1073
(dp1074
g101
(lp1075
sg103
S''
sg104
g105
sg46
g1
(g48
g3
NtRp1076
(dp1077
g51
Nsg52
g1
(g53
g54
I15341
tRp1078
sg56
g1
(g53
g54
I14200
tRp1079
sg58
I1
sg59
Nsbsg110
S'gene'
p1080
sg112
(dp1081
S'db_xref'
p1082
(lp1083
S'GeneID:808483'
p1084
asS'gene'
p1085
(lp1086
S'CYTB'
p1087
asS'gene_synonym'
p1088
(lp1089
S'Cytochrome b'
p1090
assbag1
(g98
g3
NtRp1091
(dp1092
g101
(lp1093
sg103
S''
sg104
g105
sg46
g1
(g48
g3
NtRp1094
(dp1095
g51
Nsg52
g1
(g53
g54
I15341
tRp1096
sg56
g1
(g53
g54
I14200
tRp1097
sg58
I1
sg59
Nsbsg110
S'CDS'
p1098
sg112
(dp1099
S'product'
p1100
(lp1101
S'cytochrome b'
p1102
asS'transl_except'
p1103
(lp1104
S'(pos:15341,aa:TERM)'
p1105
asS'codon_start'
p1106
(lp1107
S'1'
asS'gene_synonym'
p1108
(lp1109
S'Cytochrome b'
p1110
asS'transl_table'
p1111
(lp1112
S'2'
asS'note'
p1113
(lp1114
S"TAA stop codon is completed by the addition of 3' A residues to the mRNA"
p1115
asS'db_xref'
p1116
(lp1117
S'GI:5835847'
p1118
aS'UniProtKB/Swiss-Prot:P92701'
p1119
aS'GeneID:808483'
p1120
asS'translation'
p1121
(lp1122
S'MTSTRKTNPLMKLINHSLIDLPTPSNISAWWNFGSLLGACLIIQITTGLFLAMHYSPDASTAFSSIAHITRDVNYGWMIRHLHANGASMFFICLFLHIGRGLYYGSFTHLETWNIGIILLFTTMMTAFMGYVLPWGQMSFWGATVITNLLSAIPYIGTDLVQWVWGGYSVNSPTLTRFFTLHFMLPFIITALTTLHLLFLHETGSNNPLGIPSHSDKITFHPYYTIKDILGLLLFLLALMTLTLLSPDLLSDPDNYTLANPLSTPPHIKPEWYFLFAYAILRSVPNKLGGVMALMLSILILTTIPALHMSKQQSMTFRPLSQFLYWLLIADLLILTWIGGQPVSYPFITISQVASTLYFTTILLLMPASSLIENHMLKWT'
p1123
asS'gene'
p1124
(lp1125
S'CYTB'
p1126
asS'protein_id'
p1127
(lp1128
S'NP_007847.1'
p1129
assbag1
(g98
g3
NtRp1130
(dp1131
g101
(lp1132
sg103
S''
sg104
g105
sg46
g1
(g48
g3
NtRp1133
(dp1134
g51
Nsg52
g1
(g53
g54
I15407
tRp1135
sg56
g1
(g53
g54
I15341
tRp1136
sg58
I1
sg59
Nsbsg110
S'tRNA'
p1137
sg112
(dp1138
S'product'
p1139
(lp1140
S'tRNA-Thr'
p1141
assbag1
(g98
g3
NtRp1142
(dp1143
g101
(lp1144
sg103
S''
sg104
g105
sg46
g1
(g48
g3
NtRp1145
(dp1146
g51
Nsg52
g1
(g53
g54
I15483
tRp1147
sg56
g1
(g53
g54
I15414
tRp1148
sg58
I-1
sg59
Nsbsg110
S'tRNA'
p1149
sg112
(dp1150
S'product'
p1151
(lp1152
S'tRNA-Pro'
p1153
assbag1
(g98
g3
NtRp1154
(dp1155
g101
(lp1156
sg103
S''
sg104
g105
sg46
g1
(g48
g3
NtRp1157
(dp1158
g51
Nsg52
g1
(g53
g54
I16499
tRp1159
sg56
g1
(g53
g54
I15483
tRp1160
sg58
I1
sg59
Nsbsg110
S'misc_feature'
p1161
sg112
(dp1162
S'note'
p1163
(lp1164
S'control region'
p1165
assbasS'_seq'
p1166
g1
(cBio.Seq
Seq
p1167
g3
NtRp1168
(dp1169
S'alphabet'
p1170
g1
(cBio.Alphabet.IUPAC
IUPACAmbiguousDNA
p1171
g3
NtRp1172
sS'_data'
p1173
S'GTTTATGTAGCTTATTCTATCCAAAGCAATGCACTGAAAATGTCTCGACGGGCCCACACGCCCCATAAACAAATAGGTTTGGTCCTAGCCTTTCTATTAGCTCTTAGTGAGGTTACACATGCAAGCATCCCCGCCCCAGTGAGTCGCCCTCCAAGTCACTCTGACTAAGAGGAGCAAGCATCAAGCACGCAACAGCGCAGCTCAAGACGCTCAGCCTAGCCACACCCCCACGGGAGACAGCAGTGATAAGTCTTTAGCAATAAACGAAAGTTCAACTAAGCTACACTAACCCCAGGGTTGGTCAACTTCGTGCCAGCCACCGCGGTCACACGATTAGCCCAAGTTAATAGAGATCGGCGTAGAGAGTGTTTTAGATTCTTTTTCTCCCCAATAAAGCTAAAATTTACCTGAGTTGTAGAAAACTTAAGCTAATACAAAATAAACTACGAAAGTGGCTTTAATATATCTGAACACACAATAGCTAAGGCCCAAACTGGGATTAGATACCCCACTATGCTTAGCCCTAAACTTTAACAGTTAAATCAACAAAACTGCTCGCCAGAACACTACGAGCCACAGCTTAAAACTCAAAGGACCTGGCGGTGCTTCATATCCCTCTAGAGGAGCCTGTTCTGTAATCGATAAACCCCGATCAACCTCACCACCCCTTGCTCAGCCTATATACCGCCATCTTCAGCAAACCCTGATGAAGGCCACGAAGTAAGCGCAAGCATCCACATAAAGACGTTAGGTCAAGGTGTAGCCCATGGAGTGGCAAGAAATGGGCTACATTTTCTACTTCAGAAAACTACGATAGCCCTCATGAAACCTGAGGGTCGAAGGTGGATTTAGCAGTAAACTAAGAGTAGAGTGCTTAGTTGAACAGGGCCCTGAAGCGCGTACACACCGCCCGTCACCCTCTTCAAGTATATTTCAGGGACTACCTAACTAAAACCCCCACGCATCTATATAGAGGAGGCAAGTCGTAACATGGTAAGCGTACTGGAAAGTGCGCTTGGACGAACCAGAGGGTAGCTTAACACAAAGCACCCGGCTTACACCTGGGAGATTTCAATTCAACCTGGCCCCTCTGAGCTAACCCTAGCCCCAAACCCAACCCACCCTACTACCAACCAACCCTAACCAAACCATTCACCCAAACAAAGTATAGGCGATAGAAATTACAATCCGGCGCAATAGACACAGTACCGTAAGGGAAAGATGAAAAAACACAACCAAGCACAACATAGCAAGGACTAACCCCTGTACCTTTTGCATAATGAATTAACTAGAAACAACTTTGCAAGGAGAGCCAAAGCCAAGACCCCCGAAACCAGACGAGCTACCCATAAACAGCTAAAAGAGCACACCCGTCTATGTAGCAAAATAGTGGGAAGATTTATGGGTAGAGGCGACAAACCTACCGAGCCTGGTGATAGCTGGTTGTCCAAGACAGAATCTTAGTTCAACTTTAAATTTACTTACAGAACCCCTAATCCCCTCGTAAATTTAATTGCTAGTCTAAAGAGGAACAGCTCTTTAGACACTAGGAAAAAACCTTAAAAAGAGAGTAAAAAACACAACACCCATAGTGGGCCCAAAAGCAGCCATCAATTAAGAAAGCGTTCAAGCTCGACACCTAAACACCAAAAAATACCAAACACAAAACTGAACTCCTTACTCCCCATTGGACTAATCTATTGCCCCATAGAAGAAACAATGTTAGTATAAGTAACATGAAGATATTCTCCCCCGCATAAGTCTACGTCAGACCGAAACATCACACTGACAATTAACGGTCCAATATGCATAGTTAACAAATAAACTATTATTTTTTCCCCCCGTTAATCCAACACAGGCATGCCTATAAGGAAAGGTTAAAAAAAGTAAAAGGAACTCGGCAAATCTCACCCCGCCTGTTTACCAAAAACATCACCTCTAGCATTACCAGTATTAGAGGCACCGCCTGCCCGGTGACATACGTTTAACGGCCGCGGTACCCTGACCGTGCAAAGGTAGCATAATCACTTGTTCCTTAAATGGGGACTTGTATGAATGGCTTCACGAGGGTTCGACTGTCTCTTACTTTTAACCAGTGAAATTGACCTGCCCGTGAAGAGGCGGGCATAACATAACAAGACGAGAAGACCCTATGGAGCTTCAATTTACCAGTGCAAATAACATACAACAAGCCCACAGGCCCTAAATCACCAAACCTGCACTGAAGATTTCGGTTGGGGCGACCTCGGAGCACAACCCAACCTCCGAGAAACACATGTTAAGACCTCACAAGTCAAAACGAACTTCCACACACAATTGATCCAACAACTTGACCAACGGAACAAGTTACCCTAGGGATAACAGCGCAATCCTGTTCTAGAGTCCATATCAACAACAGGGTTTACGACCTCGATGTTGGATCAGGACATCCTAATGGTGCAGCCGCTATTAAAGGTTCGTTTGTTCAACGATTAAAGTCCTACGTGATCTGAGTTCAGACCGGAGCAATCCAGGTCGGTTTCTATCTATTTCACATTTCTCCCTGTACGAAAGGACAAGAGAAATGGGGCCTACTTCACATAAGCGCCTTTCCCAAACAAATGATATCATCTCAATTTAACACCACACCAACACCCACCCAAGAAAAGGGCTATGTTAAGATGGCAGAGCCCGGTAACTGCATAAAATTTAAAGCTTTACAGTCAGAGGTTCAACTCCTCTTCTTAACAATATGCCCATAATCAACCTCCTACTCCTCATTATATCCATCCTAATCGCCATAGCATTTCTAATGCTAACCGAACGAAAAATCCTAGGCCACACACAACTACGCAAAGGGCCCAACATTGTGGGCCCCTACGGCTTACTACAACCCTTTGCCGACGCCCTAAAACTATTCACCAAAGAACCCCTAAAACCCTCCACATCAACCATCACCCTTTACATTATTTCCCCCGCCCTAGCCCTTACCATTGCCCTCCTACTATGAACCCCCCTCCCTATGCCCATCCCCCTAATCAACCTCAACTTAGGCCTCCTATTTATCCTAGCCGCGTCAAGCCTAACCGTCTACTCCATCCTCTGATCAGGATGAGCATCTAACTCAAACTACGCCCTAATCGGCGCATTGCGGGCGGTAGCCCAAACGATCTCATACGAAATTACCCTAGCCCTTATCCTGTTATCAGTACTACTAATAAGCGGCTCTTTTAACCTCTCCGCCCTCATCACAACACAAGAACACTCATGACTACTTCTACCATCATGACCTCTAGCCCTAATATGATTTATTTCAACACTAGCAGAAACCAACCGAGCCCCCTTCGACCTCACCGAAGGAGAATCCGAACTAGTTTCGGGCTTTAACACTGAATACGCCGCAGGTCCATTCGCCCTATTCTTCATAGCCGAATATACAAACATTATCTTAATAAACGCCCTCACCACTATAATTTTCCTAGGAACAACATTCAACATCCACTCCCCAGAACTCTACACAACCCTCTTCACCATCAAAACCCTACTCCTAACCTCCCTATTCCTATGAATTCGATCAACATACCCCCGATTCCGCTACGACCAACTCATGCACCTTCTATGAAAAAATTTCCTGCCACTCACCCTAGCACTACTAATATGACACATCTCCGTACCCATTGCAACCTCCGGCATTCCCCCACAAACCTAAGAAATATGTCTGACAAAAGAGTTACTTTGATAGAGTAAAAAATAGAGGTCTAAATCCCCTTATTTCTAGGATTATGGGAGTTGAACCCACCCCTGAGAATCCAAAATTCTCCGTGCCACCCATCACACCCTATCCTAAAGTAAGGTCAGCTAAATAAGCTATCGGGCCCATACCCCGAAAATGTTGGTTATACCCTTCCCGTACTAATTAACCCCTTGGCCCAACCCATCATTTACCCCACCATCTTCACAGGCACGCTCATTACAGCACTGAGCTCCCACTGATTCTTTGCCTGACTGGGACTAGAAATAAATATACTCGCTTTCATCCCAGTCCTAACCAAAAAAACAAGCCCCCGCTCCACAGAAGCCGCCATTAAATATTTCCTCACACAGGCAACCGCATCCATAATCCTCCTGATAGCCATCCTCTACAACAACATACTTTCCGGACAGTGAACCACAACCAACACCACCAACCCATATTCATCTCTAATAATCGTAACCGCCCTAGCAATGAAGCTAGGAATAGCCCCCTTCCACTTTTGAGTCCCAGAAGTCACCCAAGGAGTCCCCCTGACATCCGGCTTACTCCTCCTTACATGACAAAAATTAGCCCCCATTTCAATTATATACCAAATATCTTCATCGGTAGACACAAACATCCTCCTCACCCTCTCAATTCTATCTATCCTAGTAGGCGGCTGAGGCGGACTAAACCAAACCCAACTACGCAAAATCCTGGCATACTCCTCAATCACCCATATAGGATGAATAATAGCAGTACTACCATATAACCCAGACATCACTATCCTCAACCTAATCATCTACATCATCCTGACAACTACCGCATTCCTAATCCTCGACTTAAACTCTAGTGTCACAATCCTAATATTAACCCGCACCTGGAACAAGCTGACATGACTAATACCCTTAATCCCATCAACCTTATTATCCCTAGGGGGCCTGCCACCACTAACCGGCTTCCTGCCCAAATGAGCCATCATTGAAGAATTTGCAAAAAATGGCAATCTCATTACCCCCACAATCATGGCTATTATCACCCTCCTCAACCTCTACTTCTACGTACGCCTAATCTACGCCACCTCAATCACACTACTCCCCATATCTAACAACGCAAAAATGAAATGACAGTTCGAAAACACAAAACCCACCCCTCTTCTCCCCACACTCACCATTCTTACCACCCTACTCCTACCTATCTCCCCTCTCATCCTATCTATCTCATAGAAATTTAGGTTAACACAGACCAAGAGCCTTCAAAGCCCTCAGCAAGTCACAGCACTTAATTTCTGTAACACTAAGGACTGCAAAGCCCCGCTCTGCATCAACTGAACGCAAACCAGCCACTTTAATTAAGCTAAGCCCTCCCTAGACCGATGGGACTTAAACCCACAAACATTTAGTTAACAGCTAAACACCCTAATCAATTGGCTTCAGTCCACTTCTCCCGCCGCGGGGAAAAAGGCGGGAGAAGCCCCGGCAGGCCTTAAAGCTGCTCCTTCGAATTTGCAATTCAACATGACAATCACCTCGGGGCTGGTAAAAAGAGGTCTAACCCCTGTTCTTAGATTTACAGCCTAATGCCTTAACTCGGCCATTTTACCCCCCCCCCCCCTTTTTTTCTCCACTAATGTTCGCCGACCGCTGGCTATTCTCCACGAACCACAAAGACATCGGGACACTATACCTGTTATTCGGCGCATGGGCTGGAGTCCTAGGCACTGCCCTAAGCCTCCTCATTCGAGCTGAACTGGGCCAACCCGGCAACCTTCTAGGCAATGACCATATCTACAATGTCATCGTCACAGCTCATGCATTCGTAATAATTTTCTTTATAGTCATACCCATTATAATTGGAGGCTTTGGCAACTGACTAGTGCCCCTAATAATCGGCGCCCCCGATATAGCATTCCCGCGCATAAATAATATAAGCTTCTGACTCCTCCCCCCCTCCTTTCTCCTACTGCTCGCTTCTGCTACAGTAGAGGCTGGCGCAGGAACAGGCTGAACAGTCTATCCGCCCCTAGCAGGAAACTACTCTCACCCAGGAGCCTCTGTAGACTTAACAATCTTCTCTTTACACCTAGCAGGCATTTCCTCTATCCTAGGAGCTATCAATTTCATCACAACAATTATTAATATAAAACCCCCTGCAATATCCCAATACCAAACCCCCCTCTTCGTCTGATCAGTCTTGATCACAGCAGTCCTACTTCTCCTTTCCCTCCCAGTCCTAGCCGCTGGCATCACCATACTACTAACAGATCGCAACCTAAACACCACATTCTTTGACCCAGCCGGAGGTGGAGATCCCATCCTATATCAGCACCTATTCTGATTTTTTGGCCACCCTGAAGTCTACATTCTCATCCTGCCGGGTTTCGGCATAATCTCCCACATCGTAACACACTATTCCGGAAAAGAAGAGCCATTTGGGTACATAGGCATAGTCTGAGCCATAGTCTCAATTGGCTTCCTGGGCTTTATCGTATGGGCCCACCACATATTCACAGTAGGAATAGACGTGGACACACGAGCCTACTTCACCTCCGCTACCATAATCATTGCCATCCCCACCGGCGTCAAAGTATTTAGCTGACTCGCTACACTCCACGGAAGCAACACTAAATGATCTGCCGCAATCCTCTGAGCCTTAGGATTCATTTTCCTCTTCACCGTAGGCGGCCTAACAGGCATCGTACTAGCAAACTCATCACTAGACATTGTATTACACGATACATACTACGTTGTAGCCCACTTTCATTACGTCCTATCAATAGGAGCTGTATTCGCCATCATGGGAGGCTTCATCCACTGGTTCCCACTATTCTCAGGCTACACCTTAGACCAGACCTATGCTAAAATTCACTTCATCACCATATTTATCGGCGTAAATTTAACTTTCTTCCCACAACATTTCCTCGGCCTGTCAGGCATACCCCGACGCTACTCCGACTACCCCGACGCGTACACCACCTGAAATATTTTATCATCCGCAGGCTCATTTATCTCCCTAACAGCAGTCATACTAATAATTTTCATAATTTGAGAAGCCTTCGCCTCAAAACGAAAAGTCCCAATAGTTGAACAACCCTCCACAAGCCTAGAGTGATTGTACGGATGCCCCCCACCCTACCACACATTTGAAGAACCCGTCTATATAAAACCAGAACAAAAAAGGAAGGAATCGAACCTCCTAAAGCTGGTTTCAAGCCAACCCCACAACCTCCATGACTTTTTCAAGAGATACTAGAAAAACCATTTCATGACTTTGTCAAAGTTAAGTTACAGGCCAAACCCTGTGTATCTTAATGGCGCACGCAGCACAGGTAGGTTTACAAGACGCTACCTCTCCTATCATAGAAGAATTGGTCATCTTTCACGACCACGCCCTCATAATCATTTTCCTAATCTGCTTCCTAGTCCTGTACGCCCTATTCCTAACACTCACAACAAAACTCACCAACACCAGCATCTCAGACGCCCAAGAGATAGAGACTATTTGAACTATCCTACCGGCCATCATCCTAATTCTAATCGCCCTCCCATCCCTACGCATCCTCTACTTAACAGACGAGATCAACGACCCTTCCTTCACCATCAAATCAATCGGTCATCAATGATACTGAACCTACGAGTACACTGACTACGGTGGATTGATCTTCAACTCTTACATGCTCCCACCACTATTCCTAGAACCAGGCGACCTTCGACTCCTCGACGTCGACAACCGAGTAGTCCTCCCAGTCGAAGCTCCCGTTCGCATAATAATCACATCCCAAGACGTCTTACACTCATGAACTGTACCCTCACTAGGCCTGAAAACGGACGCAATCCCCGGACGCCTAAACCAAACCACATTCACTGCCACGCGACCAGGAGTGTACTATGGCCAATGCTCAGAAATCTGTGGAGCTAACCACAGCTTTATGCCTATCGTCCTAGAACTAATCCCCCTAAAAATCTTCGAAATAGGGCCCGTATTCACTTTATAACTTCCCCCACCCCCACAACCCATCCTACCCCCTTTCCTGAGGCCCACTGCAAAGCTAATCTAGCATTAACCTTTTAAGTTAAAGACTAAGAGAATCAACCCCTCTTTGCAGTGAAATGCCCCAACTAAATACCACCACATGGCCCACCATCATCACCCCAATACTCCTTGCACTATTCCTCATCACTCAACTAAAACTACTAAACTCACACCTCCACCCACCCACCCCACCAAAATTCACTAAACCAAAACTCCACGCCAAACCCTGAGGACCAAAATGAACGAAAGTCTATTTACCCCATTCATTACCCCCACAGTACTAGGCCTCCCCGCCGCAGTACTAGTCATCTTATTTCCCCCCTTACTGATCCCCACCTCCAAACATCTCATCAACAACCGACTAATTATTATCCAACAATGACTAATCCGACTCATCCTAAAACAAATAATAACCACCCATAACGCTAAAGGACGAACTTGATCCCTCATACTAACGTCCCTAATCATTTTCATCGCCTCAACCAACCTCCTAGGACTCCTCCCCTACTCATTTACACCAACCACCCAACTATCCATAAATTTAGCTATAGCAATTCCCTTATGAGCAAGCACGGTAGCTATGGGCCTTCGCTTCAAAGCCAAAATTACCCTAACCCACCTCTTACCACAAGGTACCCCCACACCTCTCATCCCTATACTAATTATTATTGAAACCGTCAGCCTTTTCATTCAACCACTAGCCTTAGCCGTACGCCTAACTGCTAACATCACTGCAGGCCACCTACTCATGCACCTAATCGGAAGCTCTGCACTAGCTATACTAGCCATCAACCTCCCCCTAACCCTCATCACCCTTACAATCTTAACCCTGCTAACAATCCTGGAGACTGCCATCGCCCTAATTCAAGCCTACGTCTTCACACTTCTAGTAAGCCTCTACCTGCACGACAACTCATAATGGCCCATCAATCACACGCCTACCACATAGTAAAACCTAGCCCATGACCCCTAACAGGAGCTCTCTCAGCCCTCCTAACAACATCTGGCCTAACCATGTGATTCCACTTCCACTCCACAACCCTACTATTAACAGGCCTACTAACCAATGCACTAACCATATACCAATGGTGACGAGATGTAGTGCGAGAAAGCACATACCAAGGCCACCACACACTACCCGTCCAAAAAGGCCTCCGATATGGAATAATCCTATTCATCACTTCAGAAGTCTTTTTCTTCGCCGGATTCTTCTGAGCATTCTACCACTCCAGCCTAGCCCCCACCCCTCAACTTGGAGGACACTGACCCCCAACAGGCATTATCCCCCTCAACCCCCTAGAAGTCCCACTCCTAAACACATCCGTACTACTCGCATCAGGAGTCTCAATTACCTGAGCCCATCACAGCCTGATGGAAAATAATCGAACCCAAATAATTCAAGCACTACTCATCACAATCTTACTAGGCATCTACTTCACTCTCCTTCAGGCTTCAGAATACATTGAAGCTCCTTTCACCATCTCTGACGGCATCTACGGCTCAACATTCTTCATAGCCACGGGATTCCACGGCCTCCACGTCATTATCGGATCAACTTTCCTCACTGTATGCCTAGCCCGCCAGCTATTATTCCACTTCACATCCAAACATCACTTTGGCTTTGAGGCCGCCGCCTGATACTGGCACTTTGTAGACGTAGTCTGACTGTTTCTGTACGTCTCCATCTACTGATGAGGTTCCTACTCTTTTAGTATAAACAGTACCGTTAACTTCCAATTAACTAGTTTTGACAACGCCCAAAAAAGAGTAATTAACTTCGTCCTAGCTCTAACAGTCAACACCCTCCTAGCCCTGCTACTAATAACCATCACATTCTGACTACCACAACTCTACCCCTACATAGAAAAATCCGACCCATACGAATGTGGATTTGACCCCGCATACCCCGCTCGCATTCCTTTCTCCATAAAATTTTTCTTAGTAGCCATCACCTTCCTACTATTCGACCTAGAAATCGCCCTGCTACTACCCCTGCCATGGGCCCTACAAACAACCAACTTACCACTAATAACTACATCATCACTTATATTAATTATCATCCTAGCCCTAGGCCTAACTTACGAATGATCACAAAAAGGATTAGACTGAGCCGAATTGGTAAATAGTTTAAACAAAACAAATGATTTCGACTCATTAAATTATGACAGCCATATTTACCAAATGCCCCTTATCTACATAAATATCACACTAGCATTCACCATATCACTCCTAGGCATACTAGTCTACCGCTCACACCTAATATCTTCTCTACTATGTCTAGAAGGAATAATATTATCATTGTTCATTATAATTACTCTCATAACCCTCAACACCCACTCTCTCCTAGCTAACATCATACCCATCACCATGCTAGTCTTCGCTGCCTGCGAAGCAGCAGTAGGCCTCGCCCTACTAGCCTCAATCTCCAATACATACGGCCTAGACTACGTCAACAACCTAAACCTACTTCAATGCTAAAACTAATTATCCCAACAATCATACTGCTGCCCCTAACATGACTCTCCAAAACGCACATAATCTGAATCAACACCACCACCCACAGCCTAATCATCAGCTCCATCCCCCTACTATTCCTCAATCAAACCAACAGCAACCTGTACAGCTACTCCCTTCTTTTCTCCTCCGACCCCTTATCAACCCCCCTTCTAATACTAACAACCTGACTCCTACCCCTCATAATTATAGCAAGCCAACACCATCTATCCAACGAACCCCCATCACGAAAAAAATTATACCTCACCATACTAATCTCTCTTCAAATCTCCCTAATCATAACATTCACAGCCACAGAGCTAATTATATTTTATATCCTCTTCGAAACCACTCTCATCCCCACCCTAGTCATTATCACCCGCTGAGGCAACCAGCCAGAGCGCTTAAATGCAGGCACATACTTTCTATTCTACACACTAGTAGGCTCCCTCCCCCTACTCATTGCCCTAATCCACACCTACAACACCCTAGGCTCGCTTAACATTGTATTACTAACTCTCACCGCCCGGGAGCTAACAGACTCCTGATCCAACAGCCTAATATGACTAGCGTACACAATAGCTTTCATAGTAAAAATACCCCTCTACGGACTACACCTATGACTCCCTAAAGCCCATGTAGAAGCCCCCATTGCCGGCTCAATAGTACTCGCCGCAGTGCTCTTAAAACTAGGTGGTTACGGTATAATACGCCTTATCCCCATTCTCAATCCCCTAACTAAACACATAGCCTACCCCTTTATCATACTATCCCTATGAGGCATAATCATAACAAGCTCCATCTGCTTACGACAAACCGACCTAAAATCACTCATCGCATACTCCTCAGTCAGCCACATAGCGCTTGTTGTAGCAGCTATCCTCATTCAAACCCCCTGAAGCTTCACCGGCGCAACCACCCTCATAATTGCCCATGGACTCACATCCTCCCTACTGTTCTGCCTAGCAAACTCAAACTACGAACGAACCCACAGCCGCATCATAATCCTCTCTCAAGGCCTTCAAACTCTACTCCCCCTAATAGCCCTCTGATGACTTCTAGCAAGCCTCACTAACCTTGCCCTACCACCCACCATCAACCTACTAGGAGAACTCTCCGTACTAATAGCCATATTCTCTTGATCTAACATCACCATCCTACTAACAGGACTCAACATACTAATCACAACCCTATACTCTCTCTATATATTCACCACAACACAACGAGGTACACCCACACATCACACCAACAACATAAAACCTTCTTTCACACGTGAAAACACCCTCATGCTCATACACCTATCCCCCATTCTCCTCTTGTCCCTCAACCCCAGCATCATCGCTGGATTCGCCTACTGTAAATATAGTTTAACCAAAACATCAGATTGTGAATCTAATAATAGGGCCCACAACCCCTTATTTACCGAGAAAGCTCACAAGAACTGCTAACTCTCACCCCATGTGTAACAACATGGCTTTCTCAACTTTTAAAGGATAACAGCTATCCCTTGGTCTTAGGACCCAAAAATTTTGGTGCAACTCCAAATAAAAGTAACAGCCATGTTTACCACCATAACTGCCCTCACCTTGACTTCCCTAATCCCCCCCATTACCGCTACCCTCATTAACCCCAACAAAAAAAACTCATACCCCCACTATGTAAAAACTGCCATCGCATCCGCCTTTACTATCAGCCTTATCCCAACAACAATATTTATCTGCCTAGGACAAGAAACCATCGTCACAAACTGATGCTGAACAACCACCCAGACACTACAACTCTCACTAAGCTTCAAACTTGACTACTTCTCCATAACATTCCTCCCCGTAGCACTACTCATCACTTGATCCATTATAGAATTTTCACTATGGTATATAGCCTCAGACCCAAACATCAACCAATTTCTCAAATTCCTCCTTATTTTCCTAATCACCATAATTATCCTAGTCACTGCCAATAACCTACTCCAACTCTTCATCGGCTGAGAGGGCGTAGGGATCATATCCTTCCTGCTCATTAGTTGATGATACGCCCGAACAGACGCCAACACGGCAGCTATTCAAGCAATCCTATACAATCGTATCGGCGATATTGGCTTCATCCTGGCTCTAGCATGATTCCTCCTACACTCCAACTCATGGGAACTACAACAAGTATTCCTCCTAAACAATAACCCTAACCTCCTCCCACTACTAGGACTCCTCCTAGCCGCAGCTGGCAAATCAGCCCAACTAGGCCTTCACCCCTGACTACCCTCAGCCATAGAAGGCCCAACCCCCGTCTCAGCCCTACTTCACTCAAGCACCATGGTCGTGGCTGGGGTCTTCCTACTCATCCGCTTTCACCCATTAACAGAAAACAGCCCACATATCCAAACCCTTACACTATGCTTAGGGGCCATCACCACCCTGTTCGCAGCAATCTGCGCCCTCACACAAAACGACATTAAGAAAATCGTAGCTTTCTCCACCTCAAGTCAACTAGGACTTATAATGGTCACAATTGGCATTAACCAGCCACACCTGGCACTCCTCCACATCTGCACCCACGCCTTCTTCAAAGCCCTTTTATTCATATGTTCTGGGTCCATCATCCACAACCTCAACAATGAGCAAGACATCCGAAAAATAGGAGGACTACTCAAAACCATACCCCTAACCTCAACCTCCCTCACTATCAGCAGCCTAGCCCTCGCAGGAATACCCTTCCTCTCAGGCTTCTACTCCAAAGACCTCATTATCGAGACCGCAAACATATCCTATACCAACACCTGAGCCCTGTCTATCACTCTCATCGCCACCTCCTTAACAGGCGCCTACAGCACTCGAATAATCCTCCACACCCTTACAAGCAAACCCCACTTCCCAACCCCAATCTCTATCAATGAAAACAACCCCACTCTACTTAAACCCATCAAGCGCCTTATGCTAGGAAGCCTATTCGCAGGATTCCTAATCACCAACAACATCCCCCCTATATCCCTGCCCCAAGTAACAACCCCCCCTTACCTAAAACTCGCAGCTCTAGCTGCCACCCTCCTAGGTCTCCTAGTAGCCCTAGACTTAAACTACCTAGCCAACAAACTCAAGACAAAAACCCCTCCACCCACATTCTATTTCTCCATCATACTCGGATTCTACCCTAGCATCATCCACCGCATAATCCCCCACCTAAGCCTTCTCATAAGCCAAAACTTATCCCTACTCCTACTAGACCTAACCTGACTAAAAAAACTAATACCCAAAACAATCTCACAACACCAAACCTCAGCCTCCATCACTATTTCAACCCAAAAAGGTTTAATCAAACTCTACTTCCTCTCTTTCCTCATCCCACTCCTCCTAATCCTCCTTATAATCTCATAACCTATTACCCCGAGCAATCTCAATTACAACATAAACACCAACAAATAACGTTCAACCAGTAACCACCACCAACCAACGCCCATAATCATATAAAGCCCCCGCACCAATAGGATCCTCCCGAATCAACCCCGACCCTTCCCCTTCATAAATTATCCAGCTCCCCACGCTATTAAAATTCACCACTACCACCACTCCATCATACTCTTTTACCCACAACACCAGCCCCACTTCCATCACTAATCCCACCAGAACACTCACCAATACCTCAACCCCTGACCCCCATGCCTCAGGATATTCCTCAATAGCTATTGCCGTAGTATACCCAAAAACAACCATCATACCCCCTAAATAAATTAAAAAAACCATTAAACCCATATAACCTCCCCCACAATTTAAAATAACTGCACACCCAACCGCACCACTAATAATCAACACTAAACCCCCATAAATAGGAGAGGGCTTAGAAGAAAACCCCACGAACCCTATCACTAAAATTACACTCAACAGAAACAAAGCATATGTCATTGTTCTCGCATAGACTGTGACTATGACCAATGGTATGAAAAAACATCGTTGTACCTCAACTACAAGAACACTAATGACCTCAACACGTAAAACCAACCCACTAATAAAATTAATCAACCACTCACTTATCGACCTCCCCACCCCATCAAACATCTCCGCATGATGGAACTTCGGCTCACTCCTAGGCGCCTGCTTAATCATCCAAATCACCACTGGACTATTCCTAGCTATACATTATTCACCAGACGCCTCCACTGCCTTTTCATCAATCGCCCACATCACTCGAGATGTAAACTACGGCTGAATAATTCGCCACCTCCACGCTAACGGCGCCTCAATATTCTTTATCTGCCTCTTCTTACATATCGGCCGAGGCCTATACTATGGCTCATTCACCCACCTAGAAACCTGAAACATCGGCATCATCCTACTATTTACAACTATAATAACAGCCTTCATAGGTTACGTCCTCCCATGAGGCCAAATATCCTTCTGAGGAGCCACAGTAATCACAAATCTACTGTCCGCCATCCCATACATTGGAACAGACCTGGTCCAATGAGTCTGAGGTGGCTACTCAGTAAATAGCCCCACTCTAACACGATTCTTCACCCTACACTTCATACTACCCTTCATTATTACAGCCCTAACAACTCTACACCTCTTATTCCTACACGAAACAGGATCAAATAACCCCCTGGGAATCCCCTCCCATTCCGACAAAATCACCTTCCACCCCTACTACACAATCAAAGACATCCTAGGCCTACTCCTTTTTCTCCTCGCCCTAATAACACTAACACTACTCTCACCAGACCTCCTAAGCGACCCAGACAACTACACCTTAGCTAACCCCCTAAGCACCCCACCCCACATTAAACCCGAATGATATTTCCTATTCGCCTACGCAATCCTACGATCCGTCCCCAACAAACTAGGAGGTGTAATAGCCCTCATACTATCCATCCTAATCCTAACAACAATCCCTGCCCTTCACATGTCCAAGCAACAGAGCATAACATTTCGCCCATTGAGCCAATTCCTATATTGACTTTTAATCGCCGACCTTCTAATTCTCACCTGAATTGGAGGGCAACCAGTAAGCTACCCCTTCATCACCATTAGCCAAGTAGCATCCACATTGTACTTCACTACTATCCTTCTACTTATACCAGCCTCTTCCCTGATCGAAAACCACATACTCAAATGAACCTGCCCCTGTAGTACAAATAAGTACACCAGCCTTGTAACCTGAAAATGAAGACCCTCTTCCATGGGCAAAAAAAATCAGAGAAAAAGCACTTAACTTCACCGTCAGCCCCCAAAGCCAACATTCTAATTTTAAACTACTCTCTGTTCTTTCATGGGGGACCAGATTTGGGTGCCACCCCAGTACTGACCCATTTCTAACGGCCTATGTATTTCGTACATTCCTGCTAGCCAACATGAATATCACCCAACACAACAATCGCTTAACCAACTATAATGCATACAAAACTCCAACCACACTCGACCTCCACACCCCGCTTACAAGCAAGTACCCCCCCATGCCCCCCCACCCAAACACATACACCGATCTCTCCACATAACCCCTCAACCCCCAGCATATCAACAGACCAAACAAACCTTAAAGTACATAGCACATACTATCCTAACCGCACATAGCACATCCCGTTAAAACCCTGCTCATCCCCACGGATGCCCCCCCTCAGTTAGTAATCCCTTACTCACCATCCTCCGTGAAATCAATATCCCGCACAAGAGTGCTACTCCCCTCGCTCCGGGCCCATAAAACCTGGGGGTAGCTAAAGTGAGCTGTATCCGGCATCTGGTTCTTACTTCAGGGCCATAAAACCCAAGATCGCCCACACGTTCCCCTTAAATAAGACATCACGATGGATCACAGGCCTATCACCCTATTAATCACTCACGGGAGCTCTCCATGCATCTGGTATTTTTTCGGGGGGGGATGCACGCGATAGCATCGCGGGCCGCTGGAACCGGAGCACCCTATGTCGCAGGATCTGTCTTTGATTCCTACCTCATGCCATTATTAATCGCGCCTAATATCCAATATCCTAGCCCCACCCTCAGTGTTTGAAGCTGCTATTTAATTTATGCTAGAGGACATAAAATTACCAAAAAAAAATAAACGAACTCTCAACAACCCTACCCCATCAACCCAACAAAATCCAATTTTTATCTTTAGGCTATGTGCACTTTCAACAGGCACCCCTCAACTAACACAATCTCCTTCTTATCCCACCCACCAACCCCCCCCCCCCCTTCCTCCCTCTTTCTCCATTTTCCCCACAAACACCGCTACTACCCCCACACCCCAGACCAACCCAACCCAAAAGACACCCCGCACG'
p1174
sbsS'_per_letter_annotations'
p1175
g1
(cBio.SeqRecord
_RestrictedDict
p1176
c__builtin__
dict
p1177
(dtRp1178
(dp1179
S'_length'
p1180
I16499
sbsg104
S'NC_002083.1'
p1181
sS'name'
p1182
S'NC_002083'
p1183
sb.