ccopy_reg
_reconstructor
p1
(cBio.SeqRecord
SeqRecord
p2
c__builtin__
object
p3
NtRp4
(dp5
S'dbxrefs'
p6
(lp7
S'Project:13290 BioProject:PRJNA13290'
p8
asS'description'
p9
S'Carassius auratus auratus mitochondrion, complete genome.'
p10
sS'annotations'
p11
(dp12
S'comment'
p13
S'REVIEWED REFSEQ: This record has been curated by NCBI staff. The\nreference sequence was derived from AB111951.\nCOMPLETENESS: full length.'
p14
sS'sequence_version'
p15
I1
sS'source'
p16
S'mitochondrion Carassius auratus auratus (goldfish)'
p17
sS'taxonomy'
p18
(lp19
S'Eukaryota'
p20
aS'Metazoa'
p21
aS'Chordata'
p22
aS'Craniata'
p23
aS'Vertebrata'
p24
aS'Euteleostomi'
p25
aS'Actinopterygii'
p26
aS'Neopterygii'
p27
aS'Teleostei'
p28
aS'Ostariophysi'
p29
aS'Cypriniformes'
p30
aS'Cyprinidae'
p31
aS'Carassius'
p32
asS'keywords'
p33
(lp34
S''
asS'references'
p35
(lp36
g1
(cBio.SeqFeature
Reference
p37
g3
NtRp38
(dp39
g13
S''
sS'title'
p40
S'Direct Submission'
p41
sS'consrtm'
p42
S'NCBI Genome Project'
p43
sS'journal'
p44
S'Submitted (31-DEC-2004) National Center for Biotechnology Information, NIH, Bethesda, MD 20894, USA'
p45
sS'location'
p46
(lp47
g1
(cBio.SeqFeature
FeatureLocation
p48
g3
NtRp49
(dp50
S'ref'
p51
NsS'_end'
p52
g1
(cBio.SeqFeature
ExactPosition
p53
c__builtin__
int
p54
I16580
tRp55
sS'_start'
p56
g1
(g53
g54
I0
tRp57
sS'_strand'
p58
NsS'ref_db'
p59
NsbasS'pubmed_id'
p60
S''
sS'authors'
p61
S''
sS'medline_id'
p62
S''
sbag1
(g37
g3
NtRp63
(dp64
g13
S''
sg40
S'Direct Submission'
p65
sg42
S''
sg44
S'Submitted (09-JUN-2003) Azabu University School of Veterinary Medicine, Laboratory of Molecular Biology; 1-17-71 Fuchinobe, Sagamihara, Kanagawa, 229-8501, Japan'
p66
sg46
(lp67
g1
(g48
g3
NtRp68
(dp69
g51
Nsg52
g1
(g53
g54
I16580
tRp70
sg56
g1
(g53
g54
I0
tRp71
sg58
Nsg59
Nsbasg60
S''
sg61
S'Murakami,M. and Takase,Y.'
p72
sg62
S''
sbasS'accessions'
p73
(lp74
S'NC_006580'
p75
asS'data_file_division'
p76
S'VRT'
p77
sS'date'
p78
S'01-FEB-2010'
p79
sS'organism'
p80
S'Carassius auratus auratus'
p81
sS'gi'
p82
S'56912167'
p83
ssS'features'
p84
(lp85
g1
(cBio.SeqFeature
SeqFeature
p86
g3
NtRp87
(dp88
S'sub_features'
p89
(lp90
sS'location_operator'
p91
S''
sS'id'
p92
S'<unknown id>'
p93
sg46
g1
(g48
g3
NtRp94
(dp95
g51
Nsg52
g1
(g53
g54
I16580
tRp96
sg56
g1
(g53
g54
I0
tRp97
sg58
I1
sg59
NsbsS'type'
p98
S'source'
p99
sS'qualifiers'
p100
(dp101
S'sub_species'
p102
(lp103
S'auratus'
p104
asS'mol_type'
p105
(lp106
S'genomic DNA'
p107
asS'db_xref'
p108
(lp109
S'taxon:145527'
p110
asS'organelle'
p111
(lp112
S'mitochondrion'
p113
asS'strain'
p114
(lp115
S'Wakin'
p116
asS'common'
p117
(lp118
S'goldfish'
p119
asS'organism'
p120
(lp121
S'Carassius auratus auratus'
p122
assbag1
(g86
g3
NtRp123
(dp124
g89
(lp125
sg91
S''
sg92
g93
sg46
g1
(g48
g3
NtRp126
(dp127
g51
Nsg52
g1
(g53
g54
I923
tRp128
sg56
g1
(g53
g54
I0
tRp129
sg58
I1
sg59
Nsbsg98
S'D-loop'
p130
sg100
(dp131
sbag1
(g86
g3
NtRp132
(dp133
g89
(lp134
sg91
S''
sg92
g93
sg46
g1
(g48
g3
NtRp135
(dp136
g51
Nsg52
g1
(g53
g54
I992
tRp137
sg56
g1
(g53
g54
I923
tRp138
sg58
I1
sg59
Nsbsg98
S'tRNA'
p139
sg100
(dp140
S'product'
p141
(lp142
S'tRNA-Phe'
p143
assbag1
(g86
g3
NtRp144
(dp145
g89
(lp146
sg91
S''
sg92
g93
sg46
g1
(g48
g3
NtRp147
(dp148
g51
Nsg52
g1
(g53
g54
I1946
tRp149
sg56
g1
(g53
g54
I992
tRp150
sg58
I1
sg59
Nsbsg98
S'rRNA'
p151
sg100
(dp152
S'product'
p153
(lp154
S's-rRNA'
p155
assbag1
(g86
g3
NtRp156
(dp157
g89
(lp158
sg91
S''
sg92
g93
sg46
g1
(g48
g3
NtRp159
(dp160
g51
Nsg52
g1
(g53
g54
I2018
tRp161
sg56
g1
(g53
g54
I1946
tRp162
sg58
I1
sg59
Nsbsg98
S'tRNA'
p163
sg100
(dp164
S'product'
p165
(lp166
S'tRNA-Val'
p167
assbag1
(g86
g3
NtRp168
(dp169
g89
(lp170
sg91
S''
sg92
g93
sg46
g1
(g48
g3
NtRp171
(dp172
g51
Nsg52
g1
(g53
g54
I3699
tRp173
sg56
g1
(g53
g54
I2018
tRp174
sg58
I1
sg59
Nsbsg98
S'rRNA'
p175
sg100
(dp176
S'product'
p177
(lp178
S'l-rRNA'
p179
assbag1
(g86
g3
NtRp180
(dp181
g89
(lp182
sg91
S''
sg92
g93
sg46
g1
(g48
g3
NtRp183
(dp184
g51
Nsg52
g1
(g53
g54
I3777
tRp185
sg56
g1
(g53
g54
I3699
tRp186
sg58
I1
sg59
Nsbsg98
S'tRNA'
p187
sg100
(dp188
S'codon_recognized'
p189
(lp190
S'UUR'
p191
asS'product'
p192
(lp193
S'tRNA-Leu'
p194
assbag1
(g86
g3
NtRp195
(dp196
g89
(lp197
sg91
S''
sg92
g93
sg46
g1
(g48
g3
NtRp198
(dp199
g51
Nsg52
g1
(g53
g54
I4752
tRp200
sg56
g1
(g53
g54
I3777
tRp201
sg58
I1
sg59
Nsbsg98
S'gene'
p202
sg100
(dp203
S'db_xref'
p204
(lp205
S'GeneID:3200571'
p206
asS'gene'
p207
(lp208
S'ND1'
p209
assbag1
(g86
g3
NtRp210
(dp211
g89
(lp212
sg91
S''
sg92
g93
sg46
g1
(g48
g3
NtRp213
(dp214
g51
Nsg52
g1
(g53
g54
I4752
tRp215
sg56
g1
(g53
g54
I3777
tRp216
sg58
I1
sg59
Nsbsg98
S'CDS'
p217
sg100
(dp218
S'product'
p219
(lp220
S'NADH dehydrogenase subunit 1'
p221
asS'codon_start'
p222
(lp223
S'1'
asS'transl_table'
p224
(lp225
S'2'
asS'db_xref'
p226
(lp227
S'GI:56912168'
p228
aS'GeneID:3200571'
p229
asS'translation'
p230
(lp231
S'MLNTLMTHLINPLAYIVPVLLAVAFLTLIERKVLGYMQLRKGPNVVGPYGLLQPIADGVKLFIKEPVRPSTSSPFLFLAAPVLALTLAMTLWAPMPMPHPVTDLNLGILFILALSSFAVYSILGSGWASNSKYALIGALRAVAQTISYEVSLGLILLSVIIFSGGYTLQTFNTTQESIWLLIPAWPLAAMWYISTLAETNRAPFDLTEGESELVSGFNVEYAGGPFALFFLAEYANILLMNTLSAVLFLGASHIPNMPELTTINLMTKAALLSILFLWVRASYPRFRYDQLMHLVWKNFLPLTLAFVLWHTALPIALAGLPPQL'
p232
asS'gene'
p233
(lp234
S'ND1'
p235
asS'protein_id'
p236
(lp237
S'YP_173336.1'
p238
assbag1
(g86
g3
NtRp239
(dp240
g89
(lp241
sg91
S''
sg92
g93
sg46
g1
(g48
g3
NtRp242
(dp243
g51
Nsg52
g1
(g53
g54
I4829
tRp244
sg56
g1
(g53
g54
I4755
tRp245
sg58
I1
sg59
Nsbsg98
S'tRNA'
p246
sg100
(dp247
S'product'
p248
(lp249
S'tRNA-Ile'
p250
assbag1
(g86
g3
NtRp251
(dp252
g89
(lp253
sg91
S''
sg92
g93
sg46
g1
(g48
g3
NtRp254
(dp255
g51
Nsg52
g1
(g53
g54
I4897
tRp256
sg56
g1
(g53
g54
I4826
tRp257
sg58
I-1
sg59
Nsbsg98
S'tRNA'
p258
sg100
(dp259
S'product'
p260
(lp261
S'tRNA-Gln'
p262
assbag1
(g86
g3
NtRp263
(dp264
g89
(lp265
sg91
S''
sg92
g93
sg46
g1
(g48
g3
NtRp266
(dp267
g51
Nsg52
g1
(g53
g54
I4967
tRp268
sg56
g1
(g53
g54
I4898
tRp269
sg58
I1
sg59
Nsbsg98
S'tRNA'
p270
sg100
(dp271
S'product'
p272
(lp273
S'tRNA-Met'
p274
assbag1
(g86
g3
NtRp275
(dp276
g89
(lp277
sg91
S''
sg92
g93
sg46
g1
(g48
g3
NtRp278
(dp279
g51
Nsg52
g1
(g53
g54
I6014
tRp280
sg56
g1
(g53
g54
I4967
tRp281
sg58
I1
sg59
Nsbsg98
S'gene'
p282
sg100
(dp283
S'db_xref'
p284
(lp285
S'GeneID:3200572'
p286
asS'gene'
p287
(lp288
S'ND2'
p289
assbag1
(g86
g3
NtRp290
(dp291
g89
(lp292
sg91
S''
sg92
g93
sg46
g1
(g48
g3
NtRp293
(dp294
g51
Nsg52
g1
(g53
g54
I6014
tRp295
sg56
g1
(g53
g54
I4967
tRp296
sg58
I1
sg59
Nsbsg98
S'CDS'
p297
sg100
(dp298
S'product'
p299
(lp300
S'NADH dehydrogenase subunit 2'
p301
asS'codon_start'
p302
(lp303
S'1'
asS'transl_table'
p304
(lp305
S'2'
asS'db_xref'
p306
(lp307
S'GI:56912169'
p308
aS'GeneID:3200572'
p309
asS'translation'
p310
(lp311
S'MNPYVLMILLSSLGLGTTLTFASSHWLLAWMGLEINTLAITPLMAQHHHPRAVEATTKYFLTQATAAAMILFASTTNAWMTGEWNITDLSDPLANTMFMTALALKIGLAPMHFWMPEVMQGLDLLTGLILSTWQKLAPFALIIQTAQNIDPLLLTLLGVTSTLVGGWGGLNQTQLRKILAYSSIAHMGWMIIVIQYAPQLTLIALGTYIIMTSAAFLTLKMSLTTKLSTLATTWSKSPILTATTALVLLSLGGLPPLTGFMPKWLILQELTKQDLPIIATIMALAALISLYFYLRLCYAMTLTISPNTTNSTTPWRTQTTQTSMPLALFTMATLGLLPMTPTILMLAT'
p312
asS'gene'
p313
(lp314
S'ND2'
p315
asS'protein_id'
p316
(lp317
S'YP_173337.1'
p318
assbag1
(g86
g3
NtRp319
(dp320
g89
(lp321
sg91
S''
sg92
g93
sg46
g1
(g48
g3
NtRp322
(dp323
g51
Nsg52
g1
(g53
g54
I6083
tRp324
sg56
g1
(g53
g54
I6012
tRp325
sg58
I1
sg59
Nsbsg98
S'tRNA'
p326
sg100
(dp327
S'product'
p328
(lp329
S'tRNA-Trp'
p330
assbag1
(g86
g3
NtRp331
(dp332
g89
(lp333
sg91
S''
sg92
g93
sg46
g1
(g48
g3
NtRp334
(dp335
g51
Nsg52
g1
(g53
g54
I6154
tRp336
sg56
g1
(g53
g54
I6085
tRp337
sg58
I-1
sg59
Nsbsg98
S'tRNA'
p338
sg100
(dp339
S'product'
p340
(lp341
S'tRNA-Ala'
p342
assbag1
(g86
g3
NtRp343
(dp344
g89
(lp345
sg91
S''
sg92
g93
sg46
g1
(g48
g3
NtRp346
(dp347
g51
Nsg52
g1
(g53
g54
I6228
tRp348
sg56
g1
(g53
g54
I6155
tRp349
sg58
I-1
sg59
Nsbsg98
S'tRNA'
p350
sg100
(dp351
S'product'
p352
(lp353
S'tRNA-Asn'
p354
assbag1
(g86
g3
NtRp355
(dp356
g89
(lp357
sg91
S''
sg92
g93
sg46
g1
(g48
g3
NtRp358
(dp359
g51
Nsg52
g1
(g53
g54
I6331
tRp360
sg56
g1
(g53
g54
I6260
tRp361
sg58
I-1
sg59
Nsbsg98
S'tRNA'
p362
sg100
(dp363
S'product'
p364
(lp365
S'tRNA-Cys'
p366
assbag1
(g86
g3
NtRp367
(dp368
g89
(lp369
sg91
S''
sg92
g93
sg46
g1
(g48
g3
NtRp370
(dp371
g51
Nsg52
g1
(g53
g54
I6400
tRp372
sg56
g1
(g53
g54
I6329
tRp373
sg58
I-1
sg59
Nsbsg98
S'tRNA'
p374
sg100
(dp375
S'product'
p376
(lp377
S'tRNA-Tyr'
p378
assbag1
(g86
g3
NtRp379
(dp380
g89
(lp381
sg91
S''
sg92
g93
sg46
g1
(g48
g3
NtRp382
(dp383
g51
Nsg52
g1
(g53
g54
I7952
tRp384
sg56
g1
(g53
g54
I6401
tRp385
sg58
I1
sg59
Nsbsg98
S'gene'
p386
sg100
(dp387
S'db_xref'
p388
(lp389
S'GeneID:3200568'
p390
asS'gene'
p391
(lp392
S'COX1'
p393
assbag1
(g86
g3
NtRp394
(dp395
g89
(lp396
sg91
S''
sg92
g93
sg46
g1
(g48
g3
NtRp397
(dp398
g51
Nsg52
g1
(g53
g54
I7952
tRp399
sg56
g1
(g53
g54
I6401
tRp400
sg58
I1
sg59
Nsbsg98
S'CDS'
p401
sg100
(dp402
S'product'
p403
(lp404
S'cytochrome c oxidase subunit I'
p405
asS'codon_start'
p406
(lp407
S'1'
asS'transl_table'
p408
(lp409
S'2'
asS'db_xref'
p410
(lp411
S'GI:56912170'
p412
aS'GeneID:3200568'
p413
asS'translation'
p414
(lp415
S'MAITRWFFSTNHKDIGTLYLVFGAWAGMVGTALSLLIRAELSQPGSLLGDDQIYNVIVTAHAFVMIFFMVMPILIGGFGNWLVPLMIGAPDMAFPRMNNMSFWLLPPSFLLLLASSGVEAGAGTGWTVYPPLAGNLAHAGASVDLTIFSLHLAGVSSILGAINFITTTINMKPPAISQYQTPLFVWSVLVTAVLLLLSLPVLAAGITMLLTDRNLNTTFFDPAGGGDPILYQHLFWFFGHPEVYILILPGFGIISHVVAYYSGKKEPFGYMGMVWAMMAIGLLGFIVWAHHMFTVGMDVDTRAYFTSATMIIAIPTGVKVFSWLATLHGGSIKWETPMLWALGFIFLFTVGGLTGIVLSNSSLDIVLHDTYYVVAHFHYVLSMGAVFAIMAAFVHWFPLLTGYTLHSAWTKIHFGVMFIGVNLTFFPQHFLGLAGMPRRYSDYPDAYALWNTVSSIGSLISLVAVIMFLFILWEAFAAKREVLSVELTMTNVEWLHGCPPPYHTYEEPAFVQIQSN'
p416
asS'gene'
p417
(lp418
S'COX1'
p419
asS'protein_id'
p420
(lp421
S'YP_173338.1'
p422
assbag1
(g86
g3
NtRp423
(dp424
g89
(lp425
sg91
S''
sg92
g93
sg46
g1
(g48
g3
NtRp426
(dp427
g51
Nsg52
g1
(g53
g54
I7974
tRp428
sg56
g1
(g53
g54
I7669
tRp429
sg58
I1
sg59
Nsbsg98
S'STS'
p430
sg100
(dp431
S'db_xref'
p432
(lp433
S'UniSTS:202604'
p434
asS'standard_name'
p435
(lp436
S'fa96c09.x1'
p437
assbag1
(g86
g3
NtRp438
(dp439
g89
(lp440
sg91
S''
sg92
g93
sg46
g1
(g48
g3
NtRp441
(dp442
g51
Nsg52
g1
(g53
g54
I8023
tRp443
sg56
g1
(g53
g54
I7952
tRp444
sg58
I-1
sg59
Nsbsg98
S'tRNA'
p445
sg100
(dp446
S'codon_recognized'
p447
(lp448
S'UCN'
p449
asS'product'
p450
(lp451
S'tRNA-Ser'
p452
assbag1
(g86
g3
NtRp453
(dp454
g89
(lp455
sg91
S''
sg92
g93
sg46
g1
(g48
g3
NtRp456
(dp457
g51
Nsg52
g1
(g53
g54
I8098
tRp458
sg56
g1
(g53
g54
I8026
tRp459
sg58
I1
sg59
Nsbsg98
S'tRNA'
p460
sg100
(dp461
S'product'
p462
(lp463
S'tRNA-Asp'
p464
assbag1
(g86
g3
NtRp465
(dp466
g89
(lp467
sg91
S''
sg92
g93
sg46
g1
(g48
g3
NtRp468
(dp469
g51
Nsg52
g1
(g53
g54
I8801
tRp470
sg56
g1
(g53
g54
I8110
tRp471
sg58
I1
sg59
Nsbsg98
S'gene'
p472
sg100
(dp473
S'db_xref'
p474
(lp475
S'GeneID:3200566'
p476
asS'gene'
p477
(lp478
S'COX2'
p479
assbag1
(g86
g3
NtRp480
(dp481
g89
(lp482
sg91
S''
sg92
g93
sg46
g1
(g48
g3
NtRp483
(dp484
g51
Nsg52
g1
(g53
g54
I8801
tRp485
sg56
g1
(g53
g54
I8110
tRp486
sg58
I1
sg59
Nsbsg98
S'CDS'
p487
sg100
(dp488
S'product'
p489
(lp490
S'cytochrome c oxidase subunit II'
p491
asS'transl_except'
p492
(lp493
S'(pos:8801,aa:TERM)'
p494
asS'codon_start'
p495
(lp496
S'1'
asS'transl_table'
p497
(lp498
S'2'
asS'note'
p499
(lp500
S"TAA stop codon is completed by the addition of 3' A residues to the mRNA"
p501
asS'db_xref'
p502
(lp503
S'GI:56912171'
p504
aS'GeneID:3200566'
p505
asS'translation'
p506
(lp507
S'MAHPTQLGFQDAASPVMEELLHFHDHALMIVFLISTLVLYIIIAMVSTKLTNKYILDSQEIEIVWTILPAVILVLIALPSLRILYLMDEINDPHLTIKAMGHQWYWSYEYTDYENLGFDSYMVPTQDLAPGQFRLLETDHRMVVPMESPVRVLVSAEDVLHSWAVPSLGVKMDAVPGRLNQTAFIASRPGVFYGQCSEICGANHSFMPIVVEAVPLEHFENWSSLMLEDA'
p508
asS'gene'
p509
(lp510
S'COX2'
p511
asS'protein_id'
p512
(lp513
S'YP_173339.1'
p514
assbag1
(g86
g3
NtRp515
(dp516
g89
(lp517
sg91
S''
sg92
g93
sg46
g1
(g48
g3
NtRp518
(dp519
g51
Nsg52
g1
(g53
g54
I8877
tRp520
sg56
g1
(g53
g54
I8801
tRp521
sg58
I1
sg59
Nsbsg98
S'tRNA'
p522
sg100
(dp523
S'product'
p524
(lp525
S'tRNA-Lys'
p526
assbag1
(g86
g3
NtRp527
(dp528
g89
(lp529
sg91
S''
sg92
g93
sg46
g1
(g48
g3
NtRp530
(dp531
g51
Nsg52
g1
(g53
g54
I9043
tRp532
sg56
g1
(g53
g54
I8878
tRp533
sg58
I1
sg59
Nsbsg98
S'gene'
p534
sg100
(dp535
S'db_xref'
p536
(lp537
S'GeneID:3200570'
p538
asS'gene'
p539
(lp540
S'ATP8'
p541
assbag1
(g86
g3
NtRp542
(dp543
g89
(lp544
sg91
S''
sg92
g93
sg46
g1
(g48
g3
NtRp545
(dp546
g51
Nsg52
g1
(g53
g54
I9043
tRp547
sg56
g1
(g53
g54
I8878
tRp548
sg58
I1
sg59
Nsbsg98
S'CDS'
p549
sg100
(dp550
S'product'
p551
(lp552
S'ATP synthase F0 subunit 8'
p553
asS'codon_start'
p554
(lp555
S'1'
asS'transl_table'
p556
(lp557
S'2'
asS'db_xref'
p558
(lp559
S'GI:56912172'
p560
aS'GeneID:3200570'
p561
asS'translation'
p562
(lp563
S'MPQLNPGPWFAILVFSWLVFLTIIPTKILSHISPNEPTPVSAEKHKTESWDWPW'
p564
asS'gene'
p565
(lp566
S'ATP8'
p567
asS'protein_id'
p568
(lp569
S'YP_173340.1'
p570
assbag1
(g86
g3
NtRp571
(dp572
g89
(lp573
sg91
S''
sg92
g93
sg46
g1
(g48
g3
NtRp574
(dp575
g51
Nsg52
g1
(g53
g54
I9720
tRp576
sg56
g1
(g53
g54
I9036
tRp577
sg58
I1
sg59
Nsbsg98
S'gene'
p578
sg100
(dp579
S'db_xref'
p580
(lp581
S'GeneID:3200569'
p582
asS'gene'
p583
(lp584
S'ATP6'
p585
assbag1
(g86
g3
NtRp586
(dp587
g89
(lp588
sg91
S''
sg92
g93
sg46
g1
(g48
g3
NtRp589
(dp590
g51
Nsg52
g1
(g53
g54
I9720
tRp591
sg56
g1
(g53
g54
I9036
tRp592
sg58
I1
sg59
Nsbsg98
S'CDS'
p593
sg100
(dp594
S'product'
p595
(lp596
S'ATP synthase F0 subunit 6'
p597
asS'codon_start'
p598
(lp599
S'1'
asS'transl_table'
p600
(lp601
S'2'
asS'db_xref'
p602
(lp603
S'GI:56912173'
p604
aS'GeneID:3200569'
p605
asS'translation'
p606
(lp607
S'MMVSFFDQFASPSYLGIPLIAIAIALPWVLYPTSSSRWINNRLITIQGWFINRFTNQLMLPLNVGGHKWALLLASLMIFLITINMLGLLPYTFTPTTQLSLNMGFAVPLWLATVIIGMRNQPTVALGHLLPEGTPIPLIPVLIIIETISLFIRPLALGVRLTANLTAGHLLIQLIATAVFVLLPMMPTVAILTATVLFLLTLLEVAVAMIQAYVFLLLLSLYLQENV'
p608
asS'gene'
p609
(lp610
S'ATP6'
p611
asS'protein_id'
p612
(lp613
S'YP_173341.1'
p614
assbag1
(g86
g3
NtRp615
(dp616
g89
(lp617
sg91
S''
sg92
g93
sg46
g1
(g48
g3
NtRp618
(dp619
g51
Nsg52
g1
(g53
g54
I10505
tRp620
sg56
g1
(g53
g54
I9719
tRp621
sg58
I1
sg59
Nsbsg98
S'gene'
p622
sg100
(dp623
S'db_xref'
p624
(lp625
S'GeneID:3200565'
p626
asS'gene'
p627
(lp628
S'COX3'
p629
assbag1
(g86
g3
NtRp630
(dp631
g89
(lp632
sg91
S''
sg92
g93
sg46
g1
(g48
g3
NtRp633
(dp634
g51
Nsg52
g1
(g53
g54
I10505
tRp635
sg56
g1
(g53
g54
I9719
tRp636
sg58
I1
sg59
Nsbsg98
S'CDS'
p637
sg100
(dp638
S'product'
p639
(lp640
S'cytochrome c oxidase subunit III'
p641
asS'codon_start'
p642
(lp643
S'1'
asS'transl_table'
p644
(lp645
S'2'
asS'db_xref'
p646
(lp647
S'GI:56912174'
p648
aS'GeneID:3200565'
p649
asS'translation'
p650
(lp651
S'MAHQAHAYHMVDPSPWPLTGAIAALLMTSGLAIWFHFHSTTLMTLGLILLLLTMYQWWRDIIREGTFQGHHTPPVQKGLRYGMILFITSEVFFFLGFFWAFYHSSLAPTPELGGCWPPTGITPLDPFEVPLLNTAVLLASGVTVTWAHHSIMEGERKQAIQSLALTILLGLYFTALQAMEYYEAPFTIADGVYGSTFFVATGFHGLHVIIGSTFLAVCLLRQIQYHFTSEHHFGFEAAAWYWHFVDVVWLFLYVSIYWWGS'
p652
asS'gene'
p653
(lp654
S'COX3'
p655
asS'protein_id'
p656
(lp657
S'YP_173342.1'
p658
assbag1
(g86
g3
NtRp659
(dp660
g89
(lp661
sg91
S''
sg92
g93
sg46
g1
(g48
g3
NtRp662
(dp663
g51
Nsg52
g1
(g53
g54
I10576
tRp664
sg56
g1
(g53
g54
I10504
tRp665
sg58
I1
sg59
Nsbsg98
S'tRNA'
p666
sg100
(dp667
S'product'
p668
(lp669
S'tRNA-Gly'
p670
assbag1
(g86
g3
NtRp671
(dp672
g89
(lp673
sg91
S''
sg92
g93
sg46
g1
(g48
g3
NtRp674
(dp675
g51
Nsg52
g1
(g53
g54
I10927
tRp676
sg56
g1
(g53
g54
I10576
tRp677
sg58
I1
sg59
Nsbsg98
S'gene'
p678
sg100
(dp679
S'db_xref'
p680
(lp681
S'GeneID:3200573'
p682
asS'gene'
p683
(lp684
S'ND3'
p685
assbag1
(g86
g3
NtRp686
(dp687
g89
(lp688
sg91
S''
sg92
g93
sg46
g1
(g48
g3
NtRp689
(dp690
g51
Nsg52
g1
(g53
g54
I10927
tRp691
sg56
g1
(g53
g54
I10576
tRp692
sg58
I1
sg59
Nsbsg98
S'CDS'
p693
sg100
(dp694
S'product'
p695
(lp696
S'NADH dehydrogenase subunit 3'
p697
asS'codon_start'
p698
(lp699
S'1'
asS'transl_table'
p700
(lp701
S'2'
asS'db_xref'
p702
(lp703
S'GI:56912175'
p704
aS'GeneID:3200573'
p705
asS'translation'
p706
(lp707
S'MNLIMTILTITAALSLILATISFWLPQMNPDAEKLSPYECGFDPLGSARLPFSLRFFLVAILFLLFDLEIALLLPLPWGDQLNNPTGTFFWATTVLILLTLGLIYEWTQGGLEWAE'
p708
asS'gene'
p709
(lp710
S'ND3'
p711
asS'protein_id'
p712
(lp713
S'YP_173343.1'
p714
assbag1
(g86
g3
NtRp715
(dp716
g89
(lp717
sg91
S''
sg92
g93
sg46
g1
(g48
g3
NtRp718
(dp719
g51
Nsg52
g1
(g53
g54
I10995
tRp720
sg56
g1
(g53
g54
I10925
tRp721
sg58
I1
sg59
Nsbsg98
S'tRNA'
p722
sg100
(dp723
S'product'
p724
(lp725
S'tRNA-Arg'
p726
assbag1
(g86
g3
NtRp727
(dp728
g89
(lp729
sg91
S''
sg92
g93
sg46
g1
(g48
g3
NtRp730
(dp731
g51
Nsg52
g1
(g53
g54
I11292
tRp732
sg56
g1
(g53
g54
I10995
tRp733
sg58
I1
sg59
Nsbsg98
S'gene'
p734
sg100
(dp735
S'db_xref'
p736
(lp737
S'GeneID:3200576'
p738
asS'gene'
p739
(lp740
S'ND4L'
p741
assbag1
(g86
g3
NtRp742
(dp743
g89
(lp744
sg91
S''
sg92
g93
sg46
g1
(g48
g3
NtRp745
(dp746
g51
Nsg52
g1
(g53
g54
I11292
tRp747
sg56
g1
(g53
g54
I10995
tRp748
sg58
I1
sg59
Nsbsg98
S'CDS'
p749
sg100
(dp750
S'product'
p751
(lp752
S'NADH dehydrogenase subunit 4L'
p753
asS'codon_start'
p754
(lp755
S'1'
asS'transl_table'
p756
(lp757
S'2'
asS'db_xref'
p758
(lp759
S'GI:56912176'
p760
aS'GeneID:3200576'
p761
asS'translation'
p762
(lp763
S'MTPVHFSFSSAFILGLMGLAFHRTHLLSALLCLEGMMLSLFIALALWALQFESTGFSTAPMLLLAFSACEASTGLALLVATARTHGTDRLQNLNLLQC'
p764
asS'gene'
p765
(lp766
S'ND4L'
p767
asS'protein_id'
p768
(lp769
S'YP_173344.1'
p770
assbag1
(g86
g3
NtRp771
(dp772
g89
(lp773
sg91
S''
sg92
g93
sg46
g1
(g48
g3
NtRp774
(dp775
g51
Nsg52
g1
(g53
g54
I12666
tRp776
sg56
g1
(g53
g54
I11285
tRp777
sg58
I1
sg59
Nsbsg98
S'gene'
p778
sg100
(dp779
S'db_xref'
p780
(lp781
S'GeneID:3200567'
p782
asS'gene'
p783
(lp784
S'ND4'
p785
assbag1
(g86
g3
NtRp786
(dp787
g89
(lp788
sg91
S''
sg92
g93
sg46
g1
(g48
g3
NtRp789
(dp790
g51
Nsg52
g1
(g53
g54
I12666
tRp791
sg56
g1
(g53
g54
I11285
tRp792
sg58
I1
sg59
Nsbsg98
S'CDS'
p793
sg100
(dp794
S'product'
p795
(lp796
S'NADH dehydrogenase subunit 4'
p797
asS'transl_except'
p798
(lp799
S'(pos:12666,aa:TERM)'
p800
asS'codon_start'
p801
(lp802
S'1'
asS'transl_table'
p803
(lp804
S'2'
asS'note'
p805
(lp806
S"TAA stop codon is completed by the addition of 3' A residues to the mRNA"
p807
asS'db_xref'
p808
(lp809
S'GI:56912177'
p810
aS'GeneID:3200567'
p811
asS'translation'
p812
(lp813
S'MLKVLIPTFMLFPTIWLTSPKWLWTATTAHSLLIASISLMWFKWTSETGWTSSNTYLATDPLSTPLLVLTCWLLPLMILASQNHINPEPISRQRLYITLLASLQAFLIMAFGATQTIMFYIMFEATLIPTLIIITRWGNQTERLNAGTYFLFYTLAGSLPLLVALLLLQQSTGTLSMLVLQYSQPLQLNSWGHMIWWAGCLIAFLVKMPLYGVHLWLPKAHVEAPVAGSMVLAAVLLKLGGYGMMRMMVMLDPLSKELAYPFIILALWGIIMTGSICLRQTDLKSLIAYSSVSHMGLVAGGILIQTPWGFSGAIILMIAHGLVSSALFCLANTAYERTHSRTMILARGLQIIFPLTAVWWFIANLANLALPPLPNLMGELMIITTLFNWSPWTILLTGLGTLITAGYSLYMFLMSQRGPTPNHITGLQPFHTREHLLMTLHLVPVILLVTKPELMWGWCY'
p814
asS'gene'
p815
(lp816
S'ND4'
p817
asS'protein_id'
p818
(lp819
S'YP_173345.1'
p820
assbag1
(g86
g3
NtRp821
(dp822
g89
(lp823
sg91
S''
sg92
g93
sg46
g1
(g48
g3
NtRp824
(dp825
g51
Nsg52
g1
(g53
g54
I12735
tRp826
sg56
g1
(g53
g54
I12666
tRp827
sg58
I1
sg59
Nsbsg98
S'tRNA'
p828
sg100
(dp829
S'product'
p830
(lp831
S'tRNA-His'
p832
assbag1
(g86
g3
NtRp833
(dp834
g89
(lp835
sg91
S''
sg92
g93
sg46
g1
(g48
g3
NtRp836
(dp837
g51
Nsg52
g1
(g53
g54
I12804
tRp838
sg56
g1
(g53
g54
I12735
tRp839
sg58
I1
sg59
Nsbsg98
S'tRNA'
p840
sg100
(dp841
S'codon_recognized'
p842
(lp843
S'AGY'
p844
asS'product'
p845
(lp846
S'tRNA-Ser'
p847
assbag1
(g86
g3
NtRp848
(dp849
g89
(lp850
sg91
S''
sg92
g93
sg46
g1
(g48
g3
NtRp851
(dp852
g51
Nsg52
g1
(g53
g54
I12878
tRp853
sg56
g1
(g53
g54
I12805
tRp854
sg58
I1
sg59
Nsbsg98
S'tRNA'
p855
sg100
(dp856
S'codon_recognized'
p857
(lp858
S'CUN'
p859
asS'product'
p860
(lp861
S'tRNA-Leu'
p862
assbag1
(g86
g3
NtRp863
(dp864
g89
(lp865
sg91
S''
sg92
g93
sg46
g1
(g48
g3
NtRp866
(dp867
g51
Nsg52
g1
(g53
g54
I14705
tRp868
sg56
g1
(g53
g54
I12881
tRp869
sg58
I1
sg59
Nsbsg98
S'gene'
p870
sg100
(dp871
S'db_xref'
p872
(lp873
S'GeneID:3200574'
p874
asS'gene'
p875
(lp876
S'ND5'
p877
assbag1
(g86
g3
NtRp878
(dp879
g89
(lp880
sg91
S''
sg92
g93
sg46
g1
(g48
g3
NtRp881
(dp882
g51
Nsg52
g1
(g53
g54
I14705
tRp883
sg56
g1
(g53
g54
I12881
tRp884
sg58
I1
sg59
Nsbsg98
S'CDS'
p885
sg100
(dp886
S'product'
p887
(lp888
S'NADH dehydrogenase subunit 5'
p889
asS'codon_start'
p890
(lp891
S'1'
asS'transl_table'
p892
(lp893
S'2'
asS'db_xref'
p894
(lp895
S'GI:56912178'
p896
aS'GeneID:3200574'
p897
asS'translation'
p898
(lp899
S'MTLIMHSSLLLIFFILVYPLLTTLNPNQQGSNMAGMTKIAVSSAFFISLLPLMIFLNLKTEGIITNWQWMNTQTFDVNISFKFDHYSLIFVPIALYVTWSILEFALWYMHSDPYIDRFFKYLLTFLVAMIILVTANNMFQLFIGWEGVGIMSFLLIGWWHGRADANTAALQAVIYNRVGDIGLIMTMAWFAMNLNSWEIQQIFVLSKNFDLTIPLMGLALTATGKSAQFGLHPWLPSAMEGPTPVSALLHSSTMVVAGIFLFIRLHPLMENNQLALTTCLCLGALTSLFTATCALTQNDIKKIVAFSTSSQLGLMMVTIGLNQPQLAFLHICTHAFFKAMLFLCSGSIIHSLNDEQDIRKMGGLFNIMPATSTYFTIGSLALTGTPFLAGFFSKDAIIEALNTSHLNAWALTLTLIATSFTAVYSFRLVYFVVMGTPRFLALSPINENNPLVINSIKRLAWGSIIAGLIITQNFLPMKTPIMTMPAPLKMAALLVTIAGLLVAMELANMTSKQVKIIPMIPLHHFSNMLGFFPAIIHRLLPKLKLTLGQSAATQLDKTWLEAMGPKGLALTQMTMAKVTNDISRGMIKTYLTIFLLTLILAILPVLL'
p900
asS'gene'
p901
(lp902
S'ND5'
p903
asS'protein_id'
p904
(lp905
S'YP_173346.1'
p906
assbag1
(g86
g3
NtRp907
(dp908
g89
(lp909
sg91
S''
sg92
g93
sg46
g1
(g48
g3
NtRp910
(dp911
g51
Nsg52
g1
(g53
g54
I15223
tRp912
sg56
g1
(g53
g54
I14701
tRp913
sg58
I-1
sg59
Nsbsg98
S'gene'
p914
sg100
(dp915
S'db_xref'
p916
(lp917
S'GeneID:3200575'
p918
asS'gene'
p919
(lp920
S'ND6'
p921
assbag1
(g86
g3
NtRp922
(dp923
g89
(lp924
sg91
S''
sg92
g93
sg46
g1
(g48
g3
NtRp925
(dp926
g51
Nsg52
g1
(g53
g54
I15223
tRp927
sg56
g1
(g53
g54
I14701
tRp928
sg58
I-1
sg59
Nsbsg98
S'CDS'
p929
sg100
(dp930
S'product'
p931
(lp932
S'NADH dehydrogenase subunit 6'
p933
asS'codon_start'
p934
(lp935
S'1'
asS'transl_table'
p936
(lp937
S'2'
asS'db_xref'
p938
(lp939
S'GI:56912179'
p940
aS'GeneID:3200575'
p941
asS'translation'
p942
(lp943
S'MTYFMFLLLMALVVGLVAVASNPTPYFAALGLVVAAGVGCGVLVGHGGSFLSLVLFLIYLGGMLVVFAYSAALAAEPYPEAWGSRSVLGYVLVYLLGVGLVAGFFWGGWYEGSWVVVDGLKEFSVLRGDVSGVAVMYSSGGGMLVICAWVLLLTLLVVLELTRGLSRGALRAV'
p944
asS'gene'
p945
(lp946
S'ND6'
p947
asS'protein_id'
p948
(lp949
S'YP_173347.1'
p950
assbag1
(g86
g3
NtRp951
(dp952
g89
(lp953
sg91
S''
sg92
g93
sg46
g1
(g48
g3
NtRp954
(dp955
g51
Nsg52
g1
(g53
g54
I15292
tRp956
sg56
g1
(g53
g54
I15223
tRp957
sg58
I-1
sg59
Nsbsg98
S'tRNA'
p958
sg100
(dp959
S'product'
p960
(lp961
S'tRNA-Glu'
p962
assbag1
(g86
g3
NtRp963
(dp964
g89
(lp965
sg91
S''
sg92
g93
sg46
g1
(g48
g3
NtRp966
(dp967
g51
Nsg52
g1
(g53
g54
I16438
tRp968
sg56
g1
(g53
g54
I15297
tRp969
sg58
I1
sg59
Nsbsg98
S'gene'
p970
sg100
(dp971
S'db_xref'
p972
(lp973
S'GeneID:3200577'
p974
asS'gene'
p975
(lp976
S'CYTB'
p977
assbag1
(g86
g3
NtRp978
(dp979
g89
(lp980
sg91
S''
sg92
g93
sg46
g1
(g48
g3
NtRp981
(dp982
g51
Nsg52
g1
(g53
g54
I16438
tRp983
sg56
g1
(g53
g54
I15297
tRp984
sg58
I1
sg59
Nsbsg98
S'CDS'
p985
sg100
(dp986
S'product'
p987
(lp988
S'cytochrome b'
p989
asS'transl_except'
p990
(lp991
S'(pos:16438,aa:TERM)'
p992
asS'codon_start'
p993
(lp994
S'1'
asS'transl_table'
p995
(lp996
S'2'
asS'note'
p997
(lp998
S"TAA stop codon is completed by the addition of 3' A residues to the mRNA"
p999
asS'db_xref'
p1000
(lp1001
S'GI:56912180'
p1002
aS'GeneID:3200577'
p1003
asS'translation'
p1004
(lp1005
S'MASLRKTHPLIKIANDALVDLPTPSNISAWWNFGSLLGLCLITQILTGLFLAMHYTSDISTAFSSVTHICRDVNYGWLIRNIHANGASFFFICIYMHIGRGLYYGSYLNKETWNIGVVLLLLVMMTAFVGYVLPWGQMSFWGATVITNLLSAVPYMGDMLVQWIWGGFSVDNATLTRFFAFHFLLPFIIAAATVIHLLFLHETGSNNPIGLNSDADKISFHPYFSYKDLLGFVIMLLALTLLALFSPNLLGDPENFTPANPLVTPPHIKPEWYFLFAYAILRSIPNKLGGVLALLFSILVLMVVPLLHTSKQRGLTFRPITQFLFWTLVADMIILTWIGGMPVEHPFIIIGQIASVLYFALFLVLFPLAGWLENKALKWA'
p1006
asS'gene'
p1007
(lp1008
S'CYTB'
p1009
asS'protein_id'
p1010
(lp1011
S'YP_173348.1'
p1012
assbag1
(g86
g3
NtRp1013
(dp1014
g89
(lp1015
sg91
S''
sg92
g93
sg46
g1
(g48
g3
NtRp1016
(dp1017
g51
Nsg52
g1
(g53
g54
I16510
tRp1018
sg56
g1
(g53
g54
I16438
tRp1019
sg58
I1
sg59
Nsbsg98
S'tRNA'
p1020
sg100
(dp1021
S'product'
p1022
(lp1023
S'tRNA-Thr'
p1024
assbag1
(g86
g3
NtRp1025
(dp1026
g89
(lp1027
sg91
S''
sg92
g93
sg46
g1
(g48
g3
NtRp1028
(dp1029
g51
Nsg52
g1
(g53
g54
I16580
tRp1030
sg56
g1
(g53
g54
I16508
tRp1031
sg58
I-1
sg59
Nsbsg98
S'tRNA'
p1032
sg100
(dp1033
S'product'
p1034
(lp1035
S'tRNA-Pro'
p1036
assbasS'_seq'
p1037
g1
(cBio.Seq
Seq
p1038
g3
NtRp1039
(dp1040
S'alphabet'
p1041
g1
(cBio.Alphabet.IUPAC
IUPACAmbiguousDNA
p1042
g3
NtRp1043
sS'_data'
p1044
S'GGATAACCATCCCTGTATGGTTTAATACATAATATGCATAATATTACATTAGTGTATTAGTACATATATGTATTATCACCATATCATTATATTAACCCCAAAGCAAGTACATATAAACTAAGGTATGCATAAAGCATAATCTTAAGACTCACAAGTTAAATTATTTTAACCCGGGTAATATATTATTCCCCAAGAAATTGTCCCCACATTTTTCCTTGAATGACTCAACTAAGGTTTTATTCAAACATATTAATGTAGTAAGAGACCACCAACCATTTATATAAAGGAATATCATGCATGATAGAATCAGGGACATCAATTGTGGGGGTCGCACAATATGAACTATTACTGGCATCTGGTTCCTATTTCAGGTACATAACTGTAATACTCCACCCTCGGATAATTATACTGGCATCTGATTAATGGTGTAGTACATATGGTTCATTACCCCACATGCCGAGCGTTCTTTTATATGCATAAGGTATTTTTTTTTTGGTTTCCTTTCATCTTGCATCTCAGAGTGCAGGCACAAATGTTGGTTTAAGGTTGAACATTTTCCTTGAATGTGATTATATAAATGAATTATCGTAAGACATAATTTAAGAACTGCATACTTCTAACTCAAGTGCATAACATATTCATCTCTTATTCAACTTATCCTTATATAGTGCCCCCTTTGGTTTTTGCGCGACAAACCCCCCTACCCCCTACGCTCAAAGAATCCTGTTATCCTTGTCAAACCCCGAAACCAAGGAGGACCCAAGAACGTGTAAGCCAACGAGTTGAGGTACGAATTGGCATCCCATTATATATATATATATATATGTGCATCGGTTTTTTTATCCCAATTCAGTAATCACCCAAAAATCTCTGCCAAAAACCCCAAAAAATCACCTCCACACTAAATTTTCTAACATTATTTAGCTAGCGTAGCTTAATACAAAGCATAGCACTGAAGATGCTAAGATGAGACCTAAAAATCTCCGCATGCACAAAGGCATGGTCCCGACCTTATTATCAGCTCTAACTCAACTTACACATGCAAGTCTCCGCACCCCAGTGAATATGCCCTCAATCCCCCTACCCGGGGACGAGGAGCGGGCATCAGGCACAAATATTAGCCCAAGACGCCTAGCCGAGCCACACCCCCAAGGGAATTCAGCAGTGATAAACATTAAGCCATAAGTGAAAACTTGACTCAGTTAGTGTTAAGAGGGCCGGTAAAACTCGTGCCAGCCACCGCGGTTAGACGAGAGGCCCTAGTTGATATTACAACGGCGTAAAGGGTGGTTAAGGATAAATAAAAATAAAGTCAAATGGCCCCTTGGCCGTCATACGCTTCTAGGCGTCCGAAGCCCTAATACGAAAGTAACTTTAATAAACCCACCTGACCCCACGAAAGCTGAGGAACAAACTGGGATTAGATACCCCACTATGCTCAGCCGTAAACTTAGACATCCAACTACAATAGATGTCCGCCAGGGTACTACGAGCATTAGCTTAAAACCCAAAGGACCTGACGGTGTCTCAGATCCCCCTAGAGGAGCCTGTTCTAGAACCGATAACCCCCGTTCAACCTCACCACTTCTAGCCAACCCAGCCTATATACCGCCGTCGTCAGCTTACCCTGTGAAGGTAATAAAAGTAAGCAAAATGGGTACAACCCAAAACGTCAGGTCGAGGTGTAGCGCATGGAGTGGGAAGAAATGGGCTACATTTTCTAACATAGAATATTACGAACATGCACCATGAAACAGTGCTTGAAGGAGGATTTAGTAGTAAAAGGGAAATAGAGTGTCCCTTTGAACCCGGCTCTGAGACGCGTACACACCGCCCGTCACTCTCCCCTGTCAAAATGCACCAAAAATATCTAATATAATAGCACTGACAAGGGGAGGCAAGTCGTAACACGGTAAGTGTACCGGAAGGTGCACTTGGATCAAACCCAGGGTGTGGCTGAGTTAGTCAAGCATCTCACTTACACCGAGAAGACATCCATGCAAGTTGGATCGCCCTGAGCCAAACAGCTAGCTTAACTACCTAATAACTAAACAATATAAATAAAATAAGATAGACCTAACACTAAAAATTAAATCATTCTTTTACCTGAGTATGGGCGACAGAAAAGGTTCCACAAAGCGATAGAGATAGTACCGCAAGGGAAAGCTGAAAGAGAAATGAAATAACCCATATAAGCAATAAAAAGCAAAGATTAAGCCTTGTACCTTTTGCATCATGATTTAGCCAGTACACCCAAGCAAAGAGACCTTTAGTTTGAAACCCCGAAGCCAGGTGAGCTACCCCGAGACAGCCTATTGAGGGCCAACCCGTCTCTGTGGCAAAAGAGTGGGAAGAGCTCCGGGTAGAAGTGACAGACCTACCGAACCTGGTGATAGCTGGTTGCCTAAGAGATGGATAGAAGTTCAGCCTCGTACTCCCCAAATCAAATAAACATTAATAAGACAACAAGAGAAACATACGAGAGTTAGTTAAAGGGGGTACAGCCCCTTTGACAAAGGATACAACCTTTCTAGGAGGATAAAGATCATAATACATAAAACATACTGTTCTAGTGGGCCTAAGAGCAGCCACCTAGATAGAAAGCGTTAGAGCTCAGACAGATAGAAGTTTATTATCCTGATAATATATCTTACTCCCCTAAATACTATGAGGCCAACCCATGCCCACATGGAAGAGATTATGCTAAGATGAGTAACAAGAAGGCCCGCCCTTCTCCAAGCACAAGTGTAAGCCAAATCGGACAAGCCATTGGCAACTAACGAACTCAACCCAAGAGAGCAATGTGGTATCACAAAAAAACCTAGAAAACCCCACAACCTAAATATCGTTACCCCCACACTGGAGTGCAACAAAGGAAAGACTAAAAGAAAAGGAAGGAACTCGGCAAACACAAGCCTCGCCTGTTTACCAAAAACATCGCCTCCTGCAACACAACCAAGTATAGGAGGTCCAGCCTGCCCAGTGACTACAAGTTCAACGGCCGCGGTATTTTGACCGTGCAAAGGTAGCGCAATCACTTGTCTTTTAAATAGAGACCTGTATGAATGGCTAAACGAGGGCTTAACTGTCTCCCCTTTCCAGTCAGTGAAATTGATCTACCCGTGCAGAAGCGGGTATAATAATACAAGACGAGAAGACCCTTTGGAGCTTAAGGTACAAAACTCAACCACGTTAAGCAACTCAATAAAAAGTGAAAACTTTGTGGAACATGAGATTTTACCTTCGGTTGGGGCGACCACGGAGGAAAAAAAAGCCTCCAGGTGGAACGGGAAAATTTCCTAAAACTAAGAGAGACATCTCTAAGCCACAGAACATCTGACCAAATATGATCCGGCTAATACAAGCCGATCAACGAACCAAGTTACCCTAGGGATAACAGCGCAATCCTCTCCCAGAGTCCATATCGACGAGGGGGTTTACGACCTCGATGTTGGATCAGGACATCCTAATGGTGCAGCCGCTATTAAGGGTTCGTTTGTTCAACGATTAAAGTCCTACGTGATCTGAGTTCAGACCGGAGCAATCCAGGTCAGTTTCTATCTGTAACGCTACTTTTCTTAGTACGAAAGGATCGGAAAAGAGGGGCCAATGCTCAAGGCACGCCCCACCCCTAATTTATGAAAACAAATAAATAAAATAAAGGGAGGGCCAAAACCCCAGCTGGCCAAAATAAGGACATACTGGGGTGGCAGAGCATGGTAAATTGCGAAAGGCCTAAGCCCTCTTAACCAGAGGTTCAAATCCTCTTCCCAGTTTATGCTAAACACCCTAATAACCCACCTAATTAACCCCTTAGCCTACATCGTACCCGTACTTCTAGCAGTAGCCTTCCTAACACTTATTGAACGAAAGGTATTAGGATACATGCAACTACGAAAGGGACCAAACGTGGTAGGCCCATACGGATTACTACAACCAATTGCTGACGGAGTAAAACTCTTCATTAAAGAACCCGTCCGCCCATCTACATCCTCCCCATTTCTGTTTTTAGCTGCTCCAGTACTAGCACTAACCCTAGCCATGACCTTATGAGCACCAATACCTATACCTCACCCAGTAACTGATCTTAACCTAGGGATCCTCTTTATTCTGGCCCTATCAAGCTTTGCAGTATACTCAATCCTAGGATCAGGATGAGCATCAAATTCGAAATACGCCCTAATTGGAGCACTACGAGCCGTAGCCCAAACGATCTCATATGAAGTCAGCCTAGGACTTATCCTTTTATCCGTTATTATTTTCTCCGGGGGATATACACTACAAACATTTAATACCACTCAGGAAAGCATCTGATTACTAATTCCCGCCTGGCCTTTAGCCGCAATATGGTATATCTCAACACTAGCCGAAACAAACCGAGCACCATTCGACCTAACAGAAGGAGAATCTGAACTAGTGTCCGGCTTTAACGTAGAATATGCAGGAGGACCATTTGCACTTTTCTTTCTAGCCGAATACGCCAACATCCTTCTAATAAACACCCTCTCAGCTGTCTTATTTTTAGGAGCCTCACACATCCCAAACATACCAGAACTTACAACAATCAACCTCATAACTAAAGCTGCACTTCTATCCATTCTATTCCTATGAGTACGAGCCTCGTACCCACGATTCCGTTATGACCAACTAATACACCTAGTATGAAAAAATTTCCTCCCTCTCACACTAGCCTTTGTACTATGACATACCGCTCTGCCAATTGCACTAGCGGGGCTCCCCCCACAACTATAACTAAGGAACTGTGCCTGAGCACCCAAGGACCACTTTGATAGAGTGAATTACAGGGGTTAAAATCCCCTCAGTTCCTAGAAAGAAGGGAATTGACCCCTTACTCAGGAGATCAAGACTCCTGGTGCTTCCTTTACACCACTTTCTAAGGCGGGGTCAGCTAATGAAGCTTTCGGGCCCATACCCCGAACATGACGGTTAAAGTCCCTCCTCCGCCAATGAACCCATACGTACTTATAATTTTACTATCCAGCCTAGGACTAGGAACTACTCTAACCTTCGCCAGCTCTCACTGACTTCTAGCTTGAATAGGCCTAGAAATTAACACACTAGCAATTACCCCCCTAATAGCACAACACCACCACCCCCGCGCAGTAGAAGCAACAACAAAATACTTCTTAACCCAAGCCACTGCAGCAGCAATAATTCTATTTGCCAGCACAACAAATGCCTGAATAACAGGAGAATGGAACATCACCGACCTATCAGACCCCCTCGCTAACACAATATTTATAACCGCCCTAGCACTTAAGATTGGACTTGCACCAATACACTTCTGAATGCCCGAAGTTATACAAGGATTAGATCTATTAACAGGACTTATTCTCTCCACATGACAAAAACTTGCCCCCTTCGCACTTATCATTCAAACAGCACAAAACATTGACCCGCTACTATTAACACTACTAGGGGTAACATCTACATTAGTGGGCGGGTGAGGAGGCCTGAACCAAACCCAGCTACGGAAAATTCTAGCCTACTCCTCAATTGCACACATAGGATGAATAATTATTGTAATCCAATACGCCCCCCAGCTCACCCTAATTGCACTAGGGACATACATTATCATGACCTCCGCAGCATTCCTAACCCTAAAAATATCACTGACAACTAAACTCAGCACGCTAGCAACAACCTGATCAAAAAGCCCCATCCTAACGGCAACAACTGCCCTAGTATTATTATCACTAGGCGGCCTACCGCCGCTCACAGGGTTTATACCAAAATGATTAATTTTACAAGAACTGACAAAACAAGATCTCCCCATTATCGCCACAATCATAGCCCTAGCCGCCCTAATTAGCCTATACTTCTATCTACGACTATGCTACGCGATAACATTAACCATCTCCCCCAATACAACCAACTCAACCACCCCCTGACGAACCCAAACAACCCAAACCTCCATACCTCTAGCCCTATTTACCATAGCCACCCTTGGACTACTGCCAATGACCCCAACCATTCTAATACTAGCCACCTAGGGACTTAGGATAATATTAGACCAAAAGCCTTCAAAGCTTTAAGTAGAAGTGAAAATCTTCTAGTCCCTGATTAAGACCTACGAGAGATCAACTCGCATCTCCTGATTGCAAATCAGATACTTTTATTAAGCTAAGGCCTTACTAGATGGGAAGGCCTCGATCCTACAAACTCTTAGTTAACAGCTAAGCGCTCAAGCCAGCGAGCATCCATCTACTTTTCCCGCCGTTTAACTCAGAAAGGCGGGAAAAGCCCCGGCAGAGTATTAATCTACGTCTTCGGATTTGCAATCCAATATGTTTTCTTCACCACGGGGCTGATAGGAAGAGGACTTAAACCTCTGTCTTCGGGGCTACAACCCACCGCCTAAACACTCGGCTACCCTACCTGTGGCAATCACGCGCTGATTCTTCTCTACCAACCACAAAGACATTGGTACCCTTTATCTAGTATTTGGTGCCTGAGCCGGAATAGTAGGAACCGCTTTAAGCCTCCTCATCCGAGCTGAACTTAGTCAACCCGGATCACTTCTAGGTGATGACCAAATTTACAATGTAATTGTTACCGCCCACGCCTTCGTAATAATTTTCTTTATAGTAATGCCTATCCTCATTGGAGGATTCGGAAACTGACTTGTACCCCTGATAATCGGAGCCCCAGACATGGCATTCCCACGAATAAACAATATAAGCTTCTGACTTCTTCCCCCATCATTCCTGTTACTACTAGCTTCCTCTGGTGTTGAAGCCGGAGCTGGCACCGGATGGACAGTATACCCCCCTCTTGCAGGAAACCTGGCCCACGCAGGAGCATCAGTAGACCTAACAATTTTCTCACTACATTTAGCAGGTGTTTCATCAATCCTGGGGGCAATCAACTTCATTACTACAACCATTAACATAAAACCTCCAGCCATTTCCCAATACCAAACACCCCTATTTGTTTGATCCGTACTTGTAACCGCCGTCCTCCTTCTCCTATCACTACCTGTTCTAGCTGCCGGTATTACAATGCTTTTAACAGATCGAAATCTTAACACCACATTCTTTGATCCCGCAGGCGGGGGAGACCCAATTCTCTATCAACACTTATTCTGATTCTTTGGTCACCCAGAAGTTTACATTTTAATCCTTCCAGGATTTGGAATTATTTCTCACGTTGTAGCCTATTATTCAGGTAAAAAAGAACCATTTGGTTATATAGGAATAGTATGAGCCATAATGGCCATTGGCCTCCTAGGGTTCATTGTATGAGCCCACCATATGTTTACTGTCGGAATGGACGTAGACACCCGTGCATATTTTACATCCGCAACAATAATTATCGCAATTCCAACGGGTGTAAAAGTATTTAGCTGACTGGCTACACTTCACGGAGGATCAATTAAATGAGAAACACCAATACTATGAGCCCTAGGATTCATTTTCCTGTTTACAGTGGGAGGACTTACAGGAATTGTCCTCTCTAATTCATCACTTGATATTGTTCTCCACGACACCTATTATGTAGTAGCACATTTCCACTATGTACTATCAATGGGTGCCGTATTCGCAATTATGGCAGCCTTTGTACACTGATTCCCCCTACTAACAGGGTACACTCTGCATAGCGCTTGAACAAAAATCCACTTTGGGGTTATATTTATCGGAGTTAACCTCACATTCTTCCCACAACACTTCCTGGGTCTAGCAGGAATACCACGACGGTATTCTGATTATCCAGACGCTTATGCCCTATGAAATACAGTATCATCTATCGGATCCCTAATCTCCCTAGTAGCGGTAATTATGTTCCTATTTATTCTATGAGAAGCCTTCGCCGCTAAACGAGAAGTGTTATCTGTAGAACTAACAATAACAAATGTGGAATGACTCCATGGCTGCCCCCCTCCTTACCACACATACGAGGAACCAGCATTTGTTCAAATTCAATCAAATTAACGAGAAAGGGAGGAATTGAACCCCCATATGCTGGTTTCAAGCCAGCCACATAACCACTCTGTCACTTCCTTCTAAAGACATTAGTAAAATGAAGATTACATCACCTTGTCAAGGTGAAATTGTAGGTTAAATCCCTGCATGTCTTACACTTAAAATTAATGGCACACCCAACGCAACTAGGATTCCAAGACGCGGCATCACCCGTTATAGAAGAACTTCTTCACTTCCATGACCACGCATTAATAATTGTGTTTTTAATTAGCACCCTAGTGCTATATATTATTATTGCAATGGTATCAACCAAACTTACTAATAAATATATTTTAGACTCCCAAGAAATCGAAATTGTATGAACTATTCTACCAGCCGTTATTTTAGTATTAATTGCTCTACCATCCCTACGAATTCTTTACCTTATGGACGAAATTAATGATCCCCACCTAACAATCAAAGCAATAGGACACCAATGATACTGAAGCTATGAATATACAGATTACGAAAACCTAGGATTTGACTCTTATATAGTACCTACCCAAGACCTTGCCCCAGGACAATTCCGACTCTTAGAAACAGACCATCGAATAGTTGTCCCAATAGAGTCCCCAGTCCGTGTCTTAGTATCCGCTGAAGACGTACTACACTCCTGAGCCGTTCCATCTTTAGGTGTAAAAATAGACGCAGTCCCAGGCCGACTAAATCAAACTGCTTTCATCGCCTCACGCCCAGGAGTATTCTACGGACAATGCTCTGAAATCTGCGGAGCAAATCATAGCTTTATACCAATTGTAGTTGAAGCAGTACCACTAGAACACTTCGAAAACTGATCCTCACTAATACTAGAAGACGCCTCGCGAGGAAGCTAAATATTGGACAAAGCGTTGGCCTTTTAAGCCAAAGATTGGTGATTCCCGACCACCTCTAGTGAAATGCCACAATTAAACCCAGGCCCTTGATTTGCAATCTTAGTATTTTCTTGACTAGTTTTCTTAACTATTATTCCAACTAAAATCTTAAGCCACATCTCACCAAATGAACCAACCCCAGTAAGTGCTGAAAAACACAAAACTGAATCCTGAGACTGACCATGATAGTAAGCTTCTTCGACCAATTTGCAAGCCCATCCTACCTAGGAATTCCACTAATTGCCATCGCAATTGCACTACCCTGAGTACTTTACCCAACTTCATCATCTCGATGAATTAATAACCGGCTTATTACAATTCAAGGATGATTTATTAATCGATTTACAAATCAACTAATACTCCCACTAAATGTAGGAGGACATAAATGAGCCCTACTACTAGCCTCCCTAATAATTTTCTTAATTACGATTAACATGTTAGGGCTCCTGCCATATACCTTTACACCAACGACACAACTATCACTCAATATAGGGTTTGCTGTACCACTATGACTTGCTACAGTAATTATCGGAATACGAAATCAACCAACAGTAGCTTTAGGTCACCTGTTACCAGAAGGTACACCCATCCCCCTGATTCCAGTACTAATTATTATCGAAACAATTAGTCTATTTATTCGACCATTAGCCCTAGGAGTCCGACTCACAGCCAACTTAACTGCAGGCCACCTTCTAATTCAACTCATTGCCACAGCTGTATTTGTCCTCCTACCAATGATACCAACAGTAGCAATTCTAACCGCCACAGTATTATTTTTACTAACACTATTAGAAGTAGCCGTAGCAATAATTCAAGCTTATGTATTTTTACTTCTTCTAAGCCTATACCTACAAGAAAACGTTTAATGGCCCACCAAGCACATGCCTATCATATAGTTGATCCAAGCCCATGACCACTAACCGGAGCTATCGCTGCCCTACTAATAACATCCGGCTTAGCAATCTGATTTCACTTCCACTCAACAACATTAATAACTCTAGGACTAATTCTCCTACTTCTTACTATGTATCAATGATGACGTGACATCATTCGAGAAGGAACCTTCCAAGGCCACCACACACCCCCAGTACAAAAAGGACTACGATACGGAATAATCTTATTTATTACCTCCGAAGTATTCTTCTTCCTAGGATTCTTCTGAGCATTCTACCACTCGAGTTTAGCACCTACCCCAGAACTAGGTGGATGCTGACCTCCCACAGGAATCACCCCCCTAGACCCATTTGAAGTGCCCCTTCTCAACACAGCTGTACTATTAGCATCCGGGGTTACAGTTACATGAGCCCACCACAGCATTATAGAAGGGGAACGAAAACAAGCTATTCAATCCCTAGCATTAACCATTCTACTTGGACTCTACTTTACTGCTCTCCAAGCTATGGAATATTATGAAGCACCCTTCACAATTGCAGACGGAGTATATGGCTCAACATTCTTTGTAGCTACAGGATTCCATGGACTCCATGTTATTATTGGATCAACCTTCCTAGCAGTATGCCTTCTACGCCAAATCCAATACCACTTTACATCCGAACACCACTTCGGCTTTGAAGCCGCTGCCTGATACTGACACTTTGTCGACGTAGTATGACTATTCCTCTACGTGTCTATCTATTGATGAGGCTCATAATCTTTCTAGTATTAAAGTTAGTACAAGTGACTTCCAATCACACAGTCTTGGTTAAACCCCAAGGAAAGATAATGAATCTAATTATGACCATTTTAACTATTACAGCCGCCCTTTCACTAATTTTAGCAACCATTTCTTTCTGACTCCCACAAATAAACCCAGACGCAGAAAAGCTATCACCATACGAATGTGGATTTGACCCACTGGGATCTGCCCGATTGCCATTTTCTTTACGCTTCTTCCTAGTAGCTATTTTATTTCTTCTCTTTGACCTAGAAATTGCCCTTCTCCTCCCATTACCCTGAGGGGATCAACTTAACAATCCTACTGGAACATTCTTCTGAGCCACAACAGTCCTAATCTTATTAACCCTAGGACTAATTTATGAATGAACTCAAGGTGGCTTAGAATGAGCAGAATAGGGAGCTAGTCCAAAACAAGACCTCTGATTTCGGCTCAGAAAATCGTGGTTTAATTCCACGGCCCCCTTATGACACCCGTACATTTTAGCTTTAGCTCAGCATTCATCTTAGGCCTAATAGGACTGGCATTTCACCGGACCCACCTACTCTCCGCACTCTTATGTTTAGAAGGAATAATATTATCCCTATTTATTGCACTGGCCCTATGAGCCCTACAATTTGAATCTACAGGATTTTCAACGGCCCCCATATTACTTTTGGCCTTCTCTGCTTGCGAAGCTAGCACTGGTCTGGCCCTACTAGTTGCCACTGCTCGTACCCACGGCACTGACCGACTACAAAACCTCAATCTTCTACAATGCTAAAAGTACTTATCCCCACATTTATATTATTCCCAACAATTTGATTAACTTCTCCTAAATGACTATGGACAGCTACAACCGCACACAGCCTCCTAATTGCCTCCATTAGCCTAATATGATTTAAATGGACATCTGAAACTGGATGAACTTCCTCCAACACATACTTAGCCACAGATCCACTATCAACCCCCCTTTTAGTACTAACATGCTGACTACTTCCCCTTATAATTTTAGCCAGCCAAAACCACATTAATCCAGAGCCAATTAGCCGACAACGATTGTATATTACGCTCCTGGCCTCACTACAAGCCTTTCTAATTATAGCATTCGGCGCCACACAAACTATTATATTTTATATTATATTTGAAGCTACACTTATCCCAACCCTTATCATTATTACCCGATGAGGAAATCAAACCGAACGACTCAATGCAGGAACCTACTTCTTGTTTTATACCCTAGCAGGATCACTCCCGCTCTTAGTTGCCCTTCTCCTTCTCCAGCAATCTACGGGCACACTATCAATATTAGTTCTCCAATATTCACAACCTCTACAACTCAATTCTTGAGGCCATATAATCTGATGAGCTGGCTGCCTAATCGCATTTTTAGTTAAAATACCATTATATGGAGTACACCTTTGACTACCAAAAGCACATGTAGAAGCCCCTGTAGCAGGATCAATAGTACTAGCAGCAGTCTTACTAAAGCTAGGTGGATACGGAATAATACGAATAATAGTGATATTAGACCCCCTATCAAAAGAACTGGCCTACCCATTTATTATTTTAGCCCTATGAGGCATTATTATAACAGGGTCAATTTGCCTCCGACAAACAGACCTAAAATCACTAATCGCCTACTCATCCGTAAGTCACATGGGCCTTGTAGCAGGCGGAATTTTAATCCAAACCCCATGAGGATTTTCAGGAGCAATTATTTTAATAATTGCCCACGGATTAGTCTCCTCAGCACTATTTTGCTTAGCCAACACAGCTTATGAACGAACACACAGCCGAACAATAATCCTTGCCCGAGGACTACAAATTATTTTTCCACTAACCGCAGTATGGTGATTCATTGCTAACCTAGCTAACCTAGCACTCCCACCACTGCCAAACCTAATAGGAGAACTCATAATCATTACAACACTATTTAACTGATCCCCATGAACAATTCTACTTACAGGTCTAGGAACACTTATTACAGCTGGCTACTCCCTATATATGTTCCTTATATCACAACGAGGCCCTACACCAAATCACATTACGGGACTCCAACCATTTCATACCCGAGAACACCTACTGATAACACTACACCTAGTTCCCGTCATCCTATTGGTAACAAAACCAGAACTCATATGAGGATGATGCTACTGTAAGTATAGTTTAGCCAAAATATTAGATTGTGATTCTAAAGATAGGAGTTAAAGTCTCCTTACTCACCAAGGGAGAACAGAAAATAGCAAGCACTGCTAATCCTTGCCCTCCATGGTTAAAATCCATGGCTTCCTTGCGCTTTTAAAGGATAACAGTTCATCCGTTGGTCTTAGGAACCAAAAACTCTTGGTGCAAATCCAAGTAGAAGCTAAAATGACATTAATTATACACTCATCACTTCTCCTAATCTTTTTTATTTTAGTGTACCCGCTACTTACTACATTAAACCCCAACCAACAAGGATCAAACATAGCAGGAATAACCAAAATTGCCGTTAGTTCCGCATTCTTCATTAGTCTCTTACCATTAATAATTTTTCTGAATTTAAAAACAGAAGGAATTATCACAAACTGACAATGAATGAATACCCAAACATTTGACGTAAACATCAGCTTTAAATTTGACCACTACTCCCTAATTTTTGTCCCAATTGCCCTCTATGTAACCTGATCAATTCTAGAGTTCGCACTGTGATATATACACTCCGACCCCTATATCGACCGATTCTTTAAATATCTACTCACGTTTTTAGTAGCCATAATTATTCTAGTTACAGCTAACAATATATTTCAACTATTTATTGGTTGAGAAGGAGTAGGAATCATATCCTTCTTACTTATCGGATGATGGCACGGACGGGCAGATGCCAACACAGCCGCTCTTCAAGCCGTAATCTACAACCGGGTAGGAGACATCGGGTTAATCATAACTATGGCCTGATTTGCAATGAACCTTAACTCCTGAGAAATTCAACAAATCTTTGTCTTATCAAAAAACTTCGATTTAACAATTCCCTTAATAGGACTTGCTCTAACAGCAACGGGAAAATCAGCCCAATTTGGCCTCCACCCCTGACTTCCCTCCGCCATGGAGGGCCCTACACCAGTATCTGCCCTACTCCACTCAAGTACTATAGTTGTTGCAGGAATTTTCCTGTTTATCCGCCTTCACCCCCTCATAGAAAATAACCAGTTAGCTCTAACAACCTGCCTATGCCTTGGAGCACTAACCTCACTATTCACAGCCACCTGTGCTCTAACCCAAAACGATATCAAGAAAATTGTAGCTTTCTCAACATCTAGTCAATTAGGCCTAATAATAGTTACAATTGGACTAAACCAACCACAACTAGCATTCCTTCACATCTGCACCCATGCTTTCTTTAAAGCCATACTATTCCTATGCTCAGGGTCCATTATTCACAGCCTAAACGACGAACAAGATATCCGAAAAATAGGAGGCCTATTTAATATTATACCTGCAACCTCAACTTATTTTACGATTGGTAGTTTAGCACTAACAGGAACCCCCTTCCTGGCAGGATTCTTCTCAAAAGACGCAATTATTGAAGCACTAAACACCTCCCACCTAAACGCCTGAGCCCTAACCCTGACATTAATTGCCACATCATTCACCGCAGTATACAGTTTCCGATTAGTATATTTTGTAGTTATAGGAACCCCACGATTCCTGGCCCTCTCCCCAATTAACGAAAATAATCCACTAGTGATTAACTCCATTAAACGACTCGCTTGAGGAAGCATTATTGCAGGCCTCATTATTACACAAAACTTCCTACCAATAAAAACCCCAATTATGACAATACCAGCACCCCTGAAAATAGCAGCCCTTCTCGTAACAATTGCAGGCCTACTAGTAGCCATAGAACTAGCCAACATGACGAGCAAACAAGTAAAAATTATTCCAATAATCCCATTACACCATTTCTCAAATATATTAGGATTTTTCCCCGCAATCATTCACCGACTCCTTCCAAAGCTTAAACTTACCTTAGGTCAGTCAGCCGCCACTCAACTAGACAAAACGTGATTAGAAGCCATAGGACCAAAAGGCCTAGCACTAACACAAATGACCATAGCAAAAGTTACAAACGACATCTCACGAGGAATAATTAAAACATACCTAACTATTTTCCTCCTAACCCTAATTCTAGCTATCCTACCTGTTCTCCTCTAAACTGCACGAAGGGCCCCACGACTTAAACCACGAGTGAGTTCCAACACAACAAGCAGGGTTAAAAGCAGCACCCAAGCACAAATCACCAATATTCCCCCACCCGATGAGTATATCACAGCTACCCCACTAACATCTCCACGTAAAACGGAGAACTCCTTCAGTCCATCAACAACCACCCACGATCCTTCATATCAGCCCCCTCAAAAGAACCCTGCCACCAAACCAACCCCTAAAAGATATACTAACACATAACCTAAAACGGAACGACTACCCCAGGCTTCAGGATAAGGCTCGGCGGCCAAAGCCGCTGAATAAGCAAAAACTACAAGCATCCCCCCTAGATAGATTAAAAAGAGAACTAAAGATAAAAAAGAGCCCCCATGACCAACCAAAACCCCGCATCCAACCCCAGCTGCAACCACTAAACCAAGAGCAGCAAAATAAGGAGTAGGATTAGAAGCAACAGCAACTAACCCCACAACCAAAGCTATTAATAATAAAAACATGAAATAGGTCATAATTCTTGCTCAGACTTTAACCGAGACCAATGACTTGAAGAACCACCGTTGTTATTCAACTACAAGAACCATTAATGGCAAGCCTACGAAAGACACACCCCCTCATTAAAATCGCTAATGACGCACTAGTTGACCTACCCACACCATCCAACATTTCAGCATGATGAAACTTTGGCTCTCTACTAGGATTATGCTTAATTACTCAAATTCTAACCGGCTTATTTCTAGCTATACACTATACCTCAGACATTTCAACCGCATTCTCATCCGTTACCCACATCTGCCGAGATGTAAACTACGGCTGACTAATTCGTAATATTCACGCCAATGGAGCATCATTCTTCTTCATCTGTATTTACATACACATTGGCCGAGGCCTATATTATGGATCATACCTTAACAAAGAAACCTGAAACATTGGAGTAGTTCTCCTACTCCTAGTTATAATGACAGCCTTTGTCGGTTATGTTCTTCCATGAGGACAAATGTCCTTTTGAGGCGCTACAGTAATCACAAACCTTCTATCCGCCGTGCCATATATAGGAGATATATTAGTTCAATGAATTTGAGGAGGCTTCTCCGTAGACAATGCAACATTAACACGATTCTTTGCATTTCACTTCCTTCTACCATTCATTATCGCCGCCGCTACTGTCATTCACCTACTGTTTCTCCACGAAACAGGATCAAATAACCCCATCGGACTGAACTCAGACGCAGACAAAATTTCTTTCCACCCATACTTTTCATACAAAGACCTCCTTGGGTTCGTGATTATACTACTAGCCCTCACACTCCTGGCATTATTCTCCCCAAACCTTTTAGGAGACCCAGAAAACTTCACTCCAGCCAATCCCCTGGTTACTCCCCCTCATATTAAACCAGAGTGATATTTCCTGTTTGCCTACGCCATTCTCCGATCAATTCCCAACAAACTAGGAGGAGTTCTTGCACTACTATTCTCCATCCTCGTACTAATAGTGGTACCCCTATTACATACCTCAAAACAACGAGGACTAACGTTCCGCCCAATCACCCAATTCCTATTTTGAACTCTAGTCGCAGACATGATTATCCTGACATGAATTGGAGGAATACCAGTAGAACATCCATTCATTATCATCGGACAAATCGCATCCGTCCTATATTTCGCACTGTTCCTTGTTCTCTTCCCACTAGCAGGATGATTAGAAAATAAAGCACTGAAATGAGCTTGCCCTAGTAGCTTAGCATAAAAGCATCGGTCTTGTAATCCGAAGATCGGAGGTTAAATTCCTCCCTAGCGCCCAGAAAAGAGAGATTTTAACTCTCACCCCTGGCTCCCAAAGCCAGAATTCTAAACTAAACTATTTTCTGG'
p1045
sbsS'_per_letter_annotations'
p1046
g1
(cBio.SeqRecord
_RestrictedDict
p1047
c__builtin__
dict
p1048
(dtRp1049
(dp1050
S'_length'
p1051
I16580
sbsg92
S'NC_006580.1'
p1052
sS'name'
p1053
S'NC_006580'
p1054
sb.