ccopy_reg
_reconstructor
p1
(cBio.SeqRecord
SeqRecord
p2
c__builtin__
object
p3
NtRp4
(dp5
S'dbxrefs'
p6
(lp7
S'Project:33935 BioProject:PRJNA33935'
p8
asS'description'
p9
S'Delphinus capensis mitochondrion, complete genome.'
p10
sS'annotations'
p11
(dp12
S'comment'
p13
S'REVIEWED REFSEQ: This record has been curated by NCBI staff. The\nreference sequence was derived from EU557094.\nCOMPLETENESS: full length.'
p14
sS'sequence_version'
p15
I1
sS'source'
p16
S'mitochondrion Delphinus capensis (Longbeaked common dolphin)'
p17
sS'taxonomy'
p18
(lp19
S'Eukaryota'
p20
aS'Metazoa'
p21
aS'Chordata'
p22
aS'Craniata'
p23
aS'Vertebrata'
p24
aS'Euteleostomi'
p25
aS'Mammalia'
p26
aS'Eutheria'
p27
aS'Laurasiatheria'
p28
aS'Cetartiodactyla'
p29
aS'Cetacea'
p30
aS'Odontoceti'
p31
aS'Delphinidae'
p32
aS'Delphinus'
p33
asS'keywords'
p34
(lp35
S''
asS'references'
p36
(lp37
g1
(cBio.SeqFeature
Reference
p38
g3
NtRp39
(dp40
g13
S'Publication Status: Online-Only'
p41
sS'title'
p42
S'Seven new dolphin mitochondrial genomes and a time-calibrated phylogeny of whales'
p43
sS'consrtm'
p44
S''
sS'journal'
p45
S'BMC Evol. Biol. 9, 20 (2009)'
p46
sS'location'
p47
(lp48
g1
(cBio.SeqFeature
FeatureLocation
p49
g3
NtRp50
(dp51
S'ref'
p52
NsS'_end'
p53
g1
(cBio.SeqFeature
ExactPosition
p54
c__builtin__
int
p55
I16385
tRp56
sS'_start'
p57
g1
(g54
g55
I0
tRp58
sS'_strand'
p59
NsS'ref_db'
p60
NsbasS'pubmed_id'
p61
S'19166626'
p62
sS'authors'
p63
S'Xiong,Y., Brandley,M.C., Xu,S., Zhou,K. and Yang,G.'
p64
sS'medline_id'
p65
S''
sbag1
(g38
g3
NtRp66
(dp67
g13
S''
sg42
S'Direct Submission'
p68
sg44
S'NCBI Genome Project'
p69
sg45
S'Submitted (06-FEB-2009) National Center for Biotechnology Information, NIH, Bethesda, MD 20894, USA'
p70
sg47
(lp71
g1
(g49
g3
NtRp72
(dp73
g52
Nsg53
g1
(g54
g55
I16385
tRp74
sg57
g1
(g54
g55
I0
tRp75
sg59
Nsg60
Nsbasg61
S''
sg63
S''
sg65
S''
sbag1
(g38
g3
NtRp76
(dp77
g13
S''
sg42
S'Direct Submission'
p78
sg44
S''
sg45
S"Submitted (10-MAR-2008) College of Life Sciences, Nanjing Normal University, 1 Wenyuan Road, Nanjing, Jiangsu 210046, The People's Republic of China"
p79
sg47
(lp80
g1
(g49
g3
NtRp81
(dp82
g52
Nsg53
g1
(g54
g55
I16385
tRp83
sg57
g1
(g54
g55
I0
tRp84
sg59
Nsg60
Nsbasg61
S''
sg63
S'Yang,G., Xiong,Y. and Xu,S.'
p85
sg65
S''
sbasS'accessions'
p86
(lp87
S'NC_012061'
p88
asS'data_file_division'
p89
S'MAM'
p90
sS'date'
p91
S'05-MAR-2009'
p92
sS'organism'
p93
S'Delphinus capensis'
p94
sS'gi'
p95
S'222839860'
p96
ssS'features'
p97
(lp98
g1
(cBio.SeqFeature
SeqFeature
p99
g3
NtRp100
(dp101
S'sub_features'
p102
(lp103
sS'location_operator'
p104
S''
sS'id'
p105
S'<unknown id>'
p106
sg47
g1
(g49
g3
NtRp107
(dp108
g52
Nsg53
g1
(g54
g55
I16385
tRp109
sg57
g1
(g54
g55
I0
tRp110
sg59
I1
sg60
NsbsS'type'
p111
S'source'
p112
sS'qualifiers'
p113
(dp114
S'organelle'
p115
(lp116
S'mitochondrion'
p117
asS'db_xref'
p118
(lp119
S'taxon:103584'
p120
asS'mol_type'
p121
(lp122
S'genomic DNA'
p123
asS'organism'
p124
(lp125
S'Delphinus capensis'
p126
asS'common'
p127
(lp128
S'Longbeaked common dolphin'
p129
assbag1
(g99
g3
NtRp130
(dp131
g102
(lp132
sg104
S''
sg105
g106
sg47
g1
(g49
g3
NtRp133
(dp134
g52
Nsg53
g1
(g54
g55
I72
tRp135
sg57
g1
(g54
g55
I0
tRp136
sg59
I1
sg60
Nsbsg111
S'tRNA'
p137
sg113
(dp138
S'product'
p139
(lp140
S'tRNA-Phe'
p141
assbag1
(g99
g3
NtRp142
(dp143
g102
(lp144
sg104
S''
sg105
g106
sg47
g1
(g49
g3
NtRp145
(dp146
g52
Nsg53
g1
(g54
g55
I1046
tRp147
sg57
g1
(g54
g55
I72
tRp148
sg59
I1
sg60
Nsbsg111
S'rRNA'
p149
sg113
(dp150
S'note'
p151
(lp152
S'12S ribosomal RNA'
p153
asS'product'
p154
(lp155
S's-rRNA'
p156
assbag1
(g99
g3
NtRp157
(dp158
g102
(lp159
sg104
S''
sg105
g106
sg47
g1
(g49
g3
NtRp160
(dp161
g52
Nsg53
g1
(g54
g55
I1113
tRp162
sg57
g1
(g54
g55
I1046
tRp163
sg59
I1
sg60
Nsbsg111
S'tRNA'
p164
sg113
(dp165
S'product'
p166
(lp167
S'tRNA-Val'
p168
assbag1
(g99
g3
NtRp169
(dp170
g102
(lp171
sg104
S''
sg105
g106
sg47
g1
(g49
g3
NtRp172
(dp173
g52
Nsg53
g1
(g54
g55
I2690
tRp174
sg57
g1
(g54
g55
I1113
tRp175
sg59
I1
sg60
Nsbsg111
S'rRNA'
p176
sg113
(dp177
S'note'
p178
(lp179
S'16S ribosomal RNA'
p180
asS'product'
p181
(lp182
S'l-rRNA'
p183
assbag1
(g99
g3
NtRp184
(dp185
g102
(lp186
sg104
S''
sg105
g106
sg47
g1
(g49
g3
NtRp187
(dp188
g52
Nsg53
g1
(g54
g55
I2554
tRp189
sg57
g1
(g54
g55
I2360
tRp190
sg59
I1
sg60
Nsbsg111
S'STS'
p191
sg113
(dp192
S'db_xref'
p193
(lp194
S'UniSTS:210357'
p195
asS'standard_name'
p196
(lp197
S'RH136367'
p198
assbag1
(g99
g3
NtRp199
(dp200
g102
(lp201
sg104
S''
sg105
g106
sg47
g1
(g49
g3
NtRp202
(dp203
g52
Nsg53
g1
(g54
g55
I2765
tRp204
sg57
g1
(g54
g55
I2690
tRp205
sg59
I1
sg60
Nsbsg111
S'tRNA'
p206
sg113
(dp207
S'codon_recognized'
p208
(lp209
S'UUR'
p210
asS'product'
p211
(lp212
S'tRNA-Leu'
p213
assbag1
(g99
g3
NtRp214
(dp215
g102
(lp216
sg104
S''
sg105
g106
sg47
g1
(g49
g3
NtRp217
(dp218
g52
Nsg53
g1
(g54
g55
I3723
tRp219
sg57
g1
(g54
g55
I2766
tRp220
sg59
I1
sg60
Nsbsg111
S'gene'
p221
sg113
(dp222
S'db_xref'
p223
(lp224
S'GeneID:7411836'
p225
asS'gene'
p226
(lp227
S'ND1'
p228
assbag1
(g99
g3
NtRp229
(dp230
g102
(lp231
sg104
S''
sg105
g106
sg47
g1
(g49
g3
NtRp232
(dp233
g52
Nsg53
g1
(g54
g55
I3723
tRp234
sg57
g1
(g54
g55
I2766
tRp235
sg59
I1
sg60
Nsbsg111
S'CDS'
p236
sg113
(dp237
S'product'
p238
(lp239
S'NADH dehydrogenase subunit 1'
p240
asS'codon_start'
p241
(lp242
S'1'
asS'transl_table'
p243
(lp244
S'2'
asS'db_xref'
p245
(lp246
S'GI:222839861'
p247
aS'GeneID:7411836'
p248
asS'translation'
p249
(lp250
S'MFMINILTLILPILLAVAFLTLVERKILGYMQFRKGPNIVGPYGLLQPFADAIKLFTKEPLRPATSSTTMFMIAPVLALALALTMWAPLPMPHPLINMNLGVLFMLAMSSLAVYSILWSGWASNSKYALIGALRAVAQTISYEVTLAIILLSVLLMNGSFTLSTLNTTQEKLWLLFPSWPLAMMWFISTLAETNRAPFDLTEGESELVSGFNVEYAAGPFALFFLAEYANIIMMNMFTTILFLGAFHDPYMPELCTTNLIIKSLLLTMSFLWIRASYPRFRYDQLMHLLWKNFLPLTLALCMWHISLPIMTAGIPPQT'
p251
asS'gene'
p252
(lp253
S'ND1'
p254
asS'protein_id'
p255
(lp256
S'YP_002587086.1'
p257
assbag1
(g99
g3
NtRp258
(dp259
g102
(lp260
sg104
S''
sg105
g106
sg47
g1
(g49
g3
NtRp261
(dp262
g52
Nsg53
g1
(g54
g55
I3796
tRp263
sg57
g1
(g54
g55
I3727
tRp264
sg59
I1
sg60
Nsbsg111
S'tRNA'
p265
sg113
(dp266
S'product'
p267
(lp268
S'tRNA-Ile'
p269
assbag1
(g99
g3
NtRp270
(dp271
g102
(lp272
sg104
S''
sg105
g106
sg47
g1
(g49
g3
NtRp273
(dp274
g52
Nsg53
g1
(g54
g55
I3866
tRp275
sg57
g1
(g54
g55
I3793
tRp276
sg59
I-1
sg60
Nsbsg111
S'tRNA'
p277
sg113
(dp278
S'product'
p279
(lp280
S'tRNA-Gln'
p281
assbag1
(g99
g3
NtRp282
(dp283
g102
(lp284
sg104
S''
sg105
g106
sg47
g1
(g49
g3
NtRp285
(dp286
g52
Nsg53
g1
(g54
g55
I3936
tRp287
sg57
g1
(g54
g55
I3867
tRp288
sg59
I1
sg60
Nsbsg111
S'tRNA'
p289
sg113
(dp290
S'product'
p291
(lp292
S'tRNA-Met'
p293
assbag1
(g99
g3
NtRp294
(dp295
g102
(lp296
sg104
S''
sg105
g106
sg47
g1
(g49
g3
NtRp297
(dp298
g52
Nsg53
g1
(g54
g55
I4978
tRp299
sg57
g1
(g54
g55
I3936
tRp300
sg59
I1
sg60
Nsbsg111
S'gene'
p301
sg113
(dp302
S'db_xref'
p303
(lp304
S'GeneID:7411835'
p305
asS'gene'
p306
(lp307
S'ND2'
p308
assbag1
(g99
g3
NtRp309
(dp310
g102
(lp311
sg104
S''
sg105
g106
sg47
g1
(g49
g3
NtRp312
(dp313
g52
Nsg53
g1
(g54
g55
I4978
tRp314
sg57
g1
(g54
g55
I3936
tRp315
sg59
I1
sg60
Nsbsg111
S'CDS'
p316
sg113
(dp317
S'product'
p318
(lp319
S'NADH dehydrogenase subunit 2'
p320
asS'transl_except'
p321
(lp322
S'(pos:4978,aa:TERM)'
p323
asS'codon_start'
p324
(lp325
S'1'
asS'transl_table'
p326
(lp327
S'2'
asS'note'
p328
(lp329
S"TAA stop codon is completed by the addition of 3' A residues to the mRNA"
p330
asS'db_xref'
p331
(lp332
S'GI:222839862'
p333
aS'GeneID:7411835'
p334
asS'translation'
p335
(lp336
S'MNPFVSITLLTTLILSTTIVTISSHWLFAWIGLEMNMMAIIPIMMKKPNPRATEASTKYFLTQATASSLLMLAIIINLMHSSQWTIMKLFDPTASILMTMALAIKLGLSPFHFWVPEVTQGIPLSTGLILLTWQKLAPISILYQISPSINLHLMITMSFLSILIGGWGGLNQTQLRKIMAYSSIAHMGWMTAILLYNPALTLLNLLIYIVMTFTMFMLLIQNSTTTTLLLSQTWNTMPIMTTFTMLTLLSMGGLPPLTGFMPKWMIIQELTKNDTLILPTLMAITALLNLYFYMRLTYSTALTLFPSTNNMKMKWQFYPTKQMTLLPTAIVLSTMLLPLTPAFFILL'
p337
asS'gene'
p338
(lp339
S'ND2'
p340
asS'protein_id'
p341
(lp342
S'YP_002587087.1'
p343
assbag1
(g99
g3
NtRp344
(dp345
g102
(lp346
sg104
S''
sg105
g106
sg47
g1
(g49
g3
NtRp347
(dp348
g52
Nsg53
g1
(g54
g55
I5047
tRp349
sg57
g1
(g54
g55
I4978
tRp350
sg59
I1
sg60
Nsbsg111
S'tRNA'
p351
sg113
(dp352
S'product'
p353
(lp354
S'tRNA-Trp'
p355
assbag1
(g99
g3
NtRp356
(dp357
g102
(lp358
sg104
S''
sg105
g106
sg47
g1
(g49
g3
NtRp359
(dp360
g52
Nsg53
g1
(g54
g55
I5121
tRp361
sg57
g1
(g54
g55
I5052
tRp362
sg59
I-1
sg60
Nsbsg111
S'tRNA'
p363
sg113
(dp364
S'product'
p365
(lp366
S'tRNA-Ala'
p367
assbag1
(g99
g3
NtRp368
(dp369
g102
(lp370
sg104
S''
sg105
g106
sg47
g1
(g49
g3
NtRp371
(dp372
g52
Nsg53
g1
(g54
g55
I5196
tRp373
sg57
g1
(g54
g55
I5121
tRp374
sg59
I-1
sg60
Nsbsg111
S'tRNA'
p375
sg113
(dp376
S'product'
p377
(lp378
S'tRNA-Asn'
p379
assbag1
(g99
g3
NtRp380
(dp381
g102
(lp382
sg104
S''
sg105
g106
sg47
g1
(g49
g3
NtRp383
(dp384
g52
Nsg53
g1
(g54
g55
I5230
tRp385
sg57
g1
(g54
g55
I5196
tRp386
sg59
I1
sg60
Nsbsg111
S'rep_origin'
p387
sg113
(dp388
S'direction'
p389
(lp390
S'LEFT'
p391
assbag1
(g99
g3
NtRp392
(dp393
g102
(lp394
sg104
S''
sg105
g106
sg47
g1
(g49
g3
NtRp395
(dp396
g52
Nsg53
g1
(g54
g55
I5294
tRp397
sg57
g1
(g54
g55
I5227
tRp398
sg59
I-1
sg60
Nsbsg111
S'tRNA'
p399
sg113
(dp400
S'product'
p401
(lp402
S'tRNA-Cys'
p403
assbag1
(g99
g3
NtRp404
(dp405
g102
(lp406
sg104
S''
sg105
g106
sg47
g1
(g49
g3
NtRp407
(dp408
g52
Nsg53
g1
(g54
g55
I5360
tRp409
sg57
g1
(g54
g55
I5294
tRp410
sg59
I-1
sg60
Nsbsg111
S'tRNA'
p411
sg113
(dp412
S'product'
p413
(lp414
S'tRNA-Tyr'
p415
assbag1
(g99
g3
NtRp416
(dp417
g102
(lp418
sg104
S''
sg105
g106
sg47
g1
(g49
g3
NtRp419
(dp420
g52
Nsg53
g1
(g54
g55
I6912
tRp421
sg57
g1
(g54
g55
I5361
tRp422
sg59
I1
sg60
Nsbsg111
S'gene'
p423
sg113
(dp424
S'db_xref'
p425
(lp426
S'GeneID:7411824'
p427
asS'gene'
p428
(lp429
S'COX1'
p430
asS'gene_synonym'
p431
(lp432
S'COI'
p433
assbag1
(g99
g3
NtRp434
(dp435
g102
(lp436
sg104
S''
sg105
g106
sg47
g1
(g49
g3
NtRp437
(dp438
g52
Nsg53
g1
(g54
g55
I6912
tRp439
sg57
g1
(g54
g55
I5361
tRp440
sg59
I1
sg60
Nsbsg111
S'CDS'
p441
sg113
(dp442
S'product'
p443
(lp444
S'cytochrome c oxidase subunit I'
p445
asS'codon_start'
p446
(lp447
S'1'
asS'gene_synonym'
p448
(lp449
S'COI'
p450
asS'transl_table'
p451
(lp452
S'2'
asS'db_xref'
p453
(lp454
S'GI:222839863'
p455
aS'GeneID:7411824'
p456
asS'translation'
p457
(lp458
S'MFMNRWLFSTNHKDIGTLYLLFGAWAGMVGTGLSLLIRAELGQPGTLIGDDQLYNVLVTAHAFVMIFFMVMPIMIGGFGNWLVPLMIGAPDMAFPRLNNMSFWLLPPSFLLLMASSMIEAGAGTGWTVYPPLAGNLAHAGASVDLTIFSLHLAGVSSILGAINFITTIINMKPPAMTQYQTPLFVWSVLVTAVLLLLSLPVLAAGITMLLTDRNLNTTFFDPAGGGDPILYQHLFWFFGHPEVYILILPGFGMISHIVTYYSGKKEPFGYMGMVWAMVSIGFLGFIVWAHHMFTVGMDVDTRAYFTSATMIIAIPTGVKVFSWLATLHGGNIKWSPALMWALGFIFLFTVGGLTGIILANSSLDIILHDTYYVVAHFHYVLSMGAVFAIMGGFVHWFPLFSGYTLNPTWTKIQFVIMFVGVNMTFFPQHFLGLSGMPRRYSDYPDAYTTWNTISSMGSFISLTAVMLMIFIIWEAFASKREVLAVDLTSTNLEWLNGCPPPYHTFEEPVYVNLKYS'
p459
asS'gene'
p460
(lp461
S'COX1'
p462
asS'protein_id'
p463
(lp464
S'YP_002587088.1'
p465
assbag1
(g99
g3
NtRp466
(dp467
g102
(lp468
sg104
S''
sg105
g106
sg47
g1
(g49
g3
NtRp469
(dp470
g52
Nsg53
g1
(g54
g55
I6976
tRp471
sg57
g1
(g54
g55
I6907
tRp472
sg59
I-1
sg60
Nsbsg111
S'tRNA'
p473
sg113
(dp474
S'codon_recognized'
p475
(lp476
S'UCN'
p477
asS'product'
p478
(lp479
S'tRNA-Ser'
p480
assbag1
(g99
g3
NtRp481
(dp482
g102
(lp483
sg104
S''
sg105
g106
sg47
g1
(g49
g3
NtRp484
(dp485
g52
Nsg53
g1
(g54
g55
I7051
tRp486
sg57
g1
(g54
g55
I6983
tRp487
sg59
I1
sg60
Nsbsg111
S'tRNA'
p488
sg113
(dp489
S'product'
p490
(lp491
S'tRNA-Asp'
p492
assbag1
(g99
g3
NtRp493
(dp494
g102
(lp495
sg104
S''
sg105
g106
sg47
g1
(g49
g3
NtRp496
(dp497
g52
Nsg53
g1
(g54
g55
I7735
tRp498
sg57
g1
(g54
g55
I7051
tRp499
sg59
I1
sg60
Nsbsg111
S'gene'
p500
sg113
(dp501
S'db_xref'
p502
(lp503
S'GeneID:7411825'
p504
asS'gene'
p505
(lp506
S'COX2'
p507
asS'gene_synonym'
p508
(lp509
S'COII'
p510
assbag1
(g99
g3
NtRp511
(dp512
g102
(lp513
sg104
S''
sg105
g106
sg47
g1
(g49
g3
NtRp514
(dp515
g52
Nsg53
g1
(g54
g55
I7735
tRp516
sg57
g1
(g54
g55
I7051
tRp517
sg59
I1
sg60
Nsbsg111
S'CDS'
p518
sg113
(dp519
S'product'
p520
(lp521
S'cytochrome c oxidase subunit II'
p522
asS'codon_start'
p523
(lp524
S'1'
asS'gene_synonym'
p525
(lp526
S'COII'
p527
asS'transl_table'
p528
(lp529
S'2'
asS'db_xref'
p530
(lp531
S'GI:222839864'
p532
aS'GeneID:7411825'
p533
asS'translation'
p534
(lp535
S'MAYPFQLGLQDAASPVMEELLQFHDHALMIVFLISSLVLYIITLMLTTKLTHTSTMDAQEVETIWTVLPAVILIMIALPSLRILYMMDEINNPSLTVKTMGHQWYWSYEYTDYEDLNFDSYMIPTSDLKPGELRLLEVDNRMVLPMQMTIRMLVSSEDVLHSWAVPSLGLKTDAIPGRLNQTTLMSTRPGLFYGQCSEICGSNHSFMPIVLELVPLENFEKWSASML'
p536
asS'gene'
p537
(lp538
S'COX2'
p539
asS'protein_id'
p540
(lp541
S'YP_002587089.1'
p542
assbag1
(g99
g3
NtRp543
(dp544
g102
(lp545
sg104
S''
sg105
g106
sg47
g1
(g49
g3
NtRp546
(dp547
g52
Nsg53
g1
(g54
g55
I7803
tRp548
sg57
g1
(g54
g55
I7738
tRp549
sg59
I1
sg60
Nsbsg111
S'tRNA'
p550
sg113
(dp551
S'product'
p552
(lp553
S'tRNA-Lys'
p554
assbag1
(g99
g3
NtRp555
(dp556
g102
(lp557
sg104
S''
sg105
g106
sg47
g1
(g49
g3
NtRp558
(dp559
g52
Nsg53
g1
(g54
g55
I7999
tRp560
sg57
g1
(g54
g55
I7807
tRp561
sg59
I1
sg60
Nsbsg111
S'gene'
p562
sg113
(dp563
S'db_xref'
p564
(lp565
S'GeneID:7411826'
p566
asS'gene'
p567
(lp568
S'ATP8'
p569
assbag1
(g99
g3
NtRp570
(dp571
g102
(lp572
sg104
S''
sg105
g106
sg47
g1
(g49
g3
NtRp573
(dp574
g52
Nsg53
g1
(g54
g55
I7999
tRp575
sg57
g1
(g54
g55
I7807
tRp576
sg59
I1
sg60
Nsbsg111
S'CDS'
p577
sg113
(dp578
S'product'
p579
(lp580
S'ATP synthase F0 subunit 8'
p581
asS'codon_start'
p582
(lp583
S'1'
asS'transl_table'
p584
(lp585
S'2'
asS'db_xref'
p586
(lp587
S'GI:222839865'
p588
aS'GeneID:7411826'
p589
asS'translation'
p590
(lp591
S'MPQLDTSTWLLTILSMIFTLFALLQLKISKHFYSPSPKPVDTKLQKQQTPWNHTWTKIYLPLS'
p592
asS'gene'
p593
(lp594
S'ATP8'
p595
asS'protein_id'
p596
(lp597
S'YP_002587090.1'
p598
assbag1
(g99
g3
NtRp599
(dp600
g102
(lp601
sg104
S''
sg105
g106
sg47
g1
(g49
g3
NtRp602
(dp603
g52
Nsg53
g1
(g54
g55
I8649
tRp604
sg57
g1
(g54
g55
I7968
tRp605
sg59
I1
sg60
Nsbsg111
S'gene'
p606
sg113
(dp607
S'db_xref'
p608
(lp609
S'GeneID:7411827'
p610
asS'gene'
p611
(lp612
S'ATP6'
p613
assbag1
(g99
g3
NtRp614
(dp615
g102
(lp616
sg104
S''
sg105
g106
sg47
g1
(g49
g3
NtRp617
(dp618
g52
Nsg53
g1
(g54
g55
I8649
tRp619
sg57
g1
(g54
g55
I7968
tRp620
sg59
I1
sg60
Nsbsg111
S'CDS'
p621
sg113
(dp622
S'product'
p623
(lp624
S'ATP synthase F0 subunit 6'
p625
asS'codon_start'
p626
(lp627
S'1'
asS'transl_table'
p628
(lp629
S'2'
asS'db_xref'
p630
(lp631
S'GI:222839866'
p632
aS'GeneID:7411827'
p633
asS'translation'
p634
(lp635
S'MNENLFTSFMIPVMLGIPITTLIIMFPTMLFPTPNRLINNRMIAIQQWLTKLTSKQLMVTHSPKGQTWSLMLISLFLFIASTNLLGMLPHSFTPTTQLSMNLGMAIPLWAGTVFIGFRNKTKMSLAHLLPLGTPTFLIPMLVMIETISLFIQPMALAVRLTANITAGHLLLHLIGSATLALMSISLFTALITFIILTLLIILEFAVALIQAYVFTLLVSLYLQDNT'
p636
asS'gene'
p637
(lp638
S'ATP6'
p639
asS'protein_id'
p640
(lp641
S'YP_002587091.1'
p642
assbag1
(g99
g3
NtRp643
(dp644
g102
(lp645
sg104
S''
sg105
g106
sg47
g1
(g49
g3
NtRp646
(dp647
g52
Nsg53
g1
(g54
g55
I9433
tRp648
sg57
g1
(g54
g55
I8648
tRp649
sg59
I1
sg60
Nsbsg111
S'gene'
p650
sg113
(dp651
S'db_xref'
p652
(lp653
S'GeneID:7411828'
p654
asS'gene'
p655
(lp656
S'COX3'
p657
asS'gene_synonym'
p658
(lp659
S'COIII'
p660
assbag1
(g99
g3
NtRp661
(dp662
g102
(lp663
sg104
S''
sg105
g106
sg47
g1
(g49
g3
NtRp664
(dp665
g52
Nsg53
g1
(g54
g55
I9433
tRp666
sg57
g1
(g54
g55
I8648
tRp667
sg59
I1
sg60
Nsbsg111
S'CDS'
p668
sg113
(dp669
S'product'
p670
(lp671
S'cytochrome c oxidase subunit III'
p672
asS'transl_except'
p673
(lp674
S'(pos:9432..9433,aa:TERM)'
p675
asS'codon_start'
p676
(lp677
S'1'
asS'gene_synonym'
p678
(lp679
S'COIII'
p680
asS'transl_table'
p681
(lp682
S'2'
asS'note'
p683
(lp684
S"TAA stop codon is completed by the addition of 3' A residues to the mRNA"
p685
asS'db_xref'
p686
(lp687
S'GI:222839867'
p688
aS'GeneID:7411828'
p689
asS'translation'
p690
(lp691
S'MTHQTHSYHMVNPSPWPLTGALSAFLMTSGLIMWFHFNSMILLTLSFLTNILTMYQWWRDIIRESTFQGHHTPTVQKGLRYGMILFILSEVLFFTGFFWAFYHSSLAPTPELGGSWPPTGIHPLNPLEVPLLNTSVLLASGVSITWAHHSLMEGNRKHMLQALFITIMLGLYFTLLQASEYYEAPFTISDGVYGSTFFVATGFHGLHVIIGSTFLIVCFMRQMMFHFTSNHHFGFEAAAWYWHFVDVVWLFLYVSIYWWGS'
p692
asS'gene'
p693
(lp694
S'COX3'
p695
asS'protein_id'
p696
(lp697
S'YP_002587092.1'
p698
assbag1
(g99
g3
NtRp699
(dp700
g102
(lp701
sg104
S''
sg105
g106
sg47
g1
(g49
g3
NtRp702
(dp703
g52
Nsg53
g1
(g54
g55
I9502
tRp704
sg57
g1
(g54
g55
I9433
tRp705
sg59
I1
sg60
Nsbsg111
S'tRNA'
p706
sg113
(dp707
S'product'
p708
(lp709
S'tRNA-Gly'
p710
assbag1
(g99
g3
NtRp711
(dp712
g102
(lp713
sg104
S''
sg105
g106
sg47
g1
(g49
g3
NtRp714
(dp715
g52
Nsg53
g1
(g54
g55
I9848
tRp716
sg57
g1
(g54
g55
I9502
tRp717
sg59
I1
sg60
Nsbsg111
S'gene'
p718
sg113
(dp719
S'db_xref'
p720
(lp721
S'GeneID:7411829'
p722
asS'gene'
p723
(lp724
S'ND3'
p725
assbag1
(g99
g3
NtRp726
(dp727
g102
(lp728
sg104
S''
sg105
g106
sg47
g1
(g49
g3
NtRp729
(dp730
g52
Nsg53
g1
(g54
g55
I9848
tRp731
sg57
g1
(g54
g55
I9502
tRp732
sg59
I1
sg60
Nsbsg111
S'CDS'
p733
sg113
(dp734
S'product'
p735
(lp736
S'NADH dehydrogenase subunit 3'
p737
asS'transl_except'
p738
(lp739
S'(pos:9848,aa:TERM)'
p740
asS'codon_start'
p741
(lp742
S'1'
asS'transl_table'
p743
(lp744
S'2'
asS'note'
p745
(lp746
S"TAA stop codon is completed by the addition of 3' A residues to the mRNA"
p747
asS'db_xref'
p748
(lp749
S'GI:222839868'
p750
aS'GeneID:7411829'
p751
asS'translation'
p752
(lp753
S'MNLLLTLLTNTTLALLLMLVAFWLPQLNTYAEKTSPYECGFDPMGSARLPFSMKFFLVAITFLLFDLEIALLLPLPWAIQTNNLTTMLLMALFLISLLAASLAYEWTQKGLEWDK'
p754
asS'gene'
p755
(lp756
S'ND3'
p757
asS'protein_id'
p758
(lp759
S'YP_002587093.1'
p760
assbag1
(g99
g3
NtRp761
(dp762
g102
(lp763
sg104
S''
sg105
g106
sg47
g1
(g49
g3
NtRp764
(dp765
g52
Nsg53
g1
(g54
g55
I9919
tRp766
sg57
g1
(g54
g55
I9849
tRp767
sg59
I1
sg60
Nsbsg111
S'tRNA'
p768
sg113
(dp769
S'product'
p770
(lp771
S'tRNA-Arg'
p772
assbag1
(g99
g3
NtRp773
(dp774
g102
(lp775
sg104
S''
sg105
g106
sg47
g1
(g49
g3
NtRp776
(dp777
g52
Nsg53
g1
(g54
g55
I10216
tRp778
sg57
g1
(g54
g55
I9919
tRp779
sg59
I1
sg60
Nsbsg111
S'gene'
p780
sg113
(dp781
S'db_xref'
p782
(lp783
S'GeneID:7411830'
p784
asS'gene'
p785
(lp786
S'ND4L'
p787
assbag1
(g99
g3
NtRp788
(dp789
g102
(lp790
sg104
S''
sg105
g106
sg47
g1
(g49
g3
NtRp791
(dp792
g52
Nsg53
g1
(g54
g55
I10216
tRp793
sg57
g1
(g54
g55
I9919
tRp794
sg59
I1
sg60
Nsbsg111
S'CDS'
p795
sg113
(dp796
S'product'
p797
(lp798
S'NADH dehydrogenase subunit 4L'
p799
asS'codon_start'
p800
(lp801
S'1'
asS'transl_table'
p802
(lp803
S'2'
asS'db_xref'
p804
(lp805
S'GI:222839869'
p806
aS'GeneID:7411830'
p807
asS'translation'
p808
(lp809
S'MSLVHINILIAFTVSLTGLLMYRSHLMSALLCLEGMVLSLFILATLTILNTHFTLANMMPIILLVFAACEAAIGLALLVMVSNTYGTDYVQNLNLLQC'
p810
asS'gene'
p811
(lp812
S'ND4L'
p813
asS'protein_id'
p814
(lp815
S'YP_002587094.1'
p816
assbag1
(g99
g3
NtRp817
(dp818
g102
(lp819
sg104
S''
sg105
g106
sg47
g1
(g49
g3
NtRp820
(dp821
g52
Nsg53
g1
(g54
g55
I11587
tRp822
sg57
g1
(g54
g55
I10209
tRp823
sg59
I1
sg60
Nsbsg111
S'gene'
p824
sg113
(dp825
S'db_xref'
p826
(lp827
S'GeneID:7411831'
p828
asS'gene'
p829
(lp830
S'ND4'
p831
assbag1
(g99
g3
NtRp832
(dp833
g102
(lp834
sg104
S''
sg105
g106
sg47
g1
(g49
g3
NtRp835
(dp836
g52
Nsg53
g1
(g54
g55
I11587
tRp837
sg57
g1
(g54
g55
I10209
tRp838
sg59
I1
sg60
Nsbsg111
S'CDS'
p839
sg113
(dp840
S'product'
p841
(lp842
S'NADH dehydrogenase subunit 4'
p843
asS'transl_except'
p844
(lp845
S'(pos:11587,aa:TERM)'
p846
asS'codon_start'
p847
(lp848
S'1'
asS'transl_table'
p849
(lp850
S'2'
asS'note'
p851
(lp852
S"TAA stop codon is completed by the addition of 3' A residues to the mRNA"
p853
asS'db_xref'
p854
(lp855
S'GI:222839870'
p856
aS'GeneID:7411831'
p857
asS'translation'
p858
(lp859
S'MLKFIIPTIMLMPLTWLSKSSFIWINTTTHSLLISFTSLLLLNQFNDNSLNYSLMFFSDPLSAPLLMLTMWLLPLMLMASQSHLLKEPLARKKLYITMLVMLQVLLIMTFTAMELIMFYIMFEATLIPTLIIITRWGNQTERLNAGLYFLFYTLMGSLPLLVALTYLQNTVGSLNFLLLQYWAQPLSTSWSNTFMWLACMMAFLVKMPLYGLHLWLPKAHVEAPIAGSMVLAAVLLKLGGYGMLRITSILNPLTEHMAYPFLVLSLWGMIMTSSICLRQTDLKSLIAYSSVSHMALVIAAVLIQTPWSYMGATALMIAHGLTSSMLFCLANSNYERIHSRTMILARGLQIFFPLMATWWLLACLTNLALPPTINLIGELLVIMSTFSWSNLTIILMGVNIVITALYSLYMLIMTQRGKHTHHINNLTPTFTREHALMALHIIPLLLLSLNPKIILGPLY'
p860
asS'gene'
p861
(lp862
S'ND4'
p863
asS'protein_id'
p864
(lp865
S'YP_002587095.1'
p866
assbag1
(g99
g3
NtRp867
(dp868
g102
(lp869
sg104
S''
sg105
g106
sg47
g1
(g49
g3
NtRp870
(dp871
g52
Nsg53
g1
(g54
g55
I11656
tRp872
sg57
g1
(g54
g55
I11587
tRp873
sg59
I1
sg60
Nsbsg111
S'tRNA'
p874
sg113
(dp875
S'product'
p876
(lp877
S'tRNA-His'
p878
assbag1
(g99
g3
NtRp879
(dp880
g102
(lp881
sg104
S''
sg105
g106
sg47
g1
(g49
g3
NtRp882
(dp883
g52
Nsg53
g1
(g54
g55
I11717
tRp884
sg57
g1
(g54
g55
I11656
tRp885
sg59
I1
sg60
Nsbsg111
S'tRNA'
p886
sg113
(dp887
S'codon_recognized'
p888
(lp889
S'AGY'
p890
asS'product'
p891
(lp892
S'tRNA-Ser'
p893
assbag1
(g99
g3
NtRp894
(dp895
g102
(lp896
sg104
S''
sg105
g106
sg47
g1
(g49
g3
NtRp897
(dp898
g52
Nsg53
g1
(g54
g55
I11788
tRp899
sg57
g1
(g54
g55
I11718
tRp900
sg59
I1
sg60
Nsbsg111
S'tRNA'
p901
sg113
(dp902
S'codon_recognized'
p903
(lp904
S'CUN'
p905
asS'product'
p906
(lp907
S'tRNA-Leu'
p908
assbag1
(g99
g3
NtRp909
(dp910
g102
(lp911
sg104
S''
sg105
g106
sg47
g1
(g49
g3
NtRp912
(dp913
g52
Nsg53
g1
(g54
g55
I13609
tRp914
sg57
g1
(g54
g55
I11788
tRp915
sg59
I1
sg60
Nsbsg111
S'gene'
p916
sg113
(dp917
S'db_xref'
p918
(lp919
S'GeneID:7411832'
p920
asS'gene'
p921
(lp922
S'ND5'
p923
assbag1
(g99
g3
NtRp924
(dp925
g102
(lp926
sg104
S''
sg105
g106
sg47
g1
(g49
g3
NtRp927
(dp928
g52
Nsg53
g1
(g54
g55
I13609
tRp929
sg57
g1
(g54
g55
I11788
tRp930
sg59
I1
sg60
Nsbsg111
S'CDS'
p931
sg113
(dp932
S'product'
p933
(lp934
S'NADH dehydrogenase subunit 5'
p935
asS'codon_start'
p936
(lp937
S'1'
asS'transl_table'
p938
(lp939
S'2'
asS'db_xref'
p940
(lp941
S'GI:222839871'
p942
aS'GeneID:7411832'
p943
asS'translation'
p944
(lp945
S'MNLFTSSTLLTLLMLMAPIVASSTNFYKNNKYQHYVKNMTLFAFITSLIPMTMFIHTNQEMLISNWHWITIHTLKLTLSFKMDYFSLMFMPVALFITWSIMEFSMWYMHSDPYINQFFKYLLIFLITMLILVTANNLFQLFIGWEGVGIMSFLLIGWWFGRTDANTAALQAILYNRIGDIGFLLSMAWFLHNTNAWDLQQIFTLNQNPPILPLMGITLAAAGKSAQFGLHPWLPSAMEGPTPVSALLHSSTMVVAGIFLLIRFYPLTENNKFIQTMMLSLGALTTLFTAICALTQNDIKKIIAFSTSSQLGLMMVTLGLNQPHLAFLHICTHAFFKAMLFLCSGSIIHNLNNEQDIRKMGGLYKILPFTTTALIIGCFALTGMPFLTGFYSKDLIIEAATSSYTNAWALLLTLIATSMTAIYSTRIIFFTLLEQPRFPPLMNINENNPMLINPIKRLLIGSIFAGFILSNSMPPMNIPLMTMPLYLKLTALMVTILGFILAFEINNYSKNLKYPYSSDSTKFSTLLGYFPTIMHRLPPHLVLTMSQKFATSLLDLTWTETILPKTTALIQLKASTLTSNQKGLIKLYFLSFLITMTLSMLLFNYPE'
p946
asS'gene'
p947
(lp948
S'ND5'
p949
asS'protein_id'
p950
(lp951
S'YP_002587096.1'
p952
assbag1
(g99
g3
NtRp953
(dp954
g102
(lp955
sg104
S''
sg105
g106
sg47
g1
(g49
g3
NtRp956
(dp957
g52
Nsg53
g1
(g54
g55
I14120
tRp958
sg57
g1
(g54
g55
I13592
tRp959
sg59
I-1
sg60
Nsbsg111
S'gene'
p960
sg113
(dp961
S'db_xref'
p962
(lp963
S'GeneID:7411833'
p964
asS'gene'
p965
(lp966
S'ND6'
p967
assbag1
(g99
g3
NtRp968
(dp969
g102
(lp970
sg104
S''
sg105
g106
sg47
g1
(g49
g3
NtRp971
(dp972
g52
Nsg53
g1
(g54
g55
I14120
tRp973
sg57
g1
(g54
g55
I13592
tRp974
sg59
I-1
sg60
Nsbsg111
S'CDS'
p975
sg113
(dp976
S'product'
p977
(lp978
S'NADH dehydrogenase subunit 6'
p979
asS'codon_start'
p980
(lp981
S'1'
asS'transl_table'
p982
(lp983
S'2'
asS'db_xref'
p984
(lp985
S'GI:222839872'
p986
aS'GeneID:7411833'
p987
asS'translation'
p988
(lp989
S'MAMYIVFIMSTIFVISLVGVSSKPSPIYGGLGLIVGGAMGCGIVFSFGGSFLGLMVFLIYLGGMLVVFGYTTAMATEQYPEVWVSNKVVLGGFVLGLVLELLVVLYVLEGGKVNFVFEFNGLGDWVIYDTGDSGFFSEEAMGIAALYSYGTWLVIVTGWSLFIGVVVIMEITRGN'
p990
asS'gene'
p991
(lp992
S'ND6'
p993
asS'protein_id'
p994
(lp995
S'YP_002587097.1'
p996
assbag1
(g99
g3
NtRp997
(dp998
g102
(lp999
sg104
S''
sg105
g106
sg47
g1
(g49
g3
NtRp1000
(dp1001
g52
Nsg53
g1
(g54
g55
I14189
tRp1002
sg57
g1
(g54
g55
I14120
tRp1003
sg59
I1
sg60
Nsbsg111
S'tRNA'
p1004
sg113
(dp1005
S'product'
p1006
(lp1007
S'tRNA-Glu'
p1008
assbag1
(g99
g3
NtRp1009
(dp1010
g102
(lp1011
sg104
S''
sg105
g106
sg47
g1
(g49
g3
NtRp1012
(dp1013
g52
Nsg53
g1
(g54
g55
I15333
tRp1014
sg57
g1
(g54
g55
I14193
tRp1015
sg59
I1
sg60
Nsbsg111
S'gene'
p1016
sg113
(dp1017
S'db_xref'
p1018
(lp1019
S'GeneID:7411834'
p1020
asS'gene'
p1021
(lp1022
S'CYTB'
p1023
assbag1
(g99
g3
NtRp1024
(dp1025
g102
(lp1026
sg104
S''
sg105
g106
sg47
g1
(g49
g3
NtRp1027
(dp1028
g52
Nsg53
g1
(g54
g55
I15333
tRp1029
sg57
g1
(g54
g55
I14193
tRp1030
sg59
I1
sg60
Nsbsg111
S'CDS'
p1031
sg113
(dp1032
S'product'
p1033
(lp1034
S'cytochrome b'
p1035
asS'codon_start'
p1036
(lp1037
S'1'
asS'transl_table'
p1038
(lp1039
S'2'
asS'db_xref'
p1040
(lp1041
S'GI:222839873'
p1042
aS'GeneID:7411834'
p1043
asS'translation'
p1044
(lp1045
S'MTNIRKTHPLMKILNDAFIDLPTPSNISSWWNFGSLLGLCLIMQILTGLFLAMHYTPDTSTAFSSVAHICRDVNYGWFIRYLHANGASMFFICLYAHIGRGLYYGSYMFQETWNIGVLLLLTVMATAFVGYVLPWGQMSFWGATVITNLLSAIPYIGTTLVEWIWGGFSVDKATLTRFFAFHFILPFIITALAAVHLLFLHETGSNNPTGIPSNMDMIPFHPYYTIKDILGALLLILTLLALTLFTPDLLGDPDNYTPANPLSTPAHIKPEWYFLFAYAILRSIPNKLGGVLALLLSILILIFIPMLQTSKQRSMMFRPFSQLLFWTLIADLLTLTWIGGQPVEHPYIIVGQLASILYFLLILVLMPTAGLIENKLLKW'
p1046
asS'gene'
p1047
(lp1048
S'CYTB'
p1049
asS'protein_id'
p1050
(lp1051
S'YP_002587098.1'
p1052
assbag1
(g99
g3
NtRp1053
(dp1054
g102
(lp1055
sg104
S''
sg105
g106
sg47
g1
(g49
g3
NtRp1056
(dp1057
g52
Nsg53
g1
(g54
g55
I15404
tRp1058
sg57
g1
(g54
g55
I15333
tRp1059
sg59
I1
sg60
Nsbsg111
S'tRNA'
p1060
sg113
(dp1061
S'product'
p1062
(lp1063
S'tRNA-Thr'
p1064
assbag1
(g99
g3
NtRp1065
(dp1066
g102
(lp1067
sg104
S''
sg105
g106
sg47
g1
(g49
g3
NtRp1068
(dp1069
g52
Nsg53
g1
(g54
g55
I15470
tRp1070
sg57
g1
(g54
g55
I15403
tRp1071
sg59
I1
sg60
Nsbsg111
S'tRNA'
p1072
sg113
(dp1073
S'product'
p1074
(lp1075
S'tRNA-Pro'
p1076
assbag1
(g99
g3
NtRp1077
(dp1078
g102
(lp1079
sg104
S''
sg105
g106
sg47
g1
(g49
g3
NtRp1080
(dp1081
g52
Nsg53
g1
(g54
g55
I16385
tRp1082
sg57
g1
(g54
g55
I15470
tRp1083
sg59
I1
sg60
Nsbsg111
S'D-loop'
p1084
sg113
(dp1085
sbasS'_seq'
p1086
g1
(cBio.Seq
Seq
p1087
g3
NtRp1088
(dp1089
S'alphabet'
p1090
g1
(cBio.Alphabet.IUPAC
IUPACAmbiguousDNA
p1091
g3
NtRp1092
sS'_data'
p1093
S'GTTAATGTAGCTTAAATTTTTACAAAGCAAGACACTGAAAATGTCTAGATGGGCATTATTGCCCCATCAACATAAAGGTTTGGTCCTGGCCTTTCTATTAGTTCTTAGCAGACTTACACATGCAAGCATCCGCATCCCAGTGAGAATGCCCTCCAAATCATTAAAGACTAAAAGGAGCGGGCATCAAGCACACTATACCAGTAGCTCATAACGCCTTGCTTAGCCACACCCCCACGGGATACAGCAGTGACAAGAATTAGGCTATGAACGAAAGTTTGACCTAGCCATGCTAATTAGGGTTGGTAAATTTCGTGCCAGCCACCGCGGTCATACGATTGACCCAAACTAATAGACACCCGGCGTAAAGAGTGTCAAAGAACAATATAAAAATAAAGTCAAACCTTAATTAAGCTGTAAAAAGCCATAATTAAAATTAAGTTAAACTACGAAAGTAACTTTACCATAAACTGAGTACACGACAACTAAGACCCAAACTGGGATTAGATACCCCACTATGCTTAGTCGTAAACTTAAATAATCCCAAAACAAGATTATTCGCCAGAGTACTATCGGCAACAGCCCAAAACTCAAAGGACTTGGCGGTGCTTCATATCCTTCTAGAGGAGCCTGTTCTGTAAACGATAAACCACGATTAACCTCACCAATCCTTGCTACTTCAGTCTATATACCGCCATCTTCAGCAAACCCTAAAAAAGGAACGAAAGTAAGCACAACTACTGCACGTAAAAACGTTAGGTCAAGGTGTAACCTATGGATTGGGAAGAAATGGGCTACATTTTCTATAATAAGAACACCCCTTAAACTCACACGAAAGTTTTTATGAAACCTAAAAACTAAAGGAGGATTTAGCAGTAAATTAAGAATAGAATGCTTAATTGAATAAGGCCATGAAGCACGCACACACCGCCCGTCACCCTCCTCAAGTGCCATAGCAAAGCCCCAGATTGCTAACCCATGCTAAGCAAGCGTACAAGAGGAGACAAGTCGTAACAAGGTAAGCATACCGGAAGGTGTGCTTGGATAAACAAGATGTAGCTTAAACAAAGCATCTAGTTTACACCTAGAAGATTCCACAACTCGTGCACATCTTGAACTATATCTAGCCCATACTCCTCCTCATCACTACTACTATAAGTCAGTCAAATAAAACATTTACCATACATCTAAAGTATAGGAGATAGAAATTTAATTATCAATGGCGCTATAGAGAAAGTACCGTAAGGGAAAGATGAAAGAATTATTAAAAGTAGAAAAAAGCAAAGTTTACCCCTTGTACCTTTTGCATAATGATTTAACTAGTAATAATTTAGCAAAGAGACCTTAAGTTAAATTACCCGAAACCAGACGAGCTACTTATGAGCAGTAACTAGAACAAACTCATCTATGTGGCAAAATAGTGAGAAGACTTATAAGTAGAGGTGAAAAGCCTAACGAGCCTGGTGATAGCTGGTTGTCCAAGAAAGGAATTTCAGTTCAACATTAAACAATACTAAAAACCATATTAAGTTTCAACGTATGTTTAACTGTTAGTCTAAAAAGGTACAGCTTTTTAGAAATGGATACAACCTTTACTAGAGAGTAACATAAAACTTAAACCATAGTTGGCCTAAAAGCAGCCATCAATTAAGAAAGCGTTCAAGCTCAACAACAAAAACAAGTTTTAATTTCAACAATAAATAAAAAACTCCTAGCCAGACTATTGGACTAATCTATTTAATTATAGAAGAAATACTGTTAATATGAGTAACAAGAAAATTTTTCTCCTTGCACAAGCTTATATCAGTAACTGATAATATACTGATAGTTAACAGCTAATAAATATAACCTAACACTAAACTATTTATTAATCACACTGTTAATCCAACACAGGTGTGCACCAAGGAAAGATTAAAAAGAGTAAAAGGAACTCGGCAAACACAAACCCCGCCTGTTTACCAAAAACATCACCTCTAGCATAACTAGTATTAGAGGCACTGCCTGCCCAGTGACAATCGTTAAACGGCCGCGGTATCTTGACCGTGCAAAGGTAGCATAATCACTTGTTCTCTAAATAAGGACTTGTATGAATGGCCACACGAGGGTTTTACTGTCTCTTACTCTTAATCAGTGAAATTGACCTCCCCGTGAAGAGGCGGGGATAATACAATAAGACGAGAAGACCCTATGGAGCTTTAATTAATCAACTCAAAAAGCATAAAATAATACCACCAAGGGATAACAAAGCTTTAGATGAGCTGACAATTTCGGTTGGGGTGACCTCGGAGTATAAAAAACCCTCCGAGTGATTAAAACTTAGGCCTACTAGCCAAAGTATAGTATCACTTATTGATCCAAAATTTTGATCAACGGAACAAGTTACCCTAGGGATAACAGCGCAATCCTATTCTAGAGTCCATATCGACAATAGGGTTTACGACCTCGATGTTGGATCAGGACATCCTAATGGTGCAGCAGCTATTAAGGGTTCGTTTGTTCAACGATTAAAGTCCTACGTGATCTGAGTTCAGACCGGAGTAATCCAGGTCGGTTTCTATCTATTACGCATTTCTCCCAGTACGAAAGGACAAGAGAAATAAGGCCAACTTTAAAAAAGCGCCTTCAAACAATTAGTGACCCAGTCTCAACCTAATAACCTAGCGCAAACATACCCTGCCCAAGATCAGGGCTTTGTTGAAGTGGCAGAGTACGGCAATTGCATAAAACTTAAGCTTTTATACCCAGAGGTTCAAATCCCCTCTTCAACAAATGTTTATAATTAACATTCTAACACTCATTCTCCCTATCCTCTTAGCTGTAGCATTCCTAACGCTAGTAGAACGTAAAATCCTAGGCTATATACAATTCCGAAAAGGACCAAATATCGTAGGCCCATACGGCCTACTACAACCTTTCGCTGATGCAATCAAACTATTCACTAAAGAACCACTACGACCAGCTACATCTTCAACTACCATATTTATAATTGCACCCGTACTTGCACTAGCCCTAGCTCTCACAATATGAGCTCCCCTACCCATACCACACCCACTTATCAACATAAACCTAGGAGTACTATTCATACTAGCAATATCAAGCCTAGCCGTCTACTCCATCTTATGATCCGGATGAGCTTCCAATTCAAAATACGCTCTAATTGGAGCTCTGCGAGCAGTAGCACAAACAATCTCATACGAAGTAACACTAGCTATTATTCTACTATCAGTACTTCTAATAAACGGCTCTTTCACTCTATCCACACTAAACACCACACAAGAAAAACTATGACTACTCTTTCCTTCATGACCACTAGCCATAATATGATTTATCTCCACCTTAGCAGAAACTAACCGAGCCCCCTTCGACCTTACAGAAGGAGAATCAGAACTCGTATCTGGCTTTAACGTAGAATACGCTGCTGGTCCTTTCGCCCTATTCTTCTTAGCAGAATATGCCAACATTATCATAATAAATATATTCACAACTATCTTATTTCTGGGAGCATTCCATGATCCCTATATACCAGAATTATGTACAACAAACCTAATTATCAAATCACTACTACTAACAATATCCTTCCTATGAATCCGAGCATCCTACCCCCGATTCCGATATGACCAACTAATACACCTTCTTTGAAAAAATTTCCTCCCACTGACACTAGCTCTCTGCATATGACATATCTCATTACCCATCATAACAGCAGGTATCCCACCCCAAACATAAAACAAGAAATATGTCTGACAAAAGAGTTACTTTGATAGAGTAAATAATAGAGGTTTAAGTCCTCTTATTTCTAGAACAATAGGAATCGAACCTACCCTTAAGAATTCAAAATTCTTCGTGCTACCACACTACACCATAATCTACAGTAAGGTCAGCTAAATAAGCTACCGGGCCCATACCCCGGAAATGTTGGTTTATACCCTTCCCATACTAATTAACCCATTCGTCTCTATCACTCTACTAACAACCCTCATCCTAAGCACAACAATTGTCACCATTAGCTCCCATTGATTGTTTGCCTGAATCGGACTAGAAATAAACATAATAGCTATCATCCCCATCATAATAAAAAAACCTAACCCCCGAGCCACAGAAGCCTCAACCAAATACTTTCTAACACAAGCCACAGCGTCCTCATTACTTATACTAGCAATTATTATCAACCTAATACATTCTAGCCAATGAACCATCATAAAATTATTTGACCCAACAGCATCCATTCTAATAACAATAGCCCTAGCTATTAAACTAGGATTATCCCCTTTTCACTTCTGAGTACCAGAAGTCACACAAGGCATTCCCCTAAGCACAGGACTAATCCTACTTACATGACAAAAACTAGCACCTATCTCAATTCTTTACCAAATTTCACCATCAATCAACCTACACCTAATAATCACTATGTCCTTCCTATCGATTCTAATTGGAGGTTGAGGTGGACTAAACCAAACACAACTCCGAAAAATTATAGCCTACTCATCAATTGCCCACATAGGATGAATAACTGCTATTTTACTATACAACCCAGCTCTTACCCTGCTAAACCTACTAATTTATATTGTAATAACCTTTACCATATTTATATTACTCATTCAAAACTCCACTACCACCACACTGCTACTATCCCAAACATGAAATACAATACCCATTATAACAACTTTTACTATACTCACCCTACTCTCCATAGGAGGTCTTCCTCCACTCACAGGCTTTATACCTAAATGAATAATTATTCAAGAACTAACAAAAAACGACACTCTCATCTTACCCACCCTCATAGCCATCACAGCTCTACTCAACCTATACTTTTACATACGCCTTACCTACTCTACAGCATTAACCCTATTTCCCTCCACCAATAATATAAAAATAAAATGACAATTCTACCCTACAAAACAAATAACCCTCCTACCAACAGCAATCGTACTATCCACAATACTCCTACCCCTCACACCAGCATTCTTTATCCTACTATAGGGGTTTAGGTTAAACAAGACCAAGAGCCTTCAAAGCCCTAAGCAAGTATAATTTTACTTAACCCCTGCCCAATAAGGATTGCAAGACTATATCTTACATCAATTGAATGCAAATCAAACACTTTAATTAAGCTAAATCCTCACTAGATTGGAGGGATACATCTCCCACGAACTTTTAGTTAACAGCTAAATACCCTAGTAAACTGGCTTCAATCTACTTCTCCCGCCGCGAGAAAAAAAGGCGGGAGAAGTCCCGGCAGGATTGAAGCTGCTTCTTTGAATTTGCAATTCAAAATGATCATTCACTACAGGACTTGGTAAAAAGAGGACTTTACCTCTGTCTTTAGATTTACAGTCTAATGCCTACTCGACCATTTTACCTATGTTCATAAACCGATGACTATTCTCTACCAATCACAAAGACATTGGTACCCTATATTTACTATTTGGCGCTTGGGCAGGAATAGTAGGTACCGGTCTGAGTTTGTTGATTCGTGCTGAATTAGGTCAACCTGGCACACTTATCGGAGACGACCAGCTTTATAATGTTCTAGTGACAGCTCATGCCTTCGTAATAATTTTCTTTATAGTTATACCTATCATAATTGGAGGTTTTGGGAACTGATTAGTCCCCTTAATAATTGGAGCTCCTGACATAGCATTCCCTCGTCTAAACAACATAAGCTTCTGACTACTCCCCCCTTCCTTTCTACTACTAATAGCATCTTCAATAATTGAGGCCGGCGCAGGTACAGGCTGAACTGTTTACCCTCCTCTAGCCGGAAATCTAGCACATGCAGGAGCCTCAGTAGACCTTACTATTTTCTCTCTACATTTAGCCGGTGTATCTTCAATCCTTGGAGCTATTAACTTCATCACAACTATCATTAATATAAAACCACCCGCTATAACTCAATACCAAACACCTCTCTTCGTCTGATCAGTCTTAGTCACAGCAGTCTTACTTTTACTATCATTACCTGTTCTAGCAGCCGGAATTACCATACTATTAACCGATCGAAACCTAAACACAACCTTTTTCGACCCGGCAGGAGGAGGTGACCCAATCTTATATCAACACTTATTCTGATTTTTTGGCCATCCTGAAGTATATATTTTAATTCTACCCGGCTTTGGAATAATTTCACACATCGTTACTTATTATTCAGGGAAAAAAGAACCTTTTGGGTATATGGGAATAGTATGAGCTATAGTTTCTATTGGTTTCCTAGGTTTCATTGTATGAGCTCATCATATGTTCACAGTTGGAATAGACGTAGACACACGAGCATATTTTACATCAGCTACTATAATTATCGCAATTCCTACAGGAGTAAAAGTTTTCAGTTGACTAGCAACACTTCACGGAGGAAATATTAAATGATCTCCTGCCCTAATATGAGCTCTAGGCTTTATCTTCTTATTCACAGTAGGAGGCCTAACCGGTATCATCCTAGCTAACTCATCCCTAGATATCATCCTTCATGACACCTATTATGTAGTTGCTCATTTTCACTACGTACTTTCAATAGGAGCTGTATTTGCCATCATAGGAGGCTTCGTTCACTGATTCCCACTATTTTCAGGGTATACACTCAACCCAACATGAACAAAAATTCAATTCGTAATTATATTCGTAGGTGTAAATATGACATTCTTCCCACAACACTTCCTAGGCCTATCTGGAATGCCTCGCCGATATTCTGACTATCCAGATGCTTACACAACATGAAACACCATTTCATCAATAGGCTCATTTATCTCACTAACAGCAGTTATACTAATAATCTTCATTATCTGAGAAGCATTCGCATCTAAACGAGAGGTATTAGCGGTAGATCTCACTTCCACAAACCTTGAATGACTAAACGGGTGTCCTCCACCATACCACACATTCGAAGAACCAGTATACGTCAACTTAAAATATTCAAGAAAGGAAGGAATCGAACCCCCTCTAATCGGTTTCAAGCCAACATCATAACCATTATGTCTTTCTTTATGAACGAGATATTAGTAAAGTCTTACGTAACTTTGTCAAAGTTAAATCACAAGTGAAAATCCTGTATATCTCCATGGCTTATCCCTTTCAACTAGGCTTACAAGACGCAGCATCACCCGTTATAGAAGAACTTCTACAATTTCATGACCATGCATTGATGATCGTCTTCTTAATCAGCTCCTTAGTTCTTTATATCATTACACTAATACTAACAACCAAATTAACTCACACTAGTACAATAGACGCTCAAGAAGTAGAGACTATTTGAACCGTCCTCCCAGCCGTTATTCTAATCATAATCGCCCTGCCTTCTCTACGAATTCTCTACATAATAGACGAAATTAATAACCCCTCTCTTACCGTAAAAACAATAGGACATCAATGATACTGAAGCTATGAATATACCGACTATGAAGACCTAAACTTTGACTCATACATAATTCCAACCTCAGATCTAAAACCAGGCGAACTACGATTATTAGAAGTAGATAATCGAATGGTTCTACCCATACAAATGACAATCCGAATGTTAGTCTCCTCAGAAGATGTGTTACACTCATGAGCTGTCCCTTCCCTAGGCCTAAAAACAGACGCAATTCCTGGCCGCCTAAACCAAACAACCCTAATATCAACACGACCTGGTCTGTTCTATGGGCAATGCTCAGAAATTTGCGGCTCTAATCACAGCTTTATACCAATCGTTCTCGAACTAGTACCTTTAGAGAATTTTGAAAAATGATCTGCATCCATATTATAATTTCACTAAGAAGCTAAACTAGCGTTAACCTTTTAAGTTAAAGATTGAGAGTTACAAACTCCCCTTAGTGATATGCCACAACTAGATACATCAACATGGCTCCTTACCATTCTCTCTATAATCTTCACCCTGTTTGCACTACTTCAACTAAAAATTTCAAAGCACTTTTACTCTCCTTCCCCTAAACCAGTAGACACTAAACTACAAAAACAACAAACCCCTTGAAATCATACATGAACGAAAATCTATTTACCTCTTTCATAATCCCAGTTATACTAGGTATTCCCATTACTACCCTAATTATTATATTTCCCACCATGCTATTTCCAACACCAAATCGATTAATCAATAACCGCATGATCGCTATCCAACAATGACTTACTAAACTCACATCAAAACAACTAATAGTTACACATAGCCCCAAAGGACAAACCTGATCCCTAATACTCATCTCACTTTTCCTTTTCATCGCTTCCACAAATCTTCTTGGAATATTACCTCACTCATTCACACCTACTACTCAACTCTCTATAAATTTAGGCATAGCTATTCCATTATGAGCTGGCACCGTCTTTATCGGCTTCCGTAATAAGACAAAAATATCTCTAGCTCACCTTTTACCACTAGGCACACCCACTTTCCTAATTCCTATATTGGTAATAATCGAAACTATTAGCCTATTTATTCAACCCATAGCCCTAGCAGTGCGGCTGACAGCGAATATCACAGCAGGTCACCTACTACTACATCTAATTGGAAGCGCAACCCTTGCATTAATAAGCATTAGTCTATTCACAGCTCTCATCACATTTATTATTCTCACCCTATTAATCATCCTTGAATTCGCTGTAGCTCTGATCCAAGCCTACGTATTCACCCTATTAGTAAGCCTATACTTGCAAGACAATACATAATGACCCACCAAACCCATTCATATCACATAGTAAATCCCAGTCCTTGACCACTCACAGGAGCTCTCTCAGCATTCCTCATAACATCAGGCCTAATCATATGATTCCATTTCAACTCAATAATTTTACTAACCCTAAGTTTTTTAACAAATATCTTAACAATATACCAATGATGACGAGATATCATCCGAGAAAGTACTTTCCAGGGTCACCACACACCAACCGTTCAAAAAGGACTTCGATATGGCATAATCCTATTTATCTTATCAGAAGTCCTATTCTTTACAGGCTTTTTCTGAGCCTTTTATCACTCAAGCCTTGCCCCCACTCCTGAACTAGGAGGCTCCTGACCACCAACAGGTATCCACCCCCTAAACCCACTAGAAGTTCCACTCCTCAATACTTCTGTACTATTAGCTTCTGGTGTATCTATTACTTGAGCCCACCATAGTCTCATAGAAGGTAACCGCAAACATATACTCCAAGCTCTCTTCATTACAATCATACTCGGTCTCTATTTCACCCTACTCCAAGCATCAGAGTACTATGAAGCCCCATTTACAATCTCAGATGGAGTTTACGGCTCTACTTTCTTCGTAGCCACAGGCTTCCACGGACTACATGTCATCATCGGATCCACCTTCCTTATCGTCTGCTTCATACGTCAAATAATATTCCACTTCACATCAAATCACCACTTTGGCTTCGAAGCCGCTGCTTGATATTGACATTTCGTAGATGTTGTATGATTGTTCCTCTATGTATCAATCTATTGATGAGGCTCATAGTCCTTTTAGTATTAATAAGTACAACTGACTTCCAATCAGTTAGTTTCGGTACACCCCGAAAAAGAACAATAAACCTTTTATTAACATTATTAACAAATACAACCCTAGCCCTACTACTTATACTTGTTGCCTTTTGACTCCCCCAACTAAATACCTATGCAGAAAAAACTAGCCCTTATGAGTGTGGCTTTGATCCAATAGGATCTGCTCGCCTACCCTTCTCCATAAAATTCTTCTTAGTTGCAATTACTTTCCTTTTATTTGACCTAGAAATTGCTCTCCTACTTCCCTTACCTTGAGCAATCCAAACAAATAATTTAACAACAATACTTCTTATGGCCTTATTCCTAATCTCCCTACTAGCAGCCAGCCTAGCCTATGAGTGAACCCAAAAAGGCCTAGAATGAGATAAATATGGTACTTAGTTTAAAGTAAAATAAATGGTTTCGACCCATTAGACTGTGATCTAAACTCACAAGTACCAAATGTCTCTAGTCCACATTAATATTCTAATTGCCTTTACAGTATCCCTCACAGGCTTATTAATGTACCGATCCCACCTAATATCCGCATTATTATGTCTAGAAGGCATAGTATTATCATTATTCATCTTGGCGACTCTTACAATCCTAAATACACACTTTACCTTAGCCAACATGATACCAATCATTCTCTTAGTATTTGCAGCCTGCGAGGCAGCTATCGGACTAGCCTTACTAGTCATAGTCTCCAACACATATGGTACTGACTATGTACAAAACCTTAACCTCCTCCAATGCTAAAATTTATTATTCCTACTATCATGCTCATACCTCTGACTTGATTATCAAAAAGCAGCTTTATTTGAATCAATACTACAACCCATAGCTTATTAATTAGCTTTACAAGTTTACTCTTACTTAATCAATTTAACGATAATAGCCTTAATTACTCTTTAATATTCTTCTCTGACCCCCTTTCTGCACCACTCTTAATACTAACAATATGACTTCTCCCCCTAATACTAATAGCAAGTCAATCTCACCTTCTAAAAGAACCACTTGCCCGAAAAAAACTCTACATTACAATACTGGTCATACTTCAAGTCCTCCTAATTATAACCTTCACTGCTATAGAACTAATTATATTTTATATTATATTTGAAGCCACATTAATTCCTACCCTCATCATCATCACTCGTTGAGGCAACCAAACAGAACGACTTAACGCAGGACTCTACTTCTTATTCTATACACTCATAGGATCTCTCCCCTTACTAGTAGCATTAACATACTTGCAGAACACAGTAGGCTCCCTAAACTTCCTATTATTACAGTACTGAGCTCAACCATTATCAACCTCCTGATCTAACACTTTTATATGGCTAGCTTGCATAATAGCCTTTCTAGTAAAAATACCCCTTTATGGACTACACCTTTGACTACCCAAAGCACATGTAGAAGCCCCCATTGCAGGCTCAATAGTCCTTGCAGCCGTACTACTAAAACTCGGAGGCTATGGAATACTACGAATCACATCAATTCTTAACCCCCTAACAGAGCACATAGCATACCCTTTCCTTGTACTATCCCTATGAGGAATAATCATAACCAGTTCCATCTGCCTACGCCAAACAGATCTAAAATCACTAATCGCATACTCCTCAGTCAGCCACATAGCACTCGTCATTGCAGCTGTCCTTATCCAAACCCCCTGAAGTTACATAGGAGCTACCGCCTTAATAATTGCCCATGGCCTTACATCCTCCATACTATTCTGCCTAGCAAACTCAAACTATGAACGCATCCATAGCCGAACTATAATCCTAGCACGAGGCCTACAAATCTTTTTCCCACTAATAGCTACTTGATGACTATTAGCATGCTTAACAAACCTTGCCCTACCTCCTACCATTAACCTAATCGGAGAATTGCTCGTAATTATATCAACCTTCTCATGATCAAACCTTACTATCATCCTTATAGGAGTAAATATTGTAATCACAGCCCTCTATTCCCTATACATACTAATCATAACACAACGTGGCAAACACACACACCATATTAACAATCTCACCCCTACTTTTACACGAGAACATGCCTTAATAGCCCTACACATTATCCCTCTCCTACTCCTATCACTAAACCCTAAAATCATCCTAGGTCCTCTTTATTGTAAGTATAGTTTAAAAAAACCATTAGTTTGTGAAACTAAAAACAGAAGATAAGACCTTCTTACTTACCGAAAAAGAATTGCAAGAACTGCTAATTCATGCGTTCCACACTTAACAATGTGGCTTTTTCAAACTTTTAAAGGATAGTAGTTATCCATTGGTCTTAGGAACCAAAAAATTGGTGCAACTCCAAATAAAAGTAATAAACTTATTTACTTCTTCCACCCTACTCACACTACTTATACTAATAGCCCCTATTGTAGCATCTAGCACAAACTTCTACAAAAATAACAAATACCAACATTATGTAAAAAACATAACCCTCTTTGCTTTCATCACCAGCCTGATCCCAATAACAATATTTATCCACACAAATCAAGAAATGCTTATCTCAAACTGACACTGAATCACCATCCATACTCTTAAATTAACACTCAGCTTTAAAATAGACTACTTTTCACTTATATTCATGCCCGTAGCACTATTCATTACATGATCTATCATAGAATTTTCAATATGATATATGCACTCCGACCCCTACATCAACCAATTCTTCAAATATTTACTCATCTTCCTCATCACCATACTCATCCTTGTCACAGCTAACAACCTCTTCCAATTATTTATTGGATGAGAGGGAGTAGGTATCATATCCTTCCTATTAATTGGCTGATGATTCGGACGAACAGATGCTAATACAGCCGCCCTCCAAGCAATCCTATATAACCGCATCGGAGACATTGGATTCCTTCTATCCATAGCCTGATTCCTACATAATACAAATGCATGAGACCTACAACAAATCTTCACACTTAACCAAAACCCCCCAATCCTCCCTCTCATAGGAATTACATTAGCCGCAGCTGGAAAATCAGCCCAATTTGGTTTACACCCCTGACTACCCTCAGCAATAGAAGGCCCCACTCCAGTCTCAGCCCTACTCCACTCAAGCACAATAGTCGTAGCAGGAATTTTCTTACTTATCCGCTTCTACCCTCTAACAGAAAATAATAAATTTATCCAAACAATAATACTTTCTCTAGGCGCCCTTACCACCCTATTCACAGCTATCTGTGCCTTAACCCAAAATGATATCAAAAAAATCATTGCTTTCTCCACCTCTAGCCAGCTCGGCCTAATAATAGTGACACTAGGCCTCAACCAACCACACCTAGCATTCCTACATATTTGCACACACGCCTTCTTCAAAGCTATATTGTTCCTATGTTCTGGCTCCATCATCCATAACTTAAATAACGAGCAAGATATCCGAAAAATAGGAGGATTATACAAAATCCTTCCCTTCACCACAACTGCCCTAATCATCGGCTGTTTCGCACTAACAGGAATACCATTCCTCACAGGATTCTATTCTAAAGACCTTATCATTGAAGCCGCCACTTCGTCTTATACCAACGCCTGAGCCCTATTACTAACACTAATTGCCACCTCTATAACAGCTATCTACAGCACCCGTATCATTTTCTTTACTTTACTAGAACAACCCCGCTTCCCTCCTCTCATAAACATTAATGAAAATAACCCCATACTAATCAATCCTATTAAACGCCTATTAATCGGAAGCATCTTTGCCGGATTTATCCTCTCCAACAGCATACCCCCAATAAACATCCCTCTAATGACTATACCCCTATATCTAAAACTAACAGCTCTCATAGTAACAATTCTAGGTTTTATTCTTGCATTTGAAATTAACAACTACTCAAAAAACCTAAAATATCCCTATTCATCAGACTCTACTAAATTTTCTACTCTATTAGGTTACTTCCCTACTATCATACATCGCCTACCCCCTCATCTAGTTCTAACAATAAGCCAAAAATTCGCAACCTCCTTATTAGACCTAACCTGAACAGAAACAATTCTACCAAAAACAACAGCTCTCATTCAACTAAAAGCCTCCACGCTAACTTCAAACCAAAAAGGACTTATCAAACTCTACTTCCTATCTTTCCTCATTACTATAACTCTCAGCATACTACTATTTAATTACCCCGAGTAATCTCCATAATAACCACTACACCAATAAACAAAGATCACCCAGTAACAATAACCAATCAAGTACCATAACTATACAACGCAGCAATCCCCATAGCTTCCTCACTAAAAAATCCAGAATCCCCTGTATCATAAATAACTCAATCCCCCAACCCATTAAACTCAAATACAAAATTCACTTTTCCACCCTCTAAAACATATAATACCACTAACAACTCTAACACTAAACCCAAAACAAATCCCCCAAGTACAACTTTATTAGAAACCCAAACCTCAGGATACTGTTCAGTAGCCATAGCCGTTGTGTAACCAAACACAACTAATATTCCTCCTAAATAAATTAAAAATACTATTAAACCTAAAAATGAGCCCCCAAAACTAAAAACAATTCCACATCCCATAGCACCACCCACAATCAACCCTAAACCACCATAAATCGGCGAAGGTTTCGAAGAAACCCCAACAAGACTAATTACAAAAATAGTGCTCATAATAAAAACAATATATATTGCCATTATTCTCACATGGACTCCAACCATGACCAATGACATGAAAAATCATCGTTGTAATTCAACTACAAGAACCCTAATGACCAACATCCGAAAAACACACCCGCTAATAAAAATCCTCAATGATGCATTCATTGATCTACCCACTCCATCTAATATCTCCTCTTGGTGAAATTTTGGTTCCTTACTAGGCCTCTGCCTAATTATACAAATCCTAACAGGACTATTTCTAGCAATACATTACACGCCAGATACCTCAACTGCTTTCTCATCAGTCGCACACATCTGCCGAGACGTCAACTATGGCTGATTCATCCGCTATTTACATGCAAACGGAGCCTCCATATTCTTCATCTGTCTATACGCCCACATTGGACGTGGCCTATACTATGGCTCTTATATGTTCCAAGAAACATGAAATATTGGTGTACTCTTACTACTAACAGTCATAGCCACTGCATTCGTAGGTTACGTCCTACCCTGAGGACAAATATCATTCTGAGGCGCAACCGTCATCACCAACCTCTTATCAGCAATCCCTTATATTGGCACTACCTTAGTTGAATGAATCTGAGGTGGATTCTCCGTAGACAAAGCAACATTAACACGCTTTTTCGCTTTCCACTTTATCCTCCCATTCATCATTACAGCATTAGCAGCCGTTCACCTGCTATTCCTACACGAAACAGGATCCAATAACCCCACAGGAATCCCATCCAATATAGACATAATCCCATTCCACCCTTATTACACAATCAAAGATATCCTAGGTGCCTTACTCCTAATCTTAACCCTACTAGCACTGACCCTATTCACTCCAGACCTACTAGGAGACCCTGATAACTATACCCCAGCAAATCCACTAAGCACCCCTGCACATATCAAACCAGAATGATACTTTCTATTCGCATACGCAATCTTACGATCAATCCCTAATAAACTTGGAGGAGTCCTAGCACTACTACTCTCCATCCTTATCCTAATCTTTATCCCAATACTTCAAACATCCAAACAACGAAGCATAATATTCCGACCCTTCAGCCAACTCCTATTTTGAACCCTAATCGCTGACCTCTTAACCTTAACATGAATTGGAGGTCAACCCGTAGAACACCCATATATCATTGTAGGCCAATTAGCATCTATTCTATACTTCCTCTTAATCCTAGTGCTAATACCAACAGCCGGCCTTATTGAAAATAAACTCCTAAAATGAAGAGTCTTTGTAGTATAACAAAATACCCCGGTCTTGTAAACCGGAAAAGGAGAACCCCATTCCTCCCTAAGACTCAAGGAAGAGACATTAAACCTCACCACCAACACCCAAAGCTGGAATTCTACATAAACTATTCCTTGAAAAAGCTTATTGTACAATTACCACAACATCACAGTACTACGTCAGTATTAAAAGTAATTTGTTTTAAAAACATTTTACTGTACACATTACATACACATACACATGTACATGCTAATATTTAGTCTCTCCTTGTAAATATTCATATATTCATGCTATGTATTATAGTGCATTCATTTATTTTCCATACGATAAGTTAAAGCTCGTATTAATTATCATTAATTTTACATATTACATAATATGTATACTCTTACATATTATATATCCCCTTCAATTTCATCCCCATTATATCCTATGGTCGCTCCATTAGATCACGAGCTTAATCACCATGCCGCGTGAAACCAGCAACCCGCTTGGCAGGGATCCCTCTTCTCGCACCGGGCCCATATCTCGTGGGGGTAGCTAATAATGATCTTTATAAGACATCTGGTTCTTACTTCAGGACCATTTTAACTTAAAATCGCCCACTCGTTCCTCTTAAATAAGACATCTCGATGGACTTATGACTAATCAGCCCATGCCTAACATAACTGAGGTTTCATACATTTGGTATTTTTTAATTTTTGGGGGGGAGCTTGCACCGACTCAGCTATGGCCTTAGAAAGGCCCCGTCACAGTCAAATAAATTGTAGCTGGACCTGTGTGTATTTTTGATTGGACTAGCACAACCAACAGGTGTTATTTAATTAATGGTTACAGGACATAGTACTTTATTATTCCCCCCGGGCTCAAAAAACCCTATCTCATAGAGGTTTTACCCCCCCTTCCCCCTTACAAAACTGATCCTCTGCTTTGATATTCACCACCCCCCTACAGTGCTTCGTCCCTAGATCTACGCGCATTTTTTTTAATAAATCAATACTAAATCTGACACAAGCCCCATAATGAAATCATACAAATAATTTTCCACCCCATAA'
p1094
sbsS'_per_letter_annotations'
p1095
g1
(cBio.SeqRecord
_RestrictedDict
p1096
c__builtin__
dict
p1097
(dtRp1098
(dp1099
S'_length'
p1100
I16385
sbsg105
S'NC_012061.1'
p1101
sS'name'
p1102
S'NC_012061'
p1103
sb.